(dp0
S'https://www.cardekho.com/overview/Mahindra_XUV500/Mahindra_XUV500_AT_W8_1.99_mHawk.htm'
p1
I1632000
sS'https://www.cardekho.com/overview/Land_Rover_Discovery_4/Land_Rover_Discovery_4_SDV6_SE.htm'
p2
I11299999
sS'https://www.cardekho.com/overview/Porsche_Cayenne/Porsche_Cayenne_Base.htm'
p3
I9991000
sS'https://www.cardekho.com/overview/Mahindra_Scorpio/Mahindra_Scorpio_Intelli_Hybrid_S4_Plus.htm'
p4
I1072000
sS'https://www.cardekho.com/overview/Mahindra_Scorpio/Mahindra_Scorpio_Intelli_Hybrid_S8.htm'
p5
I1295000
sS'https://www.cardekho.com/overview/Maruti_SX4_S_Cross/Maruti_SX4_S_Cross_DDiS_320_Delta.htm'
p6
I1070000
sS'https://www.cardekho.com/overview/Ford_Ecosport/Ford_Ecosport_1.5_Ti_VCT_AT_Signature.htm'
p7
I1036999
sS'https://www.cardekho.com/overview/Ford_Ecosport/Ford_Ecosport_1.0_Ecoboost_Titanium_Plus_BE.htm'
p8
I989000
sS'https://www.cardekho.com/overview/Mitsubishi_Pajero/Mitsubishi_Pajero_Sport_4X2_AT_Dual_Tone.htm'
p9
I2783000
sS'https://www.cardekho.com/overview/Mahindra_Bolero/Mahindra_Bolero_Plus_Non_AC_BSIV_PS.htm'
p10
I760000
sS'https://www.cardekho.com/overview/Mahindra_XUV500/Mahindra_XUV500_W8_1.99_mHawk.htm'
p11
I1559000
sS'https://www.cardekho.com/overview/Ford_Endeavour/Ford_Endeavour_3.2_Titanium_AT_4X4.htm'
p12
I3036000
sS'https://www.cardekho.com/overview/Honda_BR-V/Honda_BR-V_i-DTEC_V_MT.htm'
p13
I1221000
sS'https://www.cardekho.com/overview/Hyundai_Creta/Hyundai_Creta_1.6_CRDi_AT_SX_Plus.htm'
p14
I1482000
sS'https://www.cardekho.com/overview/Land_Rover_Discovery_Sport/Land_Rover_Discovery_Sport_SD4_HSE_Luxury.htm'
p15
I6178000
sS'https://www.cardekho.com/overview/Maruti_SX4_S_Cross/Maruti_SX4_S_Cross_DDiS_320_Zeta.htm'
p16
I1175000
sS'https://www.cardekho.com/overview/Renault_Duster/Renault_Duster_85PS_Diesel_RxE.htm'
p17
I974000
sS'https://www.cardekho.com/overview/BMW_X3/BMW_X3_xDrive30d_M_Sport.htm'
p18
I6050000
sS'https://www.cardekho.com/overview/Maruti_Vitara_Brezza/Maruti_Vitara_Brezza_LDi.htm'
p19
I743000
sS'https://www.cardekho.com/overview/BMW_M_Series/BMW_M_Series_X6_M.htm'
p20
I16600000
sS'https://www.cardekho.com/overview/Mahindra_Scorpio/Mahindra_Scorpio_Intelli_Hybrid_S4_Plus_4WD.htm'
p21
I1204000
sS'https://www.cardekho.com/overview/Mahindra_XUV500/Mahindra_XUV500_W4_1.99_mHawk.htm'
p22
I1243000
sS'https://www.cardekho.com/overview/Mahindra_Bolero/Mahindra_Bolero_SLE.htm'
p23
I776000
sS'https://www.cardekho.com/overview/Mahindra_Bolero/Mahindra_Bolero_ZLX_BSIII.htm'
p24
I839000
sS'https://www.cardekho.com/overview/Jeep_Grand_Cherokee/Jeep_Grand_Cherokee_Limited_4X4.htm'
p25
I9999000
sS'https://www.cardekho.com/overview/Chevrolet_Tavera/Chevrolet_Tavera_Neo_3_LS_7_C_BSIII.htm'
p26
I1036000
sS'https://www.cardekho.com/overview/Hyundai_Creta/Hyundai_Creta_1.4_CRDi_Base.htm'
p27
I1022000
sS'https://www.cardekho.com/overview/Land_Rover_Discovery_Sport/Land_Rover_Discovery_Sport_TD4_HSE_7S.htm'
p28
I5601000
sS'https://www.cardekho.com/overview/Mercedes-Benz_GL-Class/Mercedes-Benz_GL-Class_350_CDI_Blue_Efficiency.htm'
p29
I8120000
sS'https://www.cardekho.com/overview/BMW_X5/BMW_X5_xDrive_30d_Design_Pure_Experience_5_Seater.htm'
p30
I7200000
sS'https://www.cardekho.com/overview/Mahindra_Bolero/Mahindra_Bolero_ZLX.htm'
p31
I853999
sS'https://www.cardekho.com/overview/Mahindra_Thar/Mahindra_Thar_DI_4X2.htm'
p32
I616000
sS'https://www.cardekho.com/overview/Tata_Safari_Storme/Tata_Safari_Storme_EX.htm'
p33
I1242000
sS'https://www.cardekho.com/overview/Premier_Rio/Premier_Rio_Petrol_GLX.htm'
p34
I682000
sS'https://www.cardekho.com/overview/Toyota_Fortuner/Toyota_Fortuner_2.5_4x2_AT_TRD_Sportivo.htm'
p35
I2672000
sS'https://www.cardekho.com/overview/Force_Gurkha/Force_Gurkha_Hard_Top_BS3_4WD.htm'
p36
I968000
sS'https://www.cardekho.com/overview/Land_Rover_Discovery_4/Land_Rover_Discovery_4_SDV6_HSE.htm'
p37
I12200000
sS'https://www.cardekho.com/overview/Mahindra_Scorpio/Mahindra_Scorpio_S10_AT_2WD.htm'
p38
I1438000
sS'https://www.cardekho.com/overview/Maruti_Gypsy/Maruti_Gypsy_King_Soft_Top_MPI_BSIV.htm'
p39
I662000
sS'https://www.cardekho.com/overview/Mahindra_Bolero/Mahindra_Bolero_SLX.htm'
p40
I830000
sS'https://www.cardekho.com/overview/Mahindra_XUV500/Mahindra_XUV500_W8_4WD.htm'
p41
I1660000
sS'https://www.cardekho.com/overview/Mahindra_Bolero/Mahindra_Bolero_EX_NON_AC.htm'
p42
I699000
sS'https://www.cardekho.com/overview/Porsche_Cayenne/Porsche_Cayenne_S.htm'
p43
I11800000
sS'https://www.cardekho.com/overview/Mahindra_TUV_300/Mahindra_TUV_300_mHAWK100_T8_Dual_Tone.htm'
p44
I915000
sS'https://www.cardekho.com/overview/Hyundai_Creta/Hyundai_Creta_1.6_VTVT_E.htm'
p45
I938000
sS'https://www.cardekho.com/overview/Mercedes-Benz_GLC_Class/Mercedes-Benz_GLC_Class_300_4MATIC_Sport.htm'
p46
I5802000
sS'https://www.cardekho.com/overview/Maruti_SX4_S_Cross/Maruti_SX4_S_Cross_DDiS_320_Alpha.htm'
p47
I1253000
sS'https://www.cardekho.com/overview/Porsche_Macan/Porsche_Macan_S_Diesel.htm'
p48
I10000000
sS'https://www.cardekho.com/overview/Mercedes-Benz_GLE_Class/Mercedes-Benz_GLE_Class_350d.htm'
p49
I7420000
sS'https://www.cardekho.com/overview/Mahindra_KUV_100/Mahindra_KUV_100_mFALCON_G80_K8_5str.htm'
p50
I626000
sS'https://www.cardekho.com/overview/Jeep_Wrangler/Jeep_Wrangler_4X4.htm'
p51
I7644000
sS'https://www.cardekho.com/overview/Ford_Ecosport/Ford_Ecosport_1.5_Ti_VCT_AT_Titanium_BE.htm'
p52
I1013000
sS'https://www.cardekho.com/overview/Renault_Duster/Renault_Duster_Adventure_Edition_85PS_RXL.htm'
p53
I1075000
sS'https://www.cardekho.com/overview/Chevrolet_Tavera/Chevrolet_Tavera_Neo_3_LS_7_Seats_BSIII.htm'
p54
I1024000
sS'https://www.cardekho.com/overview/Mahindra_XUV500/Mahindra_XUV500_AT_W8_FWD.htm'
p55
I1679000
sS'https://www.cardekho.com/overview/Premier_Rio/Premier_Rio_LX.htm'
p56
I741000
sS'https://www.cardekho.com/overview/Hyundai_Creta/Hyundai_Creta_1.6_CRDi_SX_Plus.htm'
p57
I1367000
sS'https://www.cardekho.com/overview/Renault_Duster/Renault_Duster_85PS_Diesel_STD.htm'
p58
I953999
sS'https://www.cardekho.com/overview/Renault_Duster/Renault_Duster_110PS_Diesel_RxL.htm'
p59
I1135000
sS'https://www.cardekho.com/overview/Hyundai_Creta/Hyundai_Creta_1.6_VTVT_E_Plus.htm'
p60
I1000000
sS'https://www.cardekho.com/overview/Mahindra_KUV_100/Mahindra_KUV_100_mFALCON_D75_K2_Plus.htm'
p61
I584000
sS'https://www.cardekho.com/overview/Mahindra_TUV_300/Mahindra_TUV_300_mHAWK100_T8_AMT.htm'
p62
I974000
sS'https://www.cardekho.com/overview/Toyota_Fortuner/Toyota_Fortuner_4x4_MT.htm'
p63
I2740000
sS'https://www.cardekho.com/overview/Mahindra_Scorpio/Mahindra_Scorpio_S2_7_Seater.htm'
p64
I973000
sS'https://www.cardekho.com/overview/Mahindra_XUV500/Mahindra_XUV500_AT_W6_2WD.htm'
p65
I1481000
sS'https://www.cardekho.com/overview/Hyundai_Creta/Hyundai_Creta_1.4_CRDi_S_Plus.htm'
p66
I1239000
sS'https://www.cardekho.com/overview/Ford_Ecosport/Ford_Ecosport_1.5_TDCi_Trend.htm'
p67
I848000
sS'https://www.cardekho.com/overview/Mahindra_Quanto/Mahindra_Quanto_C4.htm'
p68
I769000
sS'https://www.cardekho.com/overview/Tata_Sumo/Tata_Sumo_Gold_CX.htm'
p69
I721000
sS'https://www.cardekho.com/overview/Mahindra_Scorpio/Mahindra_Scorpio_Adventure_Edition_2WD.htm'
p70
I1391000
sS'https://www.cardekho.com/overview/Mitsubishi_Pajero/Mitsubishi_Pajero_Sport_4X2_AT.htm'
p71
I2734000
sS'https://www.cardekho.com/overview/Mahindra_KUV_100/Mahindra_KUV_100_mFALCON_D75_K4_5str.htm'
p72
I596000
sS'https://www.cardekho.com/overview/Mahindra_Scorpio/Mahindra_Scorpio_Intelli_Hybrid_S10_4WD.htm'
p73
I1486000
sS'https://www.cardekho.com/overview/Ford_Ecosport/Ford_Ecosport_1.5_Ti_VCT_MT_Ambiente.htm'
p74
I707000
sS'https://www.cardekho.com/overview/Mercedes-Benz_GLA/Mercedes-Benz_GLA_45_AMG.htm'
p75
I7216000
sS'https://www.cardekho.com/overview/Mercedes-Benz_GLA_Class/Mercedes-Benz_GLA_Class_200_CDI_SPORT.htm'
p76
I3657000
sS'https://www.cardekho.com/overview/Audi_Q5/Audi_Q5_30_TDI_quattro_Premium.htm'
p77
I5012000
sS'https://www.cardekho.com/overview/Mahindra_KUV_100/Mahindra_KUV_100_mFALCON_G80_K6_5str.htm'
p78
I570000
sS'https://www.cardekho.com/overview/Mercedes-Benz_GLE_Class/Mercedes-Benz_GLE_Class_250d.htm'
p79
I6300000
sS'https://www.cardekho.com/overview/Premier_Rio/Premier_Rio_CRDi4_LX.htm'
p80
I760000
sS'https://www.cardekho.com/overview/Ford_Ecosport/Ford_Ecosport_1.5_Ti_VCT_MT_Titanium_BE.htm'
p81
I906000
sS'https://www.cardekho.com/overview/Force_Gurkha/Force_Gurkha_Soft_Top_BS3_4WD.htm'
p82
I943000
sS'https://www.cardekho.com/overview/Toyota_Fortuner/Toyota_Fortuner_4x2_Manual.htm'
p83
I2555000
sS'https://www.cardekho.com/overview/Land_Rover_Range_Rover_Sport/Land_Rover_Range_Rover_Sport_Autobiography.htm'
p84
I17800000
sS'https://www.cardekho.com/overview/Mahindra_Bolero/Mahindra_Bolero_Plus_AC.htm'
p85
I785000
sS'https://www.cardekho.com/overview/Mahindra_KUV_100/Mahindra_KUV_100_mFALCON_D75_K6_Plus_5str.htm'
p86
I685000
sS'https://www.cardekho.com/overview/Mahindra_Scorpio/Mahindra_Scorpio_Adventure_Edition_4WD.htm'
p87
I1513000
sS'https://www.cardekho.com/overview/Tata_Sumo/Tata_Sumo_Gold_EX.htm'
p88
I787000
sS'https://www.cardekho.com/overview/Ford_Ecosport/Ford_Ecosport_1.5_TDCi_Trend_Plus.htm'
p89
I880000
sS'https://www.cardekho.com/overview/Renault_Duster/Renault_Duster_Adventure_Edition_85PS_RXE.htm'
p90
I992000
sS'https://www.cardekho.com/overview/Mahindra_Ssangyong_Rexton/Mahindra_Ssangyong_Rexton_RX6.htm'
p91
I2376000
sS'https://www.cardekho.com/overview/Honda_CR-V/Honda_CR-V_2.4L_4WD_AT.htm'
p92
I2715000
sS'https://www.cardekho.com/overview/Mahindra_Bolero/Mahindra_Bolero_SLE_BSIII.htm'
p93
I760000
sS'https://www.cardekho.com/overview/Mahindra_Quanto/Mahindra_Quanto_C6.htm'
p94
I818000
sS'https://www.cardekho.com/overview/Mahindra_Bolero/Mahindra_Bolero_mHAWK_D70_ZLX.htm'
p95
I787000
sS'https://www.cardekho.com/overview/Mahindra_NuvoSport/Mahindra_NuvoSport_N6.htm'
p96
I878999
sS'https://www.cardekho.com/overview/Mahindra_KUV_100/Mahindra_KUV_100_mFALCON_D75_K4.htm'
p97
I602000
sS'https://www.cardekho.com/overview/Land_Rover_Range_Rover_Evoque/Land_Rover_Range_Rover_Evoque_Coupe_HSE_Dynamic.htm'
p98
I5290000
sS'https://www.cardekho.com/overview/Nissan_Terrano/Nissan_Terrano_XV_Premium_110_PS.htm'
p99
I1314000
sS'https://www.cardekho.com/overview/Chevrolet_Tavera/Chevrolet_Tavera_Neo_3_Max_10_Seats_BSIII.htm'
p100
I906000
sS'https://www.cardekho.com/overview/Volvo_XC60/Volvo_XC60_D5_Inscription.htm'
p101
I5170000
sS'https://www.cardekho.com/overview/Hyundai_Santa_Fe/Hyundai_Santa_Fe_2WD_AT.htm'
p102
I3030000
sS'https://www.cardekho.com/overview/Mahindra_Scorpio/Mahindra_Scorpio_1.99_S4_Plus_4WD.htm'
p103
I1172000
sS'https://www.cardekho.com/overview/Mercedes-Benz_GLE_Class/Mercedes-Benz_GLE_Class_400_4MATIC.htm'
p104
I7490000
sS'https://www.cardekho.com/overview/Isuzu_MU_7/Isuzu_MU_7_AT_Premium.htm'
p105
I2391000
sS'https://www.cardekho.com/overview/Volvo_XC_90/Volvo_XC_90_D5_Momentum.htm'
p106
I7631999
sS'https://www.cardekho.com/overview/Maruti_Gypsy/Maruti_Gypsy_King_Hard_Top_Ambulance_BSIV.htm'
p107
I607000
sS'https://www.cardekho.com/overview/Mahindra_Bolero/Mahindra_Bolero_DI_-_AC_BS_III.htm'
p108
I711000
sS'https://www.cardekho.com/overview/Mahindra_Quanto/Mahindra_Quanto_C8.htm'
p109
I871000
sS'https://www.cardekho.com/overview/Audi_Q3/Audi_Q3_35_TDI_Dynamic_Edition.htm'
p110
I3942000
sS'https://www.cardekho.com/overview/Volvo_XC_90/Volvo_XC_90_D5_Inscription.htm'
p111
I9423000
sS'https://www.cardekho.com/overview/Renault_Duster/Renault_Duster_Petrol_RxE.htm'
p112
I873000
sS'https://www.cardekho.com/overview/Ford_Ecosport/Ford_Ecosport_1.5_TDCi_Titanium_BE.htm'
p113
I967000
sS'https://www.cardekho.com/overview/Maruti_Vitara_Brezza/Maruti_Vitara_Brezza_VDi_Option.htm'
p114
I826000
sS'https://www.cardekho.com/overview/BMW_X1/BMW_X1_sDrive20d_Expedition.htm'
p115
I2990000
sS'https://www.cardekho.com/overview/Honda_CR-V/Honda_CR-V_2.0L_2WD_MT.htm'
p116
I2294000
sS'https://www.cardekho.com/overview/Mahindra_Scorpio/Mahindra_Scorpio_1.99_S4.htm'
p117
I1006000
sS'https://www.cardekho.com/overview/Chevrolet_Tavera/Chevrolet_Tavera_Neo_3_LT_9_Seats_BSIII.htm'
p118
I1131000
sS'https://www.cardekho.com/overview/Honda_BR-V/Honda_BR-V_i-DTEC_E_MT.htm'
p119
I1010000
sS'https://www.cardekho.com/overview/Honda_BR-V/Honda_BR-V_i-VTEC_S_MT.htm'
p120
I1021000
sS'https://www.cardekho.com/overview/Mahindra_KUV_100/Mahindra_KUV_100_mFALCON_G80_K4_Plus_5str.htm'
p121
I532000
sS'https://www.cardekho.com/overview/BMW_X1/BMW_X1_xDrive_20d_M_Sport.htm'
p122
I4099000
sS'https://www.cardekho.com/overview/Land_Rover_Discovery_Sport/Land_Rover_Discovery_Sport_Si4_HSE.htm'
p123
I5650000
sS'https://www.cardekho.com/overview/Mahindra_TUV_300/Mahindra_TUV_300_T4.htm'
p124
I752000
sS'https://www.cardekho.com/overview/Ford_Endeavour/Ford_Endeavour_2.2_Trend_AT_4X2.htm'
p125
I2601000
sS'https://www.cardekho.com/overview/Porsche_Cayenne/Porsche_Cayenne_S_Diesel.htm'
p126
I12100000
sS'https://www.cardekho.com/overview/Mahindra_Scorpio/Mahindra_Scorpio_1.99_S10.htm'
p127
I1324000
sS'https://www.cardekho.com/overview/Audi_Q5/Audi_Q5_30_TDI_quattro_Technology.htm'
p128
I5730000
sS'https://www.cardekho.com/overview/BMW_M_Series/BMW_M_Series_M4_Coupe.htm'
p129
I12800000
sS'https://www.cardekho.com/overview/Maruti_Vitara_Brezza/Maruti_Vitara_Brezza_LDi_Option.htm'
p130
I756000
sS'https://www.cardekho.com/overview/Mahindra_Bolero/Mahindra_Bolero_Plus_Non_AC.htm'
p131
I743000
sS'https://www.cardekho.com/overview/Hyundai_Creta/Hyundai_Creta_1.6_VTVT_S.htm'
p132
I1052000
sS'https://www.cardekho.com/overview/Land_Rover_Range_Rover/Land_Rover_Range_Rover_LWB_3.0_Vogue.htm'
p133
I21100000
sS'https://www.cardekho.com/overview/Mahindra_KUV_100/Mahindra_KUV_100_mFALCON_G80_K6_Plus_5str.htm'
p134
I592000
sS'https://www.cardekho.com/overview/Renault_Duster/Renault_Duster_85PS_Diesel_RxZ.htm'
p135
I1175000
sS'https://www.cardekho.com/overview/Hyundai_Creta/Hyundai_Creta_1.6_VTVT_AT_SX_Plus.htm'
p136
I1316000
sS'https://www.cardekho.com/overview/Hyundai_Santa_Fe/Hyundai_Santa_Fe_4WD_AT.htm'
p137
I3251000
sS'https://www.cardekho.com/overview/Mahindra_Scorpio/Mahindra_Scorpio_Getaway.htm'
p138
I905000
sS'https://www.cardekho.com/overview/Mahindra_XUV500/Mahindra_XUV500_AT_W10_FWD.htm'
p139
I1763000
sS'https://www.cardekho.com/overview/Land_Rover_Range_Rover/Land_Rover_Range_Rover_LWB_4.4_SDV8_Autobiography.htm'
p140
I25900000
sS'https://www.cardekho.com/overview/Land_Rover_Range_Rover/Land_Rover_Range_Rover_LWB_5.0_V8.htm'
p141
I26700000
sS'https://www.cardekho.com/overview/Honda_BR-V/Honda_BR-V_i-VTEC_E_MT.htm'
p142
I903999
sS'https://www.cardekho.com/overview/Mahindra_Bolero/Mahindra_Bolero_Plus_-_Non-AC_BSIII_PS.htm'
p143
I726000
sS'https://www.cardekho.com/overview/Chevrolet_Tavera/Chevrolet_Tavera_Neo_3_LS_10_Seats_BSIII.htm'
p144
I989000
sS'https://www.cardekho.com/overview/Mahindra_Ssangyong_Rexton/Mahindra_Ssangyong_Rexton_RX7.htm'
p145
I2517000
sS'https://www.cardekho.com/overview/Mahindra_KUV_100/Mahindra_KUV_100_mFALCON_G80_K4_5str.htm'
p146
I509000
sS'https://www.cardekho.com/overview/Audi_Q5/Audi_Q5_30_TDI_quattro_Premium_Plus.htm'
p147
I5330000
sS'https://www.cardekho.com/overview/Mahindra_Bolero/Mahindra_Bolero_Special_Edition.htm'
p148
I861999
sS'https://www.cardekho.com/overview/Mahindra_NuvoSport/Mahindra_NuvoSport_N4.htm'
p149
I770000
sS'https://www.cardekho.com/overview/Land_Rover_Range_Rover_Sport/Land_Rover_Range_Rover_Sport_HSE.htm'
p150
I15400000
sS'https://www.cardekho.com/overview/Mitsubishi_Pajero/Mitsubishi_Pajero_Sport_4X4_Dual_Tone.htm'
p151
I2822000
sS'https://www.cardekho.com/overview/Nissan_Terrano/Nissan_Terrano_XE_85_PS.htm'
p152
I998000
sS'https://www.cardekho.com/overview/Mahindra_Thar/Mahindra_Thar_DI_4X2_PS.htm'
p153
I591000
sS'https://www.cardekho.com/overview/Audi_Q3/Audi_Q3_35_TDI_Quattro_Premium_Plus.htm'
p154
I4122999
sS'https://www.cardekho.com/overview/Mahindra_TUV_300/Mahindra_TUV_300_T6_Plus.htm'
p155
I844999
sS'https://www.cardekho.com/overview/Mahindra_Scorpio/Mahindra_Scorpio_Intelli_Hybrid_S10.htm'
p156
I1350000
sS'https://www.cardekho.com/overview/Mahindra_Quanto/Mahindra_Quanto_C2.htm'
p157
I712000
sS'https://www.cardekho.com/overview/Renault_Duster/Renault_Duster_110PS_Diesel_RxL_AMT.htm'
p158
I1195000
sS'https://www.cardekho.com/overview/Porsche_Macan/Porsche_Macan_2L.htm'
p159
I7000000
sS'https://www.cardekho.com/overview/Mahindra_TUV_300/Mahindra_TUV_300_T6_Plus_AMT.htm'
p160
I919999
sS'https://www.cardekho.com/overview/BMW_X3/BMW_X3_xDrive20d_Expedition.htm'
p161
I4750000
sS'https://www.cardekho.com/overview/Mercedes-Benz_GL-Class/Mercedes-Benz_GL-Class_63_AMG.htm'
p162
I23900000
sS'https://www.cardekho.com/overview/Mahindra_TUV_300/Mahindra_TUV_300_T8.htm'
p163
I908000
sS'https://www.cardekho.com/overview/Mercedes-Benz_GLA_Class/Mercedes-Benz_GLA_Class_200.htm'
p164
I3550000
sS'https://www.cardekho.com/overview/Tata_Sumo/Tata_Sumo_Gold_EX_BSIII.htm'
p165
I774000
sS'https://www.cardekho.com/overview/Mahindra_KUV_100/Mahindra_KUV_100_mFALCON_G80_K6_Plus.htm'
p166
I599000
sS'https://www.cardekho.com/overview/Volvo_XC_90/Volvo_XC_90_T8_Excellence.htm'
p167
I13100000
sS'https://www.cardekho.com/overview/Mercedes-Benz_GLE_Class/Mercedes-Benz_GLE_Class_Coupe.htm'
p168
I8956000
sS'https://www.cardekho.com/overview/Maruti_SX4_S_Cross/Maruti_SX4_S_Cross_DDiS_200_Sigma.htm'
p169
I846000
sS'https://www.cardekho.com/overview/Toyota_Fortuner/Toyota_Fortuner_4x4_AT.htm'
p170
I2840000
sS'https://www.cardekho.com/overview/Mahindra_Scorpio/Mahindra_Scorpio_Intelli_Hybrid_S4.htm'
p171
I1042000
sS'https://www.cardekho.com/overview/Mercedes-Benz_GLS/Mercedes-Benz_GLS_350d_4MATIC.htm'
p172
I8336000
sS'https://www.cardekho.com/overview/Mahindra_Ssangyong_Rexton/Mahindra_Ssangyong_Rexton_RX5.htm'
p173
I2130000
sS'https://www.cardekho.com/overview/Ford_Ecosport/Ford_Ecosport_1.5_TDCi_Trend_Plus_BE.htm'
p174
I919999
sS'https://www.cardekho.com/overview/Ford_Ecosport/Ford_Ecosport_1.5_Ti_VCT_MT_Trend.htm'
p175
I787000
sS'https://www.cardekho.com/overview/Mahindra_XUV500/Mahindra_XUV500_W6_1.99_mHawk.htm'
p176
I1385000
sS'https://www.cardekho.com/overview/Porsche_Cayenne/Porsche_Cayenne_S_Hybrid.htm'
p177
I15900000
sS'https://www.cardekho.com/overview/Mahindra_Bolero/Mahindra_Bolero_EX_AC.htm'
p178
I743000
sS'https://www.cardekho.com/overview/Mahindra_Bolero/Mahindra_Bolero_LX_4WD_NON_AC_BSIV.htm'
p179
I798000
sS'https://www.cardekho.com/overview/Honda_CR-V/Honda_CR-V_2.0L_2WD_AT.htm'
p180
I2477000
sS'https://www.cardekho.com/overview/Renault_Duster/Renault_Duster_110PS_Diesel_RxZ_AMT.htm'
p181
I1316000
sS'https://www.cardekho.com/overview/Hyundai_Creta/Hyundai_Creta_1.6_CRDi_Anniversary_Edition.htm'
p182
I1406000
sS'https://www.cardekho.com/overview/Conquest_Evade/Conquest_Evade_SUV.htm'
p183
I85000000
sS'https://www.cardekho.com/overview/Volvo_XC60/Volvo_XC60_D4_KINETIC.htm'
p184
I4550000
sS'https://www.cardekho.com/overview/Land_Rover_Range_Rover_Evoque/Land_Rover_Range_Rover_Evoque_HSE_Dynamic.htm'
p185
I6431999
sS'https://www.cardekho.com/overview/Porsche_Cayenne/Porsche_Cayenne_Turbo.htm'
p186
I17800000
sS'https://www.cardekho.com/overview/Toyota_Land_Cruiser_Prado/Toyota_Land_Cruiser_Prado_VX_L.htm'
p187
I9392000
sS'https://www.cardekho.com/overview/Volvo_XC60/Volvo_XC60_D4_Momentum.htm'
p188
I4790000
sS'https://www.cardekho.com/overview/Land_Rover_Range_Rover/Land_Rover_Range_Rover_LWB_4.4_SDV8_Vogue_SE.htm'
p189
I25200000
sS'https://www.cardekho.com/overview/Land_Rover_Range_Rover_Evoque/Land_Rover_Range_Rover_Evoque_HSE.htm'
p190
I5873000
sS'https://www.cardekho.com/overview/Porsche_Macan/Porsche_Macan_Turbo.htm'
p191
I11000000
sS'https://www.cardekho.com/overview/Land_Rover_Range_Rover_Sport/Land_Rover_Range_Rover_Sport_SVR.htm'
p192
I20700000
sS'https://www.cardekho.com/overview/Force_One/Force_One_SX_ABS_6_Seating.htm'
p193
I1333000
sS'https://www.cardekho.com/overview/Land_Rover_Range_Rover/Land_Rover_Range_Rover_LWB_4.4_SDV8_Autobiography_Black_Edition.htm'
p194
I38500000
sS'https://www.cardekho.com/overview/Mahindra_Bolero/Mahindra_Bolero_Plus_AC_BSIV_PS.htm'
p195
I801000
sS'https://www.cardekho.com/overview/Mahindra_KUV_100/Mahindra_KUV_100_mFALCON_G80_K2.htm'
p196
I467000
sS'https://www.cardekho.com/overview/Ford_Ecosport/Ford_Ecosport_1.0_Ecoboost_Trend_Plus_BE.htm'
p197
I890000
sS'https://www.cardekho.com/overview/Land_Rover_Range_Rover/Land_Rover_Range_Rover_LWB_5.0_V8_Autobiography_Black_Edition.htm'
p198
I39500000
sS'https://www.cardekho.com/overview/Chevrolet_Trailblazer/Chevrolet_Trailblazer_LTZ_4X2_AT.htm'
p199
I2750000
sS'https://www.cardekho.com/overview/Hyundai_Santa_Fe/Hyundai_Santa_Fe_2WD_MT.htm'
p200
I2902000
sS'https://www.cardekho.com/overview/Ford_Endeavour/Ford_Endeavour_2.2_Titanium_AT_4X2.htm'
p201
I2806000
sS'https://www.cardekho.com/overview/Mercedes-Benz_GLC_Class/Mercedes-Benz_GLC_Class_220d_4MATIC_Style.htm'
p202
I5314000
sS'https://www.cardekho.com/overview/Mahindra_NuvoSport/Mahindra_NuvoSport_N8_AMT.htm'
p203
I1022000
sS'https://www.cardekho.com/overview/Mahindra_XUV500/Mahindra_XUV500_W10_AWD.htm'
p204
I1772000
sS'https://www.cardekho.com/overview/Land_Rover_Range_Rover_Evoque/Land_Rover_Range_Rover_Evoque_Pure.htm'
p205
I4794000
sS'https://www.cardekho.com/overview/Nissan_Terrano/Nissan_Terrano_XL.htm'
p206
I998000
sS'https://www.cardekho.com/overview/Tata_New_Safari/Tata_New_Safari_DICOR_2.2_EX_4x2_BS_IV.htm'
p207
I1091000
sS'https://www.cardekho.com/overview/Jeep_Grand_Cherokee/Jeep_Grand_Cherokee_SRT_4X4.htm'
p208
I12000000
sS'https://www.cardekho.com/overview/Maruti_SX4_S_Cross/Maruti_SX4_S_Cross_DDiS_200_Zeta.htm'
p209
I986000
sS'https://www.cardekho.com/overview/Mahindra_KUV_100/Mahindra_KUV_100_mFALCON_G80_K4_Plus.htm'
p210
I538000
sS'https://www.cardekho.com/overview/Mahindra_KUV_100/Mahindra_KUV_100_mFALCON_D75_K6_Plus.htm'
p211
I691000
sS'https://www.cardekho.com/overview/Mahindra_KUV_100/Mahindra_KUV_100_mFALCON_G80_K8.htm'
p212
I633000
sS'https://www.cardekho.com/overview/Premier_Rio/Premier_Rio_Petrol_GX.htm'
p213
I653000
sS'https://www.cardekho.com/overview/Mitsubishi_Pajero/Mitsubishi_Pajero_Sport_4X4.htm'
p214
I2773000
sS'https://www.cardekho.com/overview/Audi_Q3/Audi_Q3_30_TDI_S_Edition.htm'
p215
I3165000
sS'https://www.cardekho.com/overview/Mahindra_KUV_100/Mahindra_KUV_100_mFALCON_G80_K4.htm'
p216
I516000
sS'https://www.cardekho.com/overview/Mahindra_XUV500/Mahindra_XUV500_W4.htm'
p217
I1258000
sS'https://www.cardekho.com/overview/Mahindra_KUV_100/Mahindra_KUV_100_mFALCON_D75_K4_Plus.htm'
p218
I625000
sS'https://www.cardekho.com/overview/Ford_Ecosport/Ford_Ecosport_1.5_TDCi_Titanium_Plus_BE.htm'
p219
I1018000
sS'https://www.cardekho.com/overview/Mahindra_XUV500/Mahindra_XUV500_W8_2WD.htm'
p220
I1569000
sS'https://www.cardekho.com/overview/Honda_BR-V/Honda_BR-V_i-DTEC_S_MT.htm'
p221
I1132000
sS'https://www.cardekho.com/overview/BMW_M_Series/BMW_M_Series_M3_Sedan.htm'
p222
I12600000
sS'https://www.cardekho.com/overview/Audi_Q7/Audi_Q7_45_TDI_Quattro_Technology.htm'
p223
I7919000
sS'https://www.cardekho.com/overview/Tata_New_Safari/Tata_New_Safari_DICOR_2.2_LX_4x2_BS_IV.htm'
p224
I967000
sS'https://www.cardekho.com/overview/Chevrolet_Tavera/Chevrolet_Tavera_Neo_3_10_Seats_BSIII.htm'
p225
I811999
sS'https://www.cardekho.com/overview/Mahindra_NuvoSport/Mahindra_NuvoSport_N8.htm'
p226
I958000
sS'https://www.cardekho.com/overview/Skoda_Yeti/Skoda_Yeti_Style_4X2.htm'
p227
I2192000
sS'https://www.cardekho.com/overview/Land_Rover_Discovery_Sport/Land_Rover_Discovery_Sport_TD4_SE_7S.htm'
p228
I5343000
sS'https://www.cardekho.com/overview/Ford_Ecosport/Ford_Ecosport_1.5_TDCi_Signature.htm'
p229
I991000
sS'https://www.cardekho.com/overview/Mahindra_TUV_300/Mahindra_TUV_300_T4_Plus.htm'
p230
I788000
sS'https://www.cardekho.com/overview/Mahindra_XUV500/Mahindra_XUV500_AT_W6_1.99_mHawk.htm'
p231
I1472000
sS'https://www.cardekho.com/overview/Premier_Rio/Premier_Rio_DX.htm'
p232
I607000
sS'https://www.cardekho.com/overview/Mahindra_TUV_300/Mahindra_TUV_300_T8_AMT.htm'
p233
I982000
sS'https://www.cardekho.com/overview/Hyundai_Creta/Hyundai_Creta_1.6_CRDi_AT_S_Plus.htm'
p234
I1388000
sS'https://www.cardekho.com/overview/Mahindra_Scorpio/Mahindra_Scorpio_1.99_S10_4WD.htm'
p235
I1445000
sS'https://www.cardekho.com/overview/Premier_Rio/Premier_Rio_CRDi4_DX.htm'
p236
I721000
sS'https://www.cardekho.com/overview/Mahindra_Thar/Mahindra_Thar_DI_4X4.htm'
p237
I644000
sS'https://www.cardekho.com/overview/Ford_Endeavour/Ford_Endeavour_3.2_Trend_AT_4X4.htm'
p238
I2820000
sS'https://www.cardekho.com/overview/Audi_Q3/Audi_Q3_35_TDI_Quattro_Premium.htm'
p239
I3811000
sS'https://www.cardekho.com/overview/Mahindra_Bolero/Mahindra_Bolero_DI_NON_AC_BS_III_SILVER.htm'
p240
I681000
sS'https://www.cardekho.com/overview/Hyundai_Creta/Hyundai_Creta_1.4_CRDi_S.htm'
p241
I1147000
sS'https://www.cardekho.com/overview/Mahindra_KUV_100/Mahindra_KUV_100_mFALCON_D75_K6.htm'
p242
I668000
sS'https://www.cardekho.com/overview/Renault_Duster/Renault_Duster_85PS_Diesel_RxL.htm'
p243
I1054000
sS'https://www.cardekho.com/overview/Maruti_SX4_S_Cross/Maruti_SX4_S_Cross_DDiS_200_Alpha.htm'
p244
I1107000
sS'https://www.cardekho.com/overview/Skoda_Yeti/Skoda_Yeti_Style_4X4.htm'
p245
I2376000
sS'https://www.cardekho.com/overview/Maruti_Vitara_Brezza/Maruti_Vitara_Brezza_ZDi_Plus_Dual_Tone.htm'
p246
I1014000
sS'https://www.cardekho.com/overview/Porsche_Cayenne/Porsche_Cayenne_Turbo_S.htm'
p247
I24400000
sS'https://www.cardekho.com/overview/Premier_Rio/Premier_Rio_DX_Beige_Interior.htm'
p248
I712000
sS'https://www.cardekho.com/overview/Premier_Rio/Premier_Rio_GX_Beieg_Interior.htm'
p249
I645000
sS'https://www.cardekho.com/overview/Ford_Ecosport/Ford_Ecosport_1.5_TDCi_Titanium.htm'
p250
I948000
sS'https://www.cardekho.com/overview/Honda_BR-V/Honda_BR-V_i-VTEC_V_MT.htm'
p251
I1125000
sS'https://www.cardekho.com/overview/Force_Gurkha/Force_Gurkha_Soft_Top_BS3_2WD.htm'
p252
I690000
sS'https://www.cardekho.com/overview/Nissan_Terrano/Nissan_Terrano_XV_D_Premium_AMT.htm'
p253
I1429000
sS'https://www.cardekho.com/overview/Ford_Ecosport/Ford_Ecosport_1.5_TDCi_Ambiente.htm'
p254
I775000
sS'https://www.cardekho.com/overview/Force_One/Force_One_EX.htm'
p255
I1036999
sS'https://www.cardekho.com/overview/Land_Rover_Range_Rover_Sport/Land_Rover_Range_Rover_Sport_SE.htm'
p256
I13400000
sS'https://www.cardekho.com/overview/Land_Rover_Discovery_Sport/Land_Rover_Discovery_Sport_TD4_S.htm'
p257
I4692000
sS'https://www.cardekho.com/overview/Ford_Ecosport/Ford_Ecosport_1.5_Ti_VCT_MT_Signature.htm'
p258
I944999
sS'https://www.cardekho.com/overview/Mercedes-Benz_GLC_Class/Mercedes-Benz_GLC_Class_220d_4MATIC_Sport.htm'
p259
I5757000
sS'https://www.cardekho.com/overview/Renault_Duster/Renault_Duster_110PS_Diesel_RxZ_AWD.htm'
p260
I1387000
sS'https://www.cardekho.com/overview/Force_One/Force_One_SX_ABS_7_Seating.htm'
p261
I1345000
sS'https://www.cardekho.com/overview/Mahindra_NuvoSport/Mahindra_NuvoSport_N6_AMT.htm'
p262
I944999
sS'https://www.cardekho.com/overview/Mercedes-Benz_GLA_Class/Mercedes-Benz_GLA_Class_200_CDI.htm'
p263
I3343000
sS'https://www.cardekho.com/overview/Audi_Q7/Audi_Q7_45_TDI_Quattro_Premium_Plus.htm'
p264
I7654000
sS'https://www.cardekho.com/overview/Mahindra_XUV500/Mahindra_XUV500_W10_2WD.htm'
p265
I1660000
sS'https://www.cardekho.com/overview/Mahindra_Bolero/Mahindra_Bolero_Plus_-_AC_BSIII.htm'
p266
I750000
sS'https://www.cardekho.com/overview/Toyota_Fortuner/Toyota_Fortuner_4x2_AT.htm'
p267
I2655000
sS'https://www.cardekho.com/overview/Hyundai_Creta/Hyundai_Creta_1.6_VTVT_Anniversary_Edition.htm'
p268
I1250000
sS'https://www.cardekho.com/overview/Mahindra_KUV_100/Mahindra_KUV_100_mFALCON_D75_K2.htm'
p269
I561000
sS'https://www.cardekho.com/overview/Renault_Duster/Renault_Duster_Petrol_RxL.htm'
p270
I953999
sS'https://www.cardekho.com/overview/Mahindra_KUV_100/Mahindra_KUV_100_mFALCON_G80_K2_Plus.htm'
p271
I497000
sS'https://www.cardekho.com/overview/Tata_Safari_Storme/Tata_Safari_Storme_VX_Varicor_400.htm'
p272
I1406000
sS'https://www.cardekho.com/overview/Mahindra_Bolero/Mahindra_Bolero_LX_4WD_NON_AC_BS3.htm'
p273
I753000
sS'https://www.cardekho.com/overview/BMW_M_Series/BMW_M_Series_X5_M.htm'
p274
I16200000
sS'https://www.cardekho.com/overview/Hyundai_Creta/Hyundai_Creta_1.6_CRDi_SX_Option.htm'
p275
I1475000
sS'https://www.cardekho.com/overview/Audi_Q5/Audi_Q5_45_TDI_quattro_Technology.htm'
p276
I6431999
sS'https://www.cardekho.com/overview/Mahindra_Scorpio/Mahindra_Scorpio_S8_7C_Seater.htm'
p277
I1255000
sS'https://www.cardekho.com/overview/Renault_Duster/Renault_Duster_110PS_Diesel_RxZ.htm'
p278
I1256000
sS'https://www.cardekho.com/overview/Tata_Safari_Storme/Tata_Safari_Storme_LX.htm'
p279
I1039000
sS'https://www.cardekho.com/overview/Tata_Sumo/Tata_Sumo_Gold_GX.htm'
p280
I858000
sS'https://www.cardekho.com/overview/BMW_X1/BMW_X1_xDrive_20d_xLine.htm'
p281
I3699000
sS'https://www.cardekho.com/overview/Honda_BR-V/Honda_BR-V_i-DTEC_VX_MT.htm'
p282
I1328000
sS'https://www.cardekho.com/overview/Maruti_SX4_S_Cross/Maruti_SX4_S_Cross_DDiS_200_Delta.htm'
p283
I919000
sS'https://www.cardekho.com/overview/Mahindra_Bolero/Mahindra_Bolero_LX_NON_AC_BS3.htm'
p284
I707000
sS'https://www.cardekho.com/overview/BMW_M_Series/BMW_M_Series_M5_Sedan.htm'
p285
I13600000
sS'https://www.cardekho.com/overview/Mahindra_KUV_100/Mahindra_KUV_100_mFALCON_G80_K6.htm'
p286
I576000
sS'https://www.cardekho.com/overview/Honda_BR-V/Honda_BR-V_i-VTEC_V_CVT.htm'
p287
I1234000
sS'https://www.cardekho.com/overview/Ford_Ecosport/Ford_Ecosport_1.5_Ti_VCT_AT_Titanium.htm'
p288
I994000
sS'https://www.cardekho.com/overview/Toyota_Fortuner/Toyota_Fortuner_2.5_4x2_MT_TRD_Sportivo.htm'
p289
I2572000
sS'https://www.cardekho.com/overview/BMW_X6/BMW_X6_xDrive_40d_M_Sport.htm'
p290
I12000000
sS'https://www.cardekho.com/overview/Ford_Ecosport/Ford_Ecosport_1.0_Ecoboost_Trend_Plus.htm'
p291
I849000
sS'https://www.cardekho.com/overview/Mahindra_Bolero/Mahindra_Bolero_Plus_AC_BSIII_PS.htm'
p292
I767000
sS'https://www.cardekho.com/overview/Land_Rover_Range_Rover_Sport/Land_Rover_Range_Rover_Sport_S.htm'
p293
I11800000
sS'https://www.cardekho.com/overview/BMW_X3/BMW_X3_xDrive20d_xLine.htm'
p294
I5390000
sS'https://www.cardekho.com/overview/Tata_Sumo/Tata_Sumo_Gold_CX_PS_BSIII.htm'
p295
I703000
sS'https://www.cardekho.com/overview/Mahindra_XUV500/Mahindra_XUV500_AT_W10_AWD.htm'
p296
I1875000
sS'https://www.cardekho.com/overview/Mahindra_Scorpio/Mahindra_Scorpio_1.99_S4_Plus.htm'
p297
I1050000
sS'https://www.cardekho.com/overview/Maruti_Vitara_Brezza/Maruti_Vitara_Brezza_ZDi_Plus.htm'
p298
I992000
sS'https://www.cardekho.com/overview/Mahindra_Scorpio/Mahindra_Scorpio_S10_AT_4WD.htm'
p299
I1563000
sS'https://www.cardekho.com/overview/Porsche_Cayenne/Porsche_Cayenne_GTS.htm'
p300
I17000000
sS'https://www.cardekho.com/overview/Mahindra_TUV_300/Mahindra_TUV_300_T6.htm'
p301
I819000
sS'https://www.cardekho.com/overview/Land_Rover_Range_Rover_Evoque/Land_Rover_Range_Rover_Evoque_SE.htm'
p302
I5384000
sS'https://www.cardekho.com/overview/Mahindra_XUV500/Mahindra_XUV500_W6_2WD.htm'
p303
I1392000
sS'https://www.cardekho.com/overview/Honda_BR-V/Honda_BR-V_i-VTEC_VX_MT.htm'
p304
I1219000
sS'https://www.cardekho.com/overview/Chevrolet_Tavera/Chevrolet_Tavera_Neo_3_Max_9_Str_BSIII.htm'
p305
I886999
sS'https://www.cardekho.com/overview/Hyundai_Creta/Hyundai_Creta_1.6_CRDi_SX.htm'
p306
I1265000
sS'https://www.cardekho.com/overview/Mahindra_Bolero/Mahindra_Bolero_Plus_-_Non-AC_BSIII.htm'
p307
I709000
sS'https://www.cardekho.com/overview/Mahindra_Bolero/Mahindra_Bolero_mHAWK_D70_SLE.htm'
p308
I687000
sS'https://www.cardekho.com/overview/Force_One/Force_One_4x4.htm'
p309
I1463000
sS'https://www.cardekho.com/overview/BMW_X5/BMW_X5_xDrive_30d_Design_Pure_Experience_7_Seater.htm'
p310
I7500000
sS'https://www.cardekho.com/overview/Mahindra_KUV_100/Mahindra_KUV_100_mFALCON_D75_K8.htm'
p311
I725000
sS'https://www.cardekho.com/overview/Land_Rover_Discovery_Sport/Land_Rover_Discovery_Sport_TD4_SE.htm'
p312
I5192000
sS'https://www.cardekho.com/overview/Ford_Ecosport/Ford_Ecosport_1.5_TDCi_Titanium_Plus.htm'
p313
I999000
sS'https://www.cardekho.com/overview/BMW_X5/BMW_X5_xDrive_30d_Expedition.htm'
p314
I6790000
sS'https://www.cardekho.com/overview/Maruti_Vitara_Brezza/Maruti_Vitara_Brezza_VDi.htm'
p315
I813000
sS'https://www.cardekho.com/overview/Mercedes-Benz_G_Class/Mercedes-Benz_G_Class_G63_AMG.htm'
p316
I32400000
sS'https://www.cardekho.com/overview/BMW_M_Series/BMW_M_Series_M6_Gran_Coupe.htm'
p317
I17700000
sS'https://www.cardekho.com/overview/Tata_Sumo/Tata_Sumo_Gold_CX_PS.htm'
p318
I735000
sS'https://www.cardekho.com/overview/Jeep_Grand_Cherokee/Jeep_Grand_Cherokee_Summit_4X4.htm'
p319
I11000000
sS'https://www.cardekho.com/overview/BMW_X5/BMW_X5_xDrive_30d_M_Sport.htm'
p320
I7850000
sS'https://www.cardekho.com/overview/Mahindra_Bolero/Mahindra_Bolero_mHAWK_D70_SLX.htm'
p321
I752000
sS'https://www.cardekho.com/overview/Tata_Sumo/Tata_Sumo_Gold_CX_BSIII.htm'
p322
I685000
sS'https://www.cardekho.com/overview/Mahindra_Scorpio/Mahindra_Scorpio_Getaway_4WD.htm'
p323
I1005000
sS'https://www.cardekho.com/overview/Mahindra_Bolero/Mahindra_Bolero_DI_NON_AC_BS_III_White.htm'
p324
I668000
sS'https://www.cardekho.com/overview/Chevrolet_Tavera/Chevrolet_Tavera_Neo_3_LS_9_Str_BSIII.htm'
p325
I969000
sS'https://www.cardekho.com/overview/Ford_Ecosport/Ford_Ecosport_1.5_Ti_VCT_MT_Titanium.htm'
p326
I886999
sS'https://www.cardekho.com/overview/Land_Rover_Discovery_Sport/Land_Rover_Discovery_Sport_SD4_HSE_Luxury_7S.htm'
p327
I6329000
sS'https://www.cardekho.com/overview/Mercedes-Benz_M-Class/Mercedes-Benz_M-Class_ML_63_AMG_4MATIC.htm'
p328
I15200000
sS'https://www.cardekho.com/overview/Maruti_Gypsy/Maruti_Gypsy_King_Hard_Top_MPI_BSIV.htm'
p329
I677000
sS'https://www.cardekho.com/overview/Mahindra_Scorpio/Mahindra_Scorpio_Intelli_Hybrid_S6_Plus.htm'
p330
I1182000
sS'https://www.cardekho.com/overview/Maruti_Vitara_Brezza/Maruti_Vitara_Brezza_ZDi.htm'
p331
I891000
sS'https://www.cardekho.com/overview/Mahindra_KUV_100/Mahindra_KUV_100_mFALCON_D75_K4_Plus_5str.htm'
p332
I619000
sS'https://www.cardekho.com/overview/Hyundai_Creta/Hyundai_Creta_1.6_Gamma_SX_Plus.htm'
p333
I1211000
sS'https://www.cardekho.com/overview/Mercedes-Benz_GLS/Mercedes-Benz_GLS_400_4MATIC.htm'
p334
I8290000
sS'https://www.cardekho.com/overview/Land_Rover_Discovery_Sport/Land_Rover_Discovery_Sport_TD4_HSE.htm'
p335
I5449000
sS'https://www.cardekho.com/overview/Mahindra_KUV_100/Mahindra_KUV_100_mFALCON_D75_K8_5str.htm'
p336
I719000
sS'https://www.cardekho.com/overview/Tata_Safari_Storme/Tata_Safari_Storme_VX_4WD_Varicor_400.htm'
p337
I1547000
sS'https://www.cardekho.com/overview/Ford_Ecosport/Ford_Ecosport_1.0_Ecoboost_Titanium_Plus.htm'
p338
I971000
sS'https://www.cardekho.com/overview/Chevrolet_Tavera/Chevrolet_Tavera_Neo_3_9_Str_BSIII.htm'
p339
I795000
sS'https://www.cardekho.com/overview/Mahindra_TUV_300/Mahindra_TUV_300_mHAWK100_T8.htm'
p340
I900000
sS'https://www.cardekho.com/overview/Mahindra_NuvoSport/Mahindra_NuvoSport_N4_Plus.htm'
p341
I806000
sS'https://www.cardekho.com/overview/Bentley_Bentayga/Bentley_Bentayga_6.0_W12.htm'
p342
I38500000
sS'https://www.cardekho.com/overview/Renault_Duster/Renault_Duster_Adventure_Edition_RXZ_AWD.htm'
p343
I1416000
sS'https://www.cardekho.com/overview/Mahindra_Scorpio/Mahindra_Scorpio_1.99_S6_Plus.htm'
p344
I1144000
sS'https://www.cardekho.com/overview/Mahindra_Scorpio/Mahindra_Scorpio_1.99_S8.htm'
p345
I1255000
sS'https://www.cardekho.com/overview/Mahindra_Thar/Mahindra_Thar_CRDe.htm'
p346
I892000
sS'https://www.cardekho.com/overview/Nissan_Terrano/Nissan_Terrano_XL_Plus_85_PS.htm'
p347
I1168000
sS'https://www.cardekho.com/overview/Mahindra_KUV_100/Mahindra_KUV_100_mFALCON_D75_K6_5str.htm'
p348
I662000
sS'https://www.cardekho.com/overview/Mahindra_Bolero/Mahindra_Bolero_LX_NON_AC.htm'
p349
I723000
sS'https://www.cardekho.com/overview/Ford_Endeavour/Ford_Endeavour_2.2_Trend_MT_4X4.htm'
p350
I2713000
sS'https://www.cardekho.com/overview/Mahindra_XUV500/Mahindra_XUV500_AT_W10_1.99_mHawk.htm'
p351
I1753000
sS'https://www.cardekho.com/overview/Porsche_Cayenne/Porsche_Cayenne_Diesel.htm'
p352
I10400000
sS'https://www.cardekho.com/overview/BMW_X1/BMW_X1_sDrive_20d_xLine.htm'
p353
I3499000
sS'https://www.cardekho.com/overview/Toyota_Land_Cruiser/Toyota_Land_Cruiser_VX.htm'
p354
I13600000
sS'https://www.cardekho.com/overview/Mahindra_Bolero/Mahindra_Bolero_SLX_2WD_BSIII.htm'
p355
I814000
sS'https://www.cardekho.com/overview/Mahindra_XUV500/Mahindra_XUV500_W10_1.99_mHawk.htm'
p356
I1650000
s.