(dp0
S'https://www.cardekho.com/overview/Mahindra_XUV500/Mahindra_XUV500_AT_W8_1.99_mHawk.htm'
p1
V16.32 Lakh
p2
sS'https://www.cardekho.com/overview/Land_Rover_Discovery_4/Land_Rover_Discovery_4_SDV6_SE.htm'
p3
V1.13 Cr
p4
sS'https://www.cardekho.com/overview/Mahindra_TUV_300/Mahindra_TUV_300_T8.htm'
p5
V9.08 Lakh
p6
sS'https://www.cardekho.com/overview/Porsche_Cayenne/Porsche_Cayenne_Base.htm'
p7
V99.91 Lakh
p8
sS'https://www.cardekho.com/overview/Mahindra_Scorpio/Mahindra_Scorpio_Intelli_Hybrid_S4_Plus.htm'
p9
V10.72 Lakh
p10
sS'https://www.cardekho.com/overview/Mahindra_Scorpio/Mahindra_Scorpio_Intelli_Hybrid_S8.htm'
p11
V12.95 Lakh
p12
sS'https://www.cardekho.com/overview/Maruti_SX4_S_Cross/Maruti_SX4_S_Cross_DDiS_320_Delta.htm'
p13
V10.7 Lakh
p14
sS'https://www.cardekho.com/overview/Ford_Ecosport/Ford_Ecosport_1.5_Ti_VCT_AT_Signature.htm'
p15
V10.37 Lakh
p16
sS'https://www.cardekho.com/overview/Ford_Ecosport/Ford_Ecosport_1.0_Ecoboost_Titanium_Plus_BE.htm'
p17
V9.89 Lakh
p18
sS'https://www.cardekho.com/overview/Mitsubishi_Pajero/Mitsubishi_Pajero_Sport_4X2_AT_Dual_Tone.htm'
p19
V27.83 Lakh
p20
sS'https://www.cardekho.com/overview/Mahindra_Bolero/Mahindra_Bolero_Plus_Non_AC_BSIV_PS.htm'
p21
V7.6 Lakh
p22
sS'https://www.cardekho.com/overview/Mahindra_XUV500/Mahindra_XUV500_W8_1.99_mHawk.htm'
p23
V15.59 Lakh
p24
sS'https://www.cardekho.com/overview/Ford_Endeavour/Ford_Endeavour_3.2_Titanium_AT_4X4.htm'
p25
V30.36 Lakh
p26
sS'https://www.cardekho.com/overview/Honda_BR-V/Honda_BR-V_i-DTEC_V_MT.htm'
p27
V12.21 Lakh
p28
sS'https://www.cardekho.com/overview/Hyundai_Creta/Hyundai_Creta_1.6_CRDi_AT_SX_Plus.htm'
p29
V14.82 Lakh
p30
sS'https://www.cardekho.com/overview/Land_Rover_Discovery_Sport/Land_Rover_Discovery_Sport_SD4_HSE_Luxury.htm'
p31
V61.78 Lakh
p32
sS'https://www.cardekho.com/overview/Maruti_SX4_S_Cross/Maruti_SX4_S_Cross_DDiS_320_Zeta.htm'
p33
V11.75 Lakh
p34
sS'https://www.cardekho.com/overview/Renault_Duster/Renault_Duster_85PS_Diesel_RxE.htm'
p35
V9.74 Lakh
p36
sS'https://www.cardekho.com/overview/BMW_X3/BMW_X3_xDrive30d_M_Sport.htm'
p37
V60.5 Lakh
p38
sS'https://www.cardekho.com/overview/Maruti_Vitara_Brezza/Maruti_Vitara_Brezza_LDi.htm'
p39
V7.43 Lakh
p40
sS'https://www.cardekho.com/overview/BMW_M_Series/BMW_M_Series_X6_M.htm'
p41
V1.66 Cr
p42
sS'https://www.cardekho.com/overview/Mahindra_Scorpio/Mahindra_Scorpio_Intelli_Hybrid_S4_Plus_4WD.htm'
p43
V12.04 Lakh
p44
sS'https://www.cardekho.com/overview/Mahindra_XUV500/Mahindra_XUV500_W4_1.99_mHawk.htm'
p45
V12.43 Lakh
p46
sS'https://www.cardekho.com/overview/Mahindra_Bolero/Mahindra_Bolero_SLE.htm'
p47
V7.76 Lakh
p48
sS'https://www.cardekho.com/overview/Mahindra_Bolero/Mahindra_Bolero_ZLX_BSIII.htm'
p49
V8.39 Lakh
p50
sS'https://www.cardekho.com/overview/Jeep_Grand_Cherokee/Jeep_Grand_Cherokee_Limited_4X4.htm'
p51
V99.99 Lakh
p52
sS'https://www.cardekho.com/overview/Chevrolet_Tavera/Chevrolet_Tavera_Neo_3_LS_7_C_BSIII.htm'
p53
V10.36 Lakh
p54
sS'https://www.cardekho.com/overview/Hyundai_Creta/Hyundai_Creta_1.4_CRDi_Base.htm'
p55
V10.22 Lakh
p56
sS'https://www.cardekho.com/overview/Land_Rover_Discovery_Sport/Land_Rover_Discovery_Sport_TD4_HSE_7S.htm'
p57
V56.01 Lakh
p58
sS'https://www.cardekho.com/overview/Mercedes-Benz_GL-Class/Mercedes-Benz_GL-Class_350_CDI_Blue_Efficiency.htm'
p59
V81.2 Lakh
p60
sS'https://www.cardekho.com/overview/BMW_X5/BMW_X5_xDrive_30d_Design_Pure_Experience_5_Seater.htm'
p61
V72.0 Lakh
p62
sS'https://www.cardekho.com/overview/Mahindra_Bolero/Mahindra_Bolero_ZLX.htm'
p63
V8.54 Lakh
p64
sS'https://www.cardekho.com/overview/Mahindra_Thar/Mahindra_Thar_DI_4X2.htm'
p65
V6.16 Lakh
p66
sS'https://www.cardekho.com/overview/Tata_Safari_Storme/Tata_Safari_Storme_EX.htm'
p67
V12.42 Lakh
p68
sS'https://www.cardekho.com/overview/Premier_Rio/Premier_Rio_Petrol_GLX.htm'
p69
V6.82 Lakh
p70
sS'https://www.cardekho.com/overview/Toyota_Fortuner/Toyota_Fortuner_2.5_4x2_AT_TRD_Sportivo.htm'
p71
V26.72 Lakh
p72
sS'https://www.cardekho.com/overview/Force_Gurkha/Force_Gurkha_Hard_Top_BS3_4WD.htm'
p73
V9.68 Lakh
p74
sS'https://www.cardekho.com/overview/Land_Rover_Discovery_4/Land_Rover_Discovery_4_SDV6_HSE.htm'
p75
V1.22 Cr
p76
sS'https://www.cardekho.com/overview/Mahindra_Scorpio/Mahindra_Scorpio_S10_AT_2WD.htm'
p77
V14.38 Lakh
p78
sS'https://www.cardekho.com/overview/Maruti_Gypsy/Maruti_Gypsy_King_Soft_Top_MPI_BSIV.htm'
p79
V6.62 Lakh
p80
sS'https://www.cardekho.com/overview/Mahindra_Bolero/Mahindra_Bolero_SLX.htm'
p81
V8.3 Lakh
p82
sS'https://www.cardekho.com/overview/Mahindra_XUV500/Mahindra_XUV500_W8_4WD.htm'
p83
V16.6 Lakh
p84
sS'https://www.cardekho.com/overview/Mahindra_Bolero/Mahindra_Bolero_EX_NON_AC.htm'
p85
V6.99 Lakh
p86
sS'https://www.cardekho.com/overview/Porsche_Cayenne/Porsche_Cayenne_S.htm'
p87
V1.18 Cr
p88
sS'https://www.cardekho.com/overview/Mahindra_TUV_300/Mahindra_TUV_300_mHAWK100_T8_Dual_Tone.htm'
p89
V9.15 Lakh
p90
sS'https://www.cardekho.com/overview/Hyundai_Creta/Hyundai_Creta_1.6_VTVT_E.htm'
p91
V9.38 Lakh
p92
sS'https://www.cardekho.com/overview/Mercedes-Benz_GLC_Class/Mercedes-Benz_GLC_Class_300_4MATIC_Sport.htm'
p93
V58.02 Lakh
p94
sS'https://www.cardekho.com/overview/Maruti_SX4_S_Cross/Maruti_SX4_S_Cross_DDiS_320_Alpha.htm'
p95
V12.53 Lakh
p96
sS'https://www.cardekho.com/overview/Porsche_Macan/Porsche_Macan_S_Diesel.htm'
p97
V1.0 Cr
p98
sS'https://www.cardekho.com/overview/Mercedes-Benz_GLE_Class/Mercedes-Benz_GLE_Class_350d.htm'
p99
V74.2 Lakh
p100
sS'https://www.cardekho.com/overview/Mahindra_KUV_100/Mahindra_KUV_100_mFALCON_G80_K8_5str.htm'
p101
V6.26 Lakh
p102
sS'https://www.cardekho.com/overview/Jeep_Wrangler/Jeep_Wrangler_4X4.htm'
p103
V76.44 Lakh
p104
sS'https://www.cardekho.com/overview/Ford_Ecosport/Ford_Ecosport_1.5_Ti_VCT_AT_Titanium_BE.htm'
p105
V10.13 Lakh
p106
sS'https://www.cardekho.com/overview/Renault_Duster/Renault_Duster_Adventure_Edition_85PS_RXL.htm'
p107
V10.75 Lakh
p108
sS'https://www.cardekho.com/overview/Chevrolet_Tavera/Chevrolet_Tavera_Neo_3_LS_7_Seats_BSIII.htm'
p109
V10.24 Lakh
p110
sS'https://www.cardekho.com/overview/Mahindra_XUV500/Mahindra_XUV500_AT_W8_FWD.htm'
p111
V16.79 Lakh
p112
sS'https://www.cardekho.com/overview/Premier_Rio/Premier_Rio_LX.htm'
p113
V7.41 Lakh
p114
sS'https://www.cardekho.com/overview/Hyundai_Creta/Hyundai_Creta_1.6_CRDi_SX_Plus.htm'
p115
V13.67 Lakh
p116
sS'https://www.cardekho.com/overview/Renault_Duster/Renault_Duster_85PS_Diesel_STD.htm'
p117
V9.54 Lakh
p118
sS'https://www.cardekho.com/overview/Renault_Duster/Renault_Duster_110PS_Diesel_RxL.htm'
p119
V11.35 Lakh
p120
sS'https://www.cardekho.com/overview/Hyundai_Creta/Hyundai_Creta_1.6_VTVT_E_Plus.htm'
p121
V10.0 Lakh
p122
sS'https://www.cardekho.com/overview/Mahindra_KUV_100/Mahindra_KUV_100_mFALCON_D75_K2_Plus.htm'
p123
V5.84 Lakh
p124
sS'https://www.cardekho.com/overview/Mahindra_TUV_300/Mahindra_TUV_300_mHAWK100_T8_AMT.htm'
p125
V9.74 Lakh
p126
sS'https://www.cardekho.com/overview/Toyota_Fortuner/Toyota_Fortuner_4x4_MT.htm'
p127
V27.4 Lakh
p128
sS'https://www.cardekho.com/overview/Mahindra_Scorpio/Mahindra_Scorpio_S2_7_Seater.htm'
p129
V9.73 Lakh
p130
sS'https://www.cardekho.com/overview/Mahindra_XUV500/Mahindra_XUV500_AT_W6_2WD.htm'
p131
V14.81 Lakh
p132
sS'https://www.cardekho.com/overview/Hyundai_Creta/Hyundai_Creta_1.4_CRDi_S_Plus.htm'
p133
V12.39 Lakh
p134
sS'https://www.cardekho.com/overview/Ford_Ecosport/Ford_Ecosport_1.5_TDCi_Trend.htm'
p135
V8.48 Lakh
p136
sS'https://www.cardekho.com/overview/Mahindra_Quanto/Mahindra_Quanto_C4.htm'
p137
V7.69 Lakh
p138
sS'https://www.cardekho.com/overview/Tata_Sumo/Tata_Sumo_Gold_CX.htm'
p139
V7.21 Lakh
p140
sS'https://www.cardekho.com/overview/Mahindra_Scorpio/Mahindra_Scorpio_Adventure_Edition_2WD.htm'
p141
V13.91 Lakh
p142
sS'https://www.cardekho.com/overview/Mitsubishi_Pajero/Mitsubishi_Pajero_Sport_4X2_AT.htm'
p143
V27.34 Lakh
p144
sS'https://www.cardekho.com/overview/Mahindra_KUV_100/Mahindra_KUV_100_mFALCON_D75_K4_5str.htm'
p145
V5.96 Lakh
p146
sS'https://www.cardekho.com/overview/Mahindra_Scorpio/Mahindra_Scorpio_Intelli_Hybrid_S10_4WD.htm'
p147
V14.86 Lakh
p148
sS'https://www.cardekho.com/overview/Ford_Ecosport/Ford_Ecosport_1.5_Ti_VCT_MT_Ambiente.htm'
p149
V7.07 Lakh
p150
sS'https://www.cardekho.com/overview/Mercedes-Benz_GLA/Mercedes-Benz_GLA_45_AMG.htm'
p151
V72.16 Lakh
p152
sS'https://www.cardekho.com/overview/Mercedes-Benz_GLA_Class/Mercedes-Benz_GLA_Class_200_CDI_SPORT.htm'
p153
V36.57 Lakh
p154
sS'https://www.cardekho.com/overview/Audi_Q5/Audi_Q5_30_TDI_quattro_Premium.htm'
p155
V50.12 Lakh
p156
sS'https://www.cardekho.com/overview/Mahindra_KUV_100/Mahindra_KUV_100_mFALCON_G80_K6_5str.htm'
p157
V5.7 Lakh
p158
sS'https://www.cardekho.com/overview/Mercedes-Benz_GLE_Class/Mercedes-Benz_GLE_Class_250d.htm'
p159
V63.0 Lakh
p160
sS'https://www.cardekho.com/overview/Premier_Rio/Premier_Rio_CRDi4_LX.htm'
p161
V7.6 Lakh
p162
sS'https://www.cardekho.com/overview/Ford_Ecosport/Ford_Ecosport_1.5_Ti_VCT_MT_Titanium_BE.htm'
p163
V9.06 Lakh
p164
sS'https://www.cardekho.com/overview/Force_Gurkha/Force_Gurkha_Soft_Top_BS3_4WD.htm'
p165
V9.43 Lakh
p166
sS'https://www.cardekho.com/overview/Toyota_Fortuner/Toyota_Fortuner_4x2_Manual.htm'
p167
V25.55 Lakh
p168
sS'https://www.cardekho.com/overview/Land_Rover_Range_Rover_Sport/Land_Rover_Range_Rover_Sport_Autobiography.htm'
p169
V1.78 Cr
p170
sS'https://www.cardekho.com/overview/Mahindra_Bolero/Mahindra_Bolero_Plus_AC.htm'
p171
V7.85 Lakh
p172
sS'https://www.cardekho.com/overview/Mahindra_KUV_100/Mahindra_KUV_100_mFALCON_D75_K6_Plus_5str.htm'
p173
V6.85 Lakh
p174
sS'https://www.cardekho.com/overview/Mahindra_Scorpio/Mahindra_Scorpio_Adventure_Edition_4WD.htm'
p175
V15.13 Lakh
p176
sS'https://www.cardekho.com/overview/Tata_Sumo/Tata_Sumo_Gold_EX.htm'
p177
V7.87 Lakh
p178
sS'https://www.cardekho.com/overview/Ford_Ecosport/Ford_Ecosport_1.5_TDCi_Trend_Plus.htm'
p179
V8.8 Lakh
p180
sS'https://www.cardekho.com/overview/Renault_Duster/Renault_Duster_Adventure_Edition_85PS_RXE.htm'
p181
V9.92 Lakh
p182
sS'https://www.cardekho.com/overview/Mahindra_Ssangyong_Rexton/Mahindra_Ssangyong_Rexton_RX6.htm'
p183
V23.76 Lakh
p184
sS'https://www.cardekho.com/overview/Honda_CR-V/Honda_CR-V_2.4L_4WD_AT.htm'
p185
V27.15 Lakh
p186
sS'https://www.cardekho.com/overview/Mahindra_Bolero/Mahindra_Bolero_SLE_BSIII.htm'
p187
V7.6 Lakh
p188
sS'https://www.cardekho.com/overview/Mahindra_Quanto/Mahindra_Quanto_C6.htm'
p189
V8.18 Lakh
p190
sS'https://www.cardekho.com/overview/Mahindra_Bolero/Mahindra_Bolero_mHAWK_D70_ZLX.htm'
p191
V7.87 Lakh
p192
sS'https://www.cardekho.com/overview/Mahindra_NuvoSport/Mahindra_NuvoSport_N6.htm'
p193
V8.79 Lakh
p194
sS'https://www.cardekho.com/overview/Mahindra_KUV_100/Mahindra_KUV_100_mFALCON_D75_K4.htm'
p195
V6.02 Lakh
p196
sS'https://www.cardekho.com/overview/Land_Rover_Range_Rover_Evoque/Land_Rover_Range_Rover_Evoque_Coupe_HSE_Dynamic.htm'
p197
V52.9 Lakh
p198
sS'https://www.cardekho.com/overview/Nissan_Terrano/Nissan_Terrano_XV_Premium_110_PS.htm'
p199
V13.14 Lakh
p200
sS'https://www.cardekho.com/overview/Chevrolet_Tavera/Chevrolet_Tavera_Neo_3_Max_10_Seats_BSIII.htm'
p201
V9.06 Lakh
p202
sS'https://www.cardekho.com/overview/Volvo_XC60/Volvo_XC60_D5_Inscription.htm'
p203
V51.7 Lakh
p204
sS'https://www.cardekho.com/overview/Hyundai_Santa_Fe/Hyundai_Santa_Fe_2WD_AT.htm'
p205
V30.3 Lakh
p206
sS'https://www.cardekho.com/overview/Mahindra_Scorpio/Mahindra_Scorpio_1.99_S4_Plus_4WD.htm'
p207
V11.72 Lakh
p208
sS'https://www.cardekho.com/overview/Mercedes-Benz_GLE_Class/Mercedes-Benz_GLE_Class_400_4MATIC.htm'
p209
V74.9 Lakh
p210
sS'https://www.cardekho.com/overview/Isuzu_MU_7/Isuzu_MU_7_AT_Premium.htm'
p211
V23.91 Lakh
p212
sS'https://www.cardekho.com/overview/Volvo_XC_90/Volvo_XC_90_D5_Momentum.htm'
p213
V76.32 Lakh
p214
sS'https://www.cardekho.com/overview/Maruti_Gypsy/Maruti_Gypsy_King_Hard_Top_Ambulance_BSIV.htm'
p215
V6.07 Lakh
p216
sS'https://www.cardekho.com/overview/Mahindra_Bolero/Mahindra_Bolero_DI_-_AC_BS_III.htm'
p217
V7.11 Lakh
p218
sS'https://www.cardekho.com/overview/Mahindra_Quanto/Mahindra_Quanto_C8.htm'
p219
V8.71 Lakh
p220
sS'https://www.cardekho.com/overview/Audi_Q3/Audi_Q3_35_TDI_Dynamic_Edition.htm'
p221
V39.42 Lakh
p222
sS'https://www.cardekho.com/overview/Volvo_XC_90/Volvo_XC_90_D5_Inscription.htm'
p223
V94.23 Lakh
p224
sS'https://www.cardekho.com/overview/Renault_Duster/Renault_Duster_Petrol_RxE.htm'
p225
V8.73 Lakh
p226
sS'https://www.cardekho.com/overview/Ford_Ecosport/Ford_Ecosport_1.5_TDCi_Titanium_BE.htm'
p227
V9.67 Lakh
p228
sS'https://www.cardekho.com/overview/Maruti_Vitara_Brezza/Maruti_Vitara_Brezza_VDi_Option.htm'
p229
V8.26 Lakh
p230
sS'https://www.cardekho.com/overview/BMW_X1/BMW_X1_sDrive20d_Expedition.htm'
p231
V29.9 Lakh
p232
sS'https://www.cardekho.com/overview/Land_Rover_Discovery_Sport/Land_Rover_Discovery_Sport_TD4_S.htm'
p233
V46.92 Lakh
p234
sS'https://www.cardekho.com/overview/Mahindra_Scorpio/Mahindra_Scorpio_1.99_S4.htm'
p235
V10.06 Lakh
p236
sS'https://www.cardekho.com/overview/Chevrolet_Tavera/Chevrolet_Tavera_Neo_3_LT_9_Seats_BSIII.htm'
p237
V11.31 Lakh
p238
sS'https://www.cardekho.com/overview/Honda_BR-V/Honda_BR-V_i-DTEC_E_MT.htm'
p239
V10.1 Lakh
p240
sS'https://www.cardekho.com/overview/Honda_BR-V/Honda_BR-V_i-VTEC_S_MT.htm'
p241
V10.21 Lakh
p242
sS'https://www.cardekho.com/overview/Mahindra_KUV_100/Mahindra_KUV_100_mFALCON_G80_K4_Plus_5str.htm'
p243
V5.32 Lakh
p244
sS'https://www.cardekho.com/overview/BMW_X1/BMW_X1_xDrive_20d_M_Sport.htm'
p245
V40.99 Lakh
p246
sS'https://www.cardekho.com/overview/Land_Rover_Discovery_Sport/Land_Rover_Discovery_Sport_Si4_HSE.htm'
p247
V56.5 Lakh
p248
sS'https://www.cardekho.com/overview/Mahindra_TUV_300/Mahindra_TUV_300_T4.htm'
p249
V7.52 Lakh
p250
sS'https://www.cardekho.com/overview/Ford_Endeavour/Ford_Endeavour_2.2_Trend_AT_4X2.htm'
p251
V26.01 Lakh
p252
sS'https://www.cardekho.com/overview/Porsche_Cayenne/Porsche_Cayenne_S_Diesel.htm'
p253
V1.21 Cr
p254
sS'https://www.cardekho.com/overview/Mahindra_Scorpio/Mahindra_Scorpio_1.99_S10.htm'
p255
V13.24 Lakh
p256
sS'https://www.cardekho.com/overview/Audi_Q5/Audi_Q5_30_TDI_quattro_Technology.htm'
p257
V57.3 Lakh
p258
sS'https://www.cardekho.com/overview/BMW_M_Series/BMW_M_Series_M4_Coupe.htm'
p259
V1.28 Cr
p260
sS'https://www.cardekho.com/overview/Maruti_Vitara_Brezza/Maruti_Vitara_Brezza_LDi_Option.htm'
p261
V7.56 Lakh
p262
sS'https://www.cardekho.com/overview/Mahindra_Bolero/Mahindra_Bolero_Plus_Non_AC.htm'
p263
V7.43 Lakh
p264
sS'https://www.cardekho.com/overview/Hyundai_Creta/Hyundai_Creta_1.6_VTVT_S.htm'
p265
V10.52 Lakh
p266
sS'https://www.cardekho.com/overview/Land_Rover_Range_Rover/Land_Rover_Range_Rover_LWB_3.0_Vogue.htm'
p267
V2.11 Cr
p268
sS'https://www.cardekho.com/overview/Mahindra_KUV_100/Mahindra_KUV_100_mFALCON_G80_K6_Plus_5str.htm'
p269
V5.92 Lakh
p270
sS'https://www.cardekho.com/overview/Renault_Duster/Renault_Duster_85PS_Diesel_RxZ.htm'
p271
V11.75 Lakh
p272
sS'https://www.cardekho.com/overview/Mahindra_Bolero/Mahindra_Bolero_DI_NON_AC_BS_III_White.htm'
p273
V6.68 Lakh
p274
sS'https://www.cardekho.com/overview/Hyundai_Santa_Fe/Hyundai_Santa_Fe_4WD_AT.htm'
p275
V32.51 Lakh
p276
sS'https://www.cardekho.com/overview/Mahindra_Scorpio/Mahindra_Scorpio_Getaway.htm'
p277
V9.05 Lakh
p278
sS'https://www.cardekho.com/overview/Mahindra_XUV500/Mahindra_XUV500_AT_W10_FWD.htm'
p279
V17.63 Lakh
p280
sS'https://www.cardekho.com/overview/Land_Rover_Range_Rover/Land_Rover_Range_Rover_LWB_4.4_SDV8_Autobiography.htm'
p281
V2.59 Cr
p282
sS'https://www.cardekho.com/overview/Land_Rover_Range_Rover/Land_Rover_Range_Rover_LWB_5.0_V8.htm'
p283
V2.67 Cr
p284
sS'https://www.cardekho.com/overview/Honda_BR-V/Honda_BR-V_i-VTEC_E_MT.htm'
p285
V9.04 Lakh
p286
sS'https://www.cardekho.com/overview/Mahindra_Bolero/Mahindra_Bolero_Plus_-_Non-AC_BSIII_PS.htm'
p287
V7.26 Lakh
p288
sS'https://www.cardekho.com/overview/Chevrolet_Tavera/Chevrolet_Tavera_Neo_3_LS_10_Seats_BSIII.htm'
p289
V9.89 Lakh
p290
sS'https://www.cardekho.com/overview/Mahindra_Ssangyong_Rexton/Mahindra_Ssangyong_Rexton_RX7.htm'
p291
V25.17 Lakh
p292
sS'https://www.cardekho.com/overview/Mahindra_KUV_100/Mahindra_KUV_100_mFALCON_G80_K4_5str.htm'
p293
V5.09 Lakh
p294
sS'https://www.cardekho.com/overview/Audi_Q5/Audi_Q5_30_TDI_quattro_Premium_Plus.htm'
p295
V53.3 Lakh
p296
sS'https://www.cardekho.com/overview/Mahindra_Bolero/Mahindra_Bolero_Special_Edition.htm'
p297
V8.62 Lakh
p298
sS'https://www.cardekho.com/overview/Mahindra_NuvoSport/Mahindra_NuvoSport_N4.htm'
p299
V7.7 Lakh
p300
sS'https://www.cardekho.com/overview/Land_Rover_Range_Rover_Sport/Land_Rover_Range_Rover_Sport_HSE.htm'
p301
V1.54 Cr
p302
sS'https://www.cardekho.com/overview/Mitsubishi_Pajero/Mitsubishi_Pajero_Sport_4X4_Dual_Tone.htm'
p303
V28.22 Lakh
p304
sS'https://www.cardekho.com/overview/Nissan_Terrano/Nissan_Terrano_XE_85_PS.htm'
p305
V9.98 Lakh
p306
sS'https://www.cardekho.com/overview/Mahindra_Thar/Mahindra_Thar_DI_4X2_PS.htm'
p307
V5.91 Lakh
p308
sS'https://www.cardekho.com/overview/Audi_Q3/Audi_Q3_35_TDI_Quattro_Premium_Plus.htm'
p309
V41.23 Lakh
p310
sS'https://www.cardekho.com/overview/Mahindra_TUV_300/Mahindra_TUV_300_T6_Plus.htm'
p311
V8.45 Lakh
p312
sS'https://www.cardekho.com/overview/Mahindra_Scorpio/Mahindra_Scorpio_Intelli_Hybrid_S10.htm'
p313
V13.5 Lakh
p314
sS'https://www.cardekho.com/overview/Mahindra_Quanto/Mahindra_Quanto_C2.htm'
p315
V7.12 Lakh
p316
sS'https://www.cardekho.com/overview/Renault_Duster/Renault_Duster_110PS_Diesel_RxL_AMT.htm'
p317
V11.95 Lakh
p318
sS'https://www.cardekho.com/overview/Porsche_Macan/Porsche_Macan_2L.htm'
p319
V70.0 Lakh
p320
sS'https://www.cardekho.com/overview/Mahindra_TUV_300/Mahindra_TUV_300_T6_Plus_AMT.htm'
p321
V9.2 Lakh
p322
sS'https://www.cardekho.com/overview/BMW_X3/BMW_X3_xDrive20d_Expedition.htm'
p323
V47.5 Lakh
p324
sS'https://www.cardekho.com/overview/Mercedes-Benz_GL-Class/Mercedes-Benz_GL-Class_63_AMG.htm'
p325
V2.39 Cr
p326
sS'https://www.cardekho.com/overview/Hyundai_Creta/Hyundai_Creta_1.6_CRDi_Anniversary_Edition.htm'
p327
V14.06 Lakh
p328
sS'https://www.cardekho.com/overview/Mercedes-Benz_GLA_Class/Mercedes-Benz_GLA_Class_200.htm'
p329
V35.5 Lakh
p330
sS'https://www.cardekho.com/overview/Tata_Sumo/Tata_Sumo_Gold_EX_BSIII.htm'
p331
V7.74 Lakh
p332
sS'https://www.cardekho.com/overview/Mahindra_KUV_100/Mahindra_KUV_100_mFALCON_G80_K6_Plus.htm'
p333
V5.99 Lakh
p334
sS'https://www.cardekho.com/overview/Volvo_XC_90/Volvo_XC_90_T8_Excellence.htm'
p335
V1.31 Cr
p336
sS'https://www.cardekho.com/overview/Mercedes-Benz_GLE_Class/Mercedes-Benz_GLE_Class_Coupe.htm'
p337
V89.56 Lakh
p338
sS'https://www.cardekho.com/overview/Maruti_SX4_S_Cross/Maruti_SX4_S_Cross_DDiS_200_Sigma.htm'
p339
V8.46 Lakh
p340
sS'https://www.cardekho.com/overview/Toyota_Fortuner/Toyota_Fortuner_4x4_AT.htm'
p341
V28.4 Lakh
p342
sS'https://www.cardekho.com/overview/Mahindra_Scorpio/Mahindra_Scorpio_Intelli_Hybrid_S4.htm'
p343
V10.42 Lakh
p344
sS'https://www.cardekho.com/overview/Mercedes-Benz_GLS/Mercedes-Benz_GLS_350d_4MATIC.htm'
p345
V83.36 Lakh
p346
sS'https://www.cardekho.com/overview/Mahindra_Ssangyong_Rexton/Mahindra_Ssangyong_Rexton_RX5.htm'
p347
V21.3 Lakh
p348
sS'https://www.cardekho.com/overview/Ford_Ecosport/Ford_Ecosport_1.5_TDCi_Trend_Plus_BE.htm'
p349
V9.2 Lakh
p350
sS'https://www.cardekho.com/overview/Ford_Ecosport/Ford_Ecosport_1.5_Ti_VCT_MT_Trend.htm'
p351
V7.87 Lakh
p352
sS'https://www.cardekho.com/overview/Mahindra_XUV500/Mahindra_XUV500_W6_1.99_mHawk.htm'
p353
V13.85 Lakh
p354
sS'https://www.cardekho.com/overview/Porsche_Cayenne/Porsche_Cayenne_S_Hybrid.htm'
p355
V1.59 Cr
p356
sS'https://www.cardekho.com/overview/Mahindra_Bolero/Mahindra_Bolero_EX_AC.htm'
p357
V7.43 Lakh
p358
sS'https://www.cardekho.com/overview/Mahindra_Bolero/Mahindra_Bolero_LX_4WD_NON_AC_BSIV.htm'
p359
V7.98 Lakh
p360
sS'https://www.cardekho.com/overview/Honda_CR-V/Honda_CR-V_2.0L_2WD_AT.htm'
p361
V24.77 Lakh
p362
sS'https://www.cardekho.com/overview/Renault_Duster/Renault_Duster_110PS_Diesel_RxZ_AMT.htm'
p363
V13.16 Lakh
p364
sS'https://www.cardekho.com/overview/Conquest_Evade/Conquest_Evade_SUV.htm'
p365
V8.5 Cr
p366
sS'https://www.cardekho.com/overview/Volvo_XC60/Volvo_XC60_D4_KINETIC.htm'
p367
V45.5 Lakh
p368
sS'https://www.cardekho.com/overview/Land_Rover_Range_Rover_Evoque/Land_Rover_Range_Rover_Evoque_HSE_Dynamic.htm'
p369
V64.32 Lakh
p370
sS'https://www.cardekho.com/overview/Porsche_Cayenne/Porsche_Cayenne_Turbo.htm'
p371
V1.78 Cr
p372
sS'https://www.cardekho.com/overview/Toyota_Land_Cruiser_Prado/Toyota_Land_Cruiser_Prado_VX_L.htm'
p373
V93.92 Lakh
p374
sS'https://www.cardekho.com/overview/Volvo_XC60/Volvo_XC60_D4_Momentum.htm'
p375
V47.9 Lakh
p376
sS'https://www.cardekho.com/overview/Land_Rover_Range_Rover/Land_Rover_Range_Rover_LWB_4.4_SDV8_Vogue_SE.htm'
p377
V2.52 Cr
p378
sS'https://www.cardekho.com/overview/Land_Rover_Range_Rover_Evoque/Land_Rover_Range_Rover_Evoque_HSE.htm'
p379
V58.73 Lakh
p380
sS'https://www.cardekho.com/overview/Porsche_Macan/Porsche_Macan_Turbo.htm'
p381
V1.1 Cr
p382
sS'https://www.cardekho.com/overview/Land_Rover_Range_Rover_Sport/Land_Rover_Range_Rover_Sport_SVR.htm'
p383
V2.07 Cr
p384
sS'https://www.cardekho.com/overview/Force_One/Force_One_SX_ABS_6_Seating.htm'
p385
V13.33 Lakh
p386
sS'https://www.cardekho.com/overview/Land_Rover_Range_Rover/Land_Rover_Range_Rover_LWB_4.4_SDV8_Autobiography_Black_Edition.htm'
p387
V3.85 Cr
p388
sS'https://www.cardekho.com/overview/Mahindra_Bolero/Mahindra_Bolero_Plus_AC_BSIV_PS.htm'
p389
V8.01 Lakh
p390
sS'https://www.cardekho.com/overview/Mahindra_KUV_100/Mahindra_KUV_100_mFALCON_G80_K2.htm'
p391
V4.67 Lakh
p392
sS'https://www.cardekho.com/overview/Ford_Ecosport/Ford_Ecosport_1.0_Ecoboost_Trend_Plus_BE.htm'
p393
V8.9 Lakh
p394
sS'https://www.cardekho.com/overview/Land_Rover_Range_Rover/Land_Rover_Range_Rover_LWB_5.0_V8_Autobiography_Black_Edition.htm'
p395
V3.95 Cr
p396
sS'https://www.cardekho.com/overview/Chevrolet_Trailblazer/Chevrolet_Trailblazer_LTZ_4X2_AT.htm'
p397
V27.5 Lakh
p398
sS'https://www.cardekho.com/overview/Hyundai_Santa_Fe/Hyundai_Santa_Fe_2WD_MT.htm'
p399
V29.02 Lakh
p400
sS'https://www.cardekho.com/overview/Ford_Endeavour/Ford_Endeavour_2.2_Titanium_AT_4X2.htm'
p401
V28.06 Lakh
p402
sS'https://www.cardekho.com/overview/Mercedes-Benz_GLC_Class/Mercedes-Benz_GLC_Class_220d_4MATIC_Style.htm'
p403
V53.14 Lakh
p404
sS'https://www.cardekho.com/overview/Mahindra_NuvoSport/Mahindra_NuvoSport_N8_AMT.htm'
p405
V10.22 Lakh
p406
sS'https://www.cardekho.com/overview/Mahindra_XUV500/Mahindra_XUV500_W10_AWD.htm'
p407
V17.72 Lakh
p408
sS'https://www.cardekho.com/overview/Land_Rover_Range_Rover_Evoque/Land_Rover_Range_Rover_Evoque_Pure.htm'
p409
V47.94 Lakh
p410
sS'https://www.cardekho.com/overview/Nissan_Terrano/Nissan_Terrano_XL.htm'
p411
V9.98 Lakh
p412
sS'https://www.cardekho.com/overview/Tata_New_Safari/Tata_New_Safari_DICOR_2.2_EX_4x2_BS_IV.htm'
p413
V10.91 Lakh
p414
sS'https://www.cardekho.com/overview/Jeep_Grand_Cherokee/Jeep_Grand_Cherokee_SRT_4X4.htm'
p415
V1.2 Cr
p416
sS'https://www.cardekho.com/overview/Maruti_SX4_S_Cross/Maruti_SX4_S_Cross_DDiS_200_Zeta.htm'
p417
V9.86 Lakh
p418
sS'https://www.cardekho.com/overview/Mahindra_KUV_100/Mahindra_KUV_100_mFALCON_G80_K4_Plus.htm'
p419
V5.38 Lakh
p420
sS'https://www.cardekho.com/overview/Mahindra_KUV_100/Mahindra_KUV_100_mFALCON_D75_K6_Plus.htm'
p421
V6.91 Lakh
p422
sS'https://www.cardekho.com/overview/Mahindra_KUV_100/Mahindra_KUV_100_mFALCON_G80_K8.htm'
p423
V6.33 Lakh
p424
sS'https://www.cardekho.com/overview/Premier_Rio/Premier_Rio_Petrol_GX.htm'
p425
V6.53 Lakh
p426
sS'https://www.cardekho.com/overview/Mitsubishi_Pajero/Mitsubishi_Pajero_Sport_4X4.htm'
p427
V27.73 Lakh
p428
sS'https://www.cardekho.com/overview/Audi_Q3/Audi_Q3_30_TDI_S_Edition.htm'
p429
V31.65 Lakh
p430
sS'https://www.cardekho.com/overview/Mahindra_KUV_100/Mahindra_KUV_100_mFALCON_G80_K4.htm'
p431
V5.16 Lakh
p432
sS'https://www.cardekho.com/overview/Mahindra_XUV500/Mahindra_XUV500_W4.htm'
p433
V12.58 Lakh
p434
sS'https://www.cardekho.com/overview/Mahindra_KUV_100/Mahindra_KUV_100_mFALCON_D75_K4_Plus.htm'
p435
V6.25 Lakh
p436
sS'https://www.cardekho.com/overview/Ford_Ecosport/Ford_Ecosport_1.5_TDCi_Titanium_Plus_BE.htm'
p437
V10.18 Lakh
p438
sS'https://www.cardekho.com/overview/Mahindra_XUV500/Mahindra_XUV500_W8_2WD.htm'
p439
V15.69 Lakh
p440
sS'https://www.cardekho.com/overview/Honda_BR-V/Honda_BR-V_i-DTEC_S_MT.htm'
p441
V11.32 Lakh
p442
sS'https://www.cardekho.com/overview/BMW_M_Series/BMW_M_Series_M3_Sedan.htm'
p443
V1.26 Cr
p444
sS'https://www.cardekho.com/overview/Audi_Q7/Audi_Q7_45_TDI_Quattro_Technology.htm'
p445
V79.19 Lakh
p446
sS'https://www.cardekho.com/overview/Tata_New_Safari/Tata_New_Safari_DICOR_2.2_LX_4x2_BS_IV.htm'
p447
V9.67 Lakh
p448
sS'https://www.cardekho.com/overview/Chevrolet_Tavera/Chevrolet_Tavera_Neo_3_10_Seats_BSIII.htm'
p449
V8.12 Lakh
p450
sS'https://www.cardekho.com/overview/Mahindra_NuvoSport/Mahindra_NuvoSport_N8.htm'
p451
V9.58 Lakh
p452
sS'https://www.cardekho.com/overview/Skoda_Yeti/Skoda_Yeti_Style_4X2.htm'
p453
V21.92 Lakh
p454
sS'https://www.cardekho.com/overview/Land_Rover_Discovery_Sport/Land_Rover_Discovery_Sport_TD4_SE_7S.htm'
p455
V53.43 Lakh
p456
sS'https://www.cardekho.com/overview/Ford_Ecosport/Ford_Ecosport_1.5_TDCi_Signature.htm'
p457
V9.91 Lakh
p458
sS'https://www.cardekho.com/overview/Mahindra_TUV_300/Mahindra_TUV_300_T4_Plus.htm'
p459
V7.88 Lakh
p460
sS'https://www.cardekho.com/overview/Mahindra_XUV500/Mahindra_XUV500_AT_W6_1.99_mHawk.htm'
p461
V14.72 Lakh
p462
sS'https://www.cardekho.com/overview/Premier_Rio/Premier_Rio_DX.htm'
p463
V6.07 Lakh
p464
sS'https://www.cardekho.com/overview/Mahindra_TUV_300/Mahindra_TUV_300_T8_AMT.htm'
p465
V9.82 Lakh
p466
sS'https://www.cardekho.com/overview/Hyundai_Creta/Hyundai_Creta_1.6_CRDi_AT_S_Plus.htm'
p467
V13.88 Lakh
p468
sS'https://www.cardekho.com/overview/Mahindra_Scorpio/Mahindra_Scorpio_1.99_S10_4WD.htm'
p469
V14.45 Lakh
p470
sS'https://www.cardekho.com/overview/Premier_Rio/Premier_Rio_CRDi4_DX.htm'
p471
V7.21 Lakh
p472
sS'https://www.cardekho.com/overview/Mahindra_Thar/Mahindra_Thar_DI_4X4.htm'
p473
V6.44 Lakh
p474
sS'https://www.cardekho.com/overview/Ford_Endeavour/Ford_Endeavour_3.2_Trend_AT_4X4.htm'
p475
V28.2 Lakh
p476
sS'https://www.cardekho.com/overview/Audi_Q3/Audi_Q3_35_TDI_Quattro_Premium.htm'
p477
V38.11 Lakh
p478
sS'https://www.cardekho.com/overview/Mahindra_Bolero/Mahindra_Bolero_DI_NON_AC_BS_III_SILVER.htm'
p479
V6.81 Lakh
p480
sS'https://www.cardekho.com/overview/Hyundai_Creta/Hyundai_Creta_1.4_CRDi_S.htm'
p481
V11.47 Lakh
p482
sS'https://www.cardekho.com/overview/Mahindra_KUV_100/Mahindra_KUV_100_mFALCON_D75_K6.htm'
p483
V6.68 Lakh
p484
sS'https://www.cardekho.com/overview/Renault_Duster/Renault_Duster_85PS_Diesel_RxL.htm'
p485
V10.54 Lakh
p486
sS'https://www.cardekho.com/overview/Maruti_SX4_S_Cross/Maruti_SX4_S_Cross_DDiS_200_Alpha.htm'
p487
V11.07 Lakh
p488
sS'https://www.cardekho.com/overview/Skoda_Yeti/Skoda_Yeti_Style_4X4.htm'
p489
V23.76 Lakh
p490
sS'https://www.cardekho.com/overview/Maruti_Vitara_Brezza/Maruti_Vitara_Brezza_ZDi_Plus_Dual_Tone.htm'
p491
V10.14 Lakh
p492
sS'https://www.cardekho.com/overview/Porsche_Cayenne/Porsche_Cayenne_Turbo_S.htm'
p493
V2.44 Cr
p494
sS'https://www.cardekho.com/overview/Premier_Rio/Premier_Rio_DX_Beige_Interior.htm'
p495
V7.12 Lakh
p496
sS'https://www.cardekho.com/overview/Premier_Rio/Premier_Rio_GX_Beieg_Interior.htm'
p497
V6.45 Lakh
p498
sS'https://www.cardekho.com/overview/Ford_Ecosport/Ford_Ecosport_1.5_TDCi_Titanium.htm'
p499
V9.48 Lakh
p500
sS'https://www.cardekho.com/overview/Honda_BR-V/Honda_BR-V_i-VTEC_V_MT.htm'
p501
V11.25 Lakh
p502
sS'https://www.cardekho.com/overview/Force_Gurkha/Force_Gurkha_Soft_Top_BS3_2WD.htm'
p503
V6.9 Lakh
p504
sS'https://www.cardekho.com/overview/Nissan_Terrano/Nissan_Terrano_XV_D_Premium_AMT.htm'
p505
V14.29 Lakh
p506
sS'https://www.cardekho.com/overview/Ford_Ecosport/Ford_Ecosport_1.5_TDCi_Ambiente.htm'
p507
V7.75 Lakh
p508
sS'https://www.cardekho.com/overview/Force_One/Force_One_EX.htm'
p509
V10.37 Lakh
p510
sS'https://www.cardekho.com/overview/Land_Rover_Range_Rover_Sport/Land_Rover_Range_Rover_Sport_SE.htm'
p511
V1.34 Cr
p512
sS'https://www.cardekho.com/overview/Honda_CR-V/Honda_CR-V_2.0L_2WD_MT.htm'
p513
V22.94 Lakh
p514
sS'https://www.cardekho.com/overview/Ford_Ecosport/Ford_Ecosport_1.5_Ti_VCT_MT_Signature.htm'
p515
V9.45 Lakh
p516
sS'https://www.cardekho.com/overview/Mercedes-Benz_GLC_Class/Mercedes-Benz_GLC_Class_220d_4MATIC_Sport.htm'
p517
V57.57 Lakh
p518
sS'https://www.cardekho.com/overview/Renault_Duster/Renault_Duster_110PS_Diesel_RxZ_AWD.htm'
p519
V13.87 Lakh
p520
sS'https://www.cardekho.com/overview/Force_One/Force_One_SX_ABS_7_Seating.htm'
p521
V13.45 Lakh
p522
sS'https://www.cardekho.com/overview/Mahindra_NuvoSport/Mahindra_NuvoSport_N6_AMT.htm'
p523
V9.45 Lakh
p524
sS'https://www.cardekho.com/overview/Mercedes-Benz_GLA_Class/Mercedes-Benz_GLA_Class_200_CDI.htm'
p525
V33.43 Lakh
p526
sS'https://www.cardekho.com/overview/Audi_Q7/Audi_Q7_45_TDI_Quattro_Premium_Plus.htm'
p527
V76.54 Lakh
p528
sS'https://www.cardekho.com/overview/Mahindra_XUV500/Mahindra_XUV500_W10_2WD.htm'
p529
V16.6 Lakh
p530
sS'https://www.cardekho.com/overview/Mahindra_Bolero/Mahindra_Bolero_Plus_-_AC_BSIII.htm'
p531
V7.5 Lakh
p532
sS'https://www.cardekho.com/overview/Toyota_Fortuner/Toyota_Fortuner_4x2_AT.htm'
p533
V26.55 Lakh
p534
sS'https://www.cardekho.com/overview/Hyundai_Creta/Hyundai_Creta_1.6_VTVT_Anniversary_Edition.htm'
p535
V12.5 Lakh
p536
sS'https://www.cardekho.com/overview/Mahindra_KUV_100/Mahindra_KUV_100_mFALCON_D75_K2.htm'
p537
V5.61 Lakh
p538
sS'https://www.cardekho.com/overview/Renault_Duster/Renault_Duster_Petrol_RxL.htm'
p539
V9.54 Lakh
p540
sS'https://www.cardekho.com/overview/Mahindra_KUV_100/Mahindra_KUV_100_mFALCON_G80_K2_Plus.htm'
p541
V4.97 Lakh
p542
sS'https://www.cardekho.com/overview/Tata_Safari_Storme/Tata_Safari_Storme_VX_Varicor_400.htm'
p543
V14.06 Lakh
p544
sS'https://www.cardekho.com/overview/Mahindra_Bolero/Mahindra_Bolero_LX_4WD_NON_AC_BS3.htm'
p545
V7.53 Lakh
p546
sS'https://www.cardekho.com/overview/BMW_M_Series/BMW_M_Series_X5_M.htm'
p547
V1.62 Cr
p548
sS'https://www.cardekho.com/overview/Hyundai_Creta/Hyundai_Creta_1.6_CRDi_SX_Option.htm'
p549
V14.75 Lakh
p550
sS'https://www.cardekho.com/overview/Audi_Q5/Audi_Q5_45_TDI_quattro_Technology.htm'
p551
V64.32 Lakh
p552
sS'https://www.cardekho.com/overview/Mahindra_Scorpio/Mahindra_Scorpio_S8_7C_Seater.htm'
p553
V12.55 Lakh
p554
sS'https://www.cardekho.com/overview/Renault_Duster/Renault_Duster_110PS_Diesel_RxZ.htm'
p555
V12.56 Lakh
p556
sS'https://www.cardekho.com/overview/Tata_Safari_Storme/Tata_Safari_Storme_LX.htm'
p557
V10.39 Lakh
p558
sS'https://www.cardekho.com/overview/Tata_Sumo/Tata_Sumo_Gold_GX.htm'
p559
V8.58 Lakh
p560
sS'https://www.cardekho.com/overview/BMW_X1/BMW_X1_xDrive_20d_xLine.htm'
p561
V36.99 Lakh
p562
sS'https://www.cardekho.com/overview/Honda_BR-V/Honda_BR-V_i-DTEC_VX_MT.htm'
p563
V13.28 Lakh
p564
sS'https://www.cardekho.com/overview/Maruti_SX4_S_Cross/Maruti_SX4_S_Cross_DDiS_200_Delta.htm'
p565
V9.19 Lakh
p566
sS'https://www.cardekho.com/overview/Mahindra_Bolero/Mahindra_Bolero_LX_NON_AC_BS3.htm'
p567
V7.07 Lakh
p568
sS'https://www.cardekho.com/overview/BMW_M_Series/BMW_M_Series_M5_Sedan.htm'
p569
V1.36 Cr
p570
sS'https://www.cardekho.com/overview/Mahindra_KUV_100/Mahindra_KUV_100_mFALCON_G80_K6.htm'
p571
V5.76 Lakh
p572
sS'https://www.cardekho.com/overview/Honda_BR-V/Honda_BR-V_i-VTEC_V_CVT.htm'
p573
V12.34 Lakh
p574
sS'https://www.cardekho.com/overview/Ford_Ecosport/Ford_Ecosport_1.5_Ti_VCT_AT_Titanium.htm'
p575
V9.94 Lakh
p576
sS'https://www.cardekho.com/overview/Toyota_Fortuner/Toyota_Fortuner_2.5_4x2_MT_TRD_Sportivo.htm'
p577
V25.72 Lakh
p578
sS'https://www.cardekho.com/overview/BMW_X6/BMW_X6_xDrive_40d_M_Sport.htm'
p579
V1.2 Cr
p580
sS'https://www.cardekho.com/overview/Ford_Ecosport/Ford_Ecosport_1.0_Ecoboost_Trend_Plus.htm'
p581
V8.49 Lakh
p582
sS'https://www.cardekho.com/overview/Mahindra_Bolero/Mahindra_Bolero_Plus_AC_BSIII_PS.htm'
p583
V7.67 Lakh
p584
sS'https://www.cardekho.com/overview/Land_Rover_Range_Rover_Sport/Land_Rover_Range_Rover_Sport_S.htm'
p585
V1.18 Cr
p586
sS'https://www.cardekho.com/overview/BMW_X3/BMW_X3_xDrive20d_xLine.htm'
p587
V53.9 Lakh
p588
sS'https://www.cardekho.com/overview/Tata_Sumo/Tata_Sumo_Gold_CX_PS_BSIII.htm'
p589
V7.03 Lakh
p590
sS'https://www.cardekho.com/overview/Mahindra_XUV500/Mahindra_XUV500_AT_W10_AWD.htm'
p591
V18.75 Lakh
p592
sS'https://www.cardekho.com/overview/Mahindra_Scorpio/Mahindra_Scorpio_1.99_S4_Plus.htm'
p593
V10.5 Lakh
p594
sS'https://www.cardekho.com/overview/Maruti_Vitara_Brezza/Maruti_Vitara_Brezza_ZDi_Plus.htm'
p595
V9.92 Lakh
p596
sS'https://www.cardekho.com/overview/Mahindra_Scorpio/Mahindra_Scorpio_S10_AT_4WD.htm'
p597
V15.63 Lakh
p598
sS'https://www.cardekho.com/overview/Porsche_Cayenne/Porsche_Cayenne_GTS.htm'
p599
V1.7 Cr
p600
sS'https://www.cardekho.com/overview/Mahindra_TUV_300/Mahindra_TUV_300_T6.htm'
p601
V8.19 Lakh
p602
sS'https://www.cardekho.com/overview/Land_Rover_Range_Rover_Evoque/Land_Rover_Range_Rover_Evoque_SE.htm'
p603
V53.84 Lakh
p604
sS'https://www.cardekho.com/overview/Mahindra_XUV500/Mahindra_XUV500_W6_2WD.htm'
p605
V13.92 Lakh
p606
sS'https://www.cardekho.com/overview/Honda_BR-V/Honda_BR-V_i-VTEC_VX_MT.htm'
p607
V12.19 Lakh
p608
sS'https://www.cardekho.com/overview/Chevrolet_Tavera/Chevrolet_Tavera_Neo_3_Max_9_Str_BSIII.htm'
p609
V8.87 Lakh
p610
sS'https://www.cardekho.com/overview/Hyundai_Creta/Hyundai_Creta_1.6_CRDi_SX.htm'
p611
V12.65 Lakh
p612
sS'https://www.cardekho.com/overview/Mahindra_Bolero/Mahindra_Bolero_Plus_-_Non-AC_BSIII.htm'
p613
V7.09 Lakh
p614
sS'https://www.cardekho.com/overview/Mahindra_Bolero/Mahindra_Bolero_mHAWK_D70_SLE.htm'
p615
V6.87 Lakh
p616
sS'https://www.cardekho.com/overview/Force_One/Force_One_4x4.htm'
p617
V14.63 Lakh
p618
sS'https://www.cardekho.com/overview/BMW_X5/BMW_X5_xDrive_30d_Design_Pure_Experience_7_Seater.htm'
p619
V75.0 Lakh
p620
sS'https://www.cardekho.com/overview/Mahindra_KUV_100/Mahindra_KUV_100_mFALCON_D75_K8.htm'
p621
V7.25 Lakh
p622
sS'https://www.cardekho.com/overview/Land_Rover_Discovery_Sport/Land_Rover_Discovery_Sport_TD4_SE.htm'
p623
V51.92 Lakh
p624
sS'https://www.cardekho.com/overview/Ford_Ecosport/Ford_Ecosport_1.5_TDCi_Titanium_Plus.htm'
p625
V9.99 Lakh
p626
sS'https://www.cardekho.com/overview/BMW_X5/BMW_X5_xDrive_30d_Expedition.htm'
p627
V67.9 Lakh
p628
sS'https://www.cardekho.com/overview/Maruti_Vitara_Brezza/Maruti_Vitara_Brezza_VDi.htm'
p629
V8.13 Lakh
p630
sS'https://www.cardekho.com/overview/Mercedes-Benz_G_Class/Mercedes-Benz_G_Class_G63_AMG.htm'
p631
V3.24 Cr
p632
sS'https://www.cardekho.com/overview/BMW_M_Series/BMW_M_Series_M6_Gran_Coupe.htm'
p633
V1.77 Cr
p634
sS'https://www.cardekho.com/overview/Tata_Sumo/Tata_Sumo_Gold_CX_PS.htm'
p635
V7.35 Lakh
p636
sS'https://www.cardekho.com/overview/Jeep_Grand_Cherokee/Jeep_Grand_Cherokee_Summit_4X4.htm'
p637
V1.1 Cr
p638
sS'https://www.cardekho.com/overview/BMW_X5/BMW_X5_xDrive_30d_M_Sport.htm'
p639
V78.5 Lakh
p640
sS'https://www.cardekho.com/overview/Mahindra_Bolero/Mahindra_Bolero_mHAWK_D70_SLX.htm'
p641
V7.52 Lakh
p642
sS'https://www.cardekho.com/overview/Tata_Sumo/Tata_Sumo_Gold_CX_BSIII.htm'
p643
V6.85 Lakh
p644
sS'https://www.cardekho.com/overview/Mahindra_Scorpio/Mahindra_Scorpio_Getaway_4WD.htm'
p645
V10.05 Lakh
p646
sS'https://www.cardekho.com/overview/Hyundai_Creta/Hyundai_Creta_1.6_VTVT_AT_SX_Plus.htm'
p647
V13.16 Lakh
p648
sS'https://www.cardekho.com/overview/Chevrolet_Tavera/Chevrolet_Tavera_Neo_3_LS_9_Str_BSIII.htm'
p649
V9.69 Lakh
p650
sS'https://www.cardekho.com/overview/Ford_Ecosport/Ford_Ecosport_1.5_Ti_VCT_MT_Titanium.htm'
p651
V8.87 Lakh
p652
sS'https://www.cardekho.com/overview/Land_Rover_Discovery_Sport/Land_Rover_Discovery_Sport_SD4_HSE_Luxury_7S.htm'
p653
V63.29 Lakh
p654
sS'https://www.cardekho.com/overview/Mercedes-Benz_M-Class/Mercedes-Benz_M-Class_ML_63_AMG_4MATIC.htm'
p655
V1.52 Cr
p656
sS'https://www.cardekho.com/overview/Maruti_Gypsy/Maruti_Gypsy_King_Hard_Top_MPI_BSIV.htm'
p657
V6.77 Lakh
p658
sS'https://www.cardekho.com/overview/Mahindra_Scorpio/Mahindra_Scorpio_Intelli_Hybrid_S6_Plus.htm'
p659
V11.82 Lakh
p660
sS'https://www.cardekho.com/overview/Maruti_Vitara_Brezza/Maruti_Vitara_Brezza_ZDi.htm'
p661
V8.91 Lakh
p662
sS'https://www.cardekho.com/overview/Mahindra_KUV_100/Mahindra_KUV_100_mFALCON_D75_K4_Plus_5str.htm'
p663
V6.19 Lakh
p664
sS'https://www.cardekho.com/overview/Hyundai_Creta/Hyundai_Creta_1.6_Gamma_SX_Plus.htm'
p665
V12.11 Lakh
p666
sS'https://www.cardekho.com/overview/Mercedes-Benz_GLS/Mercedes-Benz_GLS_400_4MATIC.htm'
p667
V82.9 Lakh
p668
sS'https://www.cardekho.com/overview/Land_Rover_Discovery_Sport/Land_Rover_Discovery_Sport_TD4_HSE.htm'
p669
V54.49 Lakh
p670
sS'https://www.cardekho.com/overview/Mahindra_KUV_100/Mahindra_KUV_100_mFALCON_D75_K8_5str.htm'
p671
V7.19 Lakh
p672
sS'https://www.cardekho.com/overview/Tata_Safari_Storme/Tata_Safari_Storme_VX_4WD_Varicor_400.htm'
p673
V15.47 Lakh
p674
sS'https://www.cardekho.com/overview/Ford_Ecosport/Ford_Ecosport_1.0_Ecoboost_Titanium_Plus.htm'
p675
V9.71 Lakh
p676
sS'https://www.cardekho.com/overview/Chevrolet_Tavera/Chevrolet_Tavera_Neo_3_9_Str_BSIII.htm'
p677
V7.95 Lakh
p678
sS'https://www.cardekho.com/overview/Mahindra_TUV_300/Mahindra_TUV_300_mHAWK100_T8.htm'
p679
V9.0 Lakh
p680
sS'https://www.cardekho.com/overview/Mahindra_NuvoSport/Mahindra_NuvoSport_N4_Plus.htm'
p681
V8.06 Lakh
p682
sS'https://www.cardekho.com/overview/Bentley_Bentayga/Bentley_Bentayga_6.0_W12.htm'
p683
V3.85 Cr
p684
sS'https://www.cardekho.com/overview/Renault_Duster/Renault_Duster_Adventure_Edition_RXZ_AWD.htm'
p685
V14.16 Lakh
p686
sS'https://www.cardekho.com/overview/Mahindra_Scorpio/Mahindra_Scorpio_1.99_S6_Plus.htm'
p687
V11.44 Lakh
p688
sS'https://www.cardekho.com/overview/Mahindra_Scorpio/Mahindra_Scorpio_1.99_S8.htm'
p689
V12.55 Lakh
p690
sS'https://www.cardekho.com/overview/Mahindra_Thar/Mahindra_Thar_CRDe.htm'
p691
V8.92 Lakh
p692
sS'https://www.cardekho.com/overview/Nissan_Terrano/Nissan_Terrano_XL_Plus_85_PS.htm'
p693
V11.68 Lakh
p694
sS'https://www.cardekho.com/overview/Mahindra_KUV_100/Mahindra_KUV_100_mFALCON_D75_K6_5str.htm'
p695
V6.62 Lakh
p696
sS'https://www.cardekho.com/overview/Mahindra_Bolero/Mahindra_Bolero_LX_NON_AC.htm'
p697
V7.23 Lakh
p698
sS'https://www.cardekho.com/overview/Ford_Endeavour/Ford_Endeavour_2.2_Trend_MT_4X4.htm'
p699
V27.13 Lakh
p700
sS'https://www.cardekho.com/overview/Mahindra_XUV500/Mahindra_XUV500_AT_W10_1.99_mHawk.htm'
p701
V17.53 Lakh
p702
sS'https://www.cardekho.com/overview/Porsche_Cayenne/Porsche_Cayenne_Diesel.htm'
p703
V1.04 Cr
p704
sS'https://www.cardekho.com/overview/BMW_X1/BMW_X1_sDrive_20d_xLine.htm'
p705
V34.99 Lakh
p706
sS'https://www.cardekho.com/overview/Toyota_Land_Cruiser/Toyota_Land_Cruiser_VX.htm'
p707
V1.36 Cr
p708
sS'https://www.cardekho.com/overview/Mahindra_Bolero/Mahindra_Bolero_SLX_2WD_BSIII.htm'
p709
V8.14 Lakh
p710
sS'https://www.cardekho.com/overview/Mahindra_XUV500/Mahindra_XUV500_W10_1.99_mHawk.htm'
p711
V16.5 Lakh
p712
s.