(dp0
S'https://www.cardekho.com/overview/Mahindra_Supro/Mahindra_Supro_LX_8_Str_BSIII.htm'
p1
I467000
sS'https://www.cardekho.com/overview/Mahindra_Supro/Mahindra_Supro_VX_5_Str.htm'
p2
I505000
sS'https://www.cardekho.com/overview/Maruti_Eeco/Maruti_Eeco_5_Seater_AC.htm'
p3
I389000
sS'https://www.cardekho.com/overview/Maruti_Eeco/Maruti_Eeco_5_Seater_Standard.htm'
p4
I358000
sS'https://www.cardekho.com/overview/Maruti_Omni/Maruti_Omni_MPI_STD_BSIV.htm'
p5
I291000
sS'https://www.cardekho.com/overview/Maruti_Eeco/Maruti_Eeco_CNG_HTR_5-STR.htm'
p6
I426000
sS'https://www.cardekho.com/overview/Maruti_Eeco/Maruti_Eeco_Flexi_Green.htm'
p7
I462000
sS'https://www.cardekho.com/overview/Maruti_Eeco/Maruti_Eeco_7_Seater_Standard.htm'
p8
I376000
sS'https://www.cardekho.com/overview/Mahindra_Supro/Mahindra_Supro_LX_8_Str.htm'
p9
I484000
sS'https://www.cardekho.com/overview/Mahindra_Supro/Mahindra_Supro_VX_8_Str.htm'
p10
I509999
sS'https://www.cardekho.com/overview/Maruti_Omni/Maruti_Omni_MPI_Ambulance_BSIV.htm'
p11
I322000
sS'https://www.cardekho.com/overview/Maruti_Omni/Maruti_Omni_E_MPI_STD_BSIV.htm'
p12
I293000
sS'https://www.cardekho.com/overview/Mahindra_Supro/Mahindra_Supro_ZX_5_Str.htm'
p13
I542000
sS'https://www.cardekho.com/overview/Mahindra_Supro/Mahindra_Supro_ZX_5_Str_BSIII.htm'
p14
I525000
sS'https://www.cardekho.com/overview/Maruti_Omni/Maruti_Omni_MPI_CARGO_BSIV.htm'
p15
I265000
sS'https://www.cardekho.com/overview/Maruti_Eeco/Maruti_Eeco_CNG_5_Seater_AC.htm'
p16
I463999
sS'https://www.cardekho.com/overview/Maruti_Eeco/Maruti_Eeco_Ambulance_Petrol_AC_Plus_HTR.htm'
p17
I425000
sS'https://www.cardekho.com/overview/Mahindra_Supro/Mahindra_Supro_VX_8_Str_BSIII.htm'
p18
I494000
sS'https://www.cardekho.com/overview/Mahindra_Supro/Mahindra_Supro_VX_5_Str_BSIII.htm'
p19
I488000
s.