(dp0
S'https://www.cardekho.com/overview/Mahindra_Supro/Mahindra_Supro_LX_8_Str_BSIII.htm'
p1
V4.67 Lakh
p2
sS'https://www.cardekho.com/overview/Mahindra_Supro/Mahindra_Supro_VX_5_Str.htm'
p3
V5.05 Lakh
p4
sS'https://www.cardekho.com/overview/Maruti_Eeco/Maruti_Eeco_5_Seater_AC.htm'
p5
V3.89 Lakh
p6
sS'https://www.cardekho.com/overview/Maruti_Eeco/Maruti_Eeco_5_Seater_Standard.htm'
p7
V3.58 Lakh
p8
sS'https://www.cardekho.com/overview/Maruti_Omni/Maruti_Omni_MPI_STD_BSIV.htm'
p9
V2.91 Lakh
p10
sS'https://www.cardekho.com/overview/Maruti_Eeco/Maruti_Eeco_CNG_HTR_5-STR.htm'
p11
V4.26 Lakh
p12
sS'https://www.cardekho.com/overview/Maruti_Eeco/Maruti_Eeco_Flexi_Green.htm'
p13
V4.62 Lakh
p14
sS'https://www.cardekho.com/overview/Maruti_Eeco/Maruti_Eeco_7_Seater_Standard.htm'
p15
V3.76 Lakh
p16
sS'https://www.cardekho.com/overview/Mahindra_Supro/Mahindra_Supro_LX_8_Str.htm'
p17
V4.84 Lakh
p18
sS'https://www.cardekho.com/overview/Mahindra_Supro/Mahindra_Supro_VX_8_Str.htm'
p19
V5.1 Lakh
p20
sS'https://www.cardekho.com/overview/Maruti_Omni/Maruti_Omni_E_MPI_STD_BSIV.htm'
p21
V2.93 Lakh
p22
sS'https://www.cardekho.com/overview/Mahindra_Supro/Mahindra_Supro_VX_5_Str_BSIII.htm'
p23
V4.88 Lakh
p24
sS'https://www.cardekho.com/overview/Mahindra_Supro/Mahindra_Supro_ZX_5_Str.htm'
p25
V5.42 Lakh
p26
sS'https://www.cardekho.com/overview/Mahindra_Supro/Mahindra_Supro_ZX_5_Str_BSIII.htm'
p27
V5.25 Lakh
p28
sS'https://www.cardekho.com/overview/Maruti_Omni/Maruti_Omni_MPI_Ambulance_BSIV.htm'
p29
V3.22 Lakh
p30
sS'https://www.cardekho.com/overview/Maruti_Omni/Maruti_Omni_MPI_CARGO_BSIV.htm'
p31
V2.65 Lakh
p32
sS'https://www.cardekho.com/overview/Maruti_Eeco/Maruti_Eeco_Ambulance_Petrol_AC_Plus_HTR.htm'
p33
V4.25 Lakh
p34
sS'https://www.cardekho.com/overview/Mahindra_Supro/Mahindra_Supro_VX_8_Str_BSIII.htm'
p35
V4.94 Lakh
p36
sS'https://www.cardekho.com/overview/Maruti_Eeco/Maruti_Eeco_CNG_5_Seater_AC.htm'
p37
V4.64 Lakh
p38
s.