(dp0
I1
I2
sS'Mahindra Verito'
p1
S'sedan'
p2
sS'Mercedes-Benz A-Class'
p3
g2
sS'Hyundai i20 Active'
p4
S'hatchback'
p5
sS'Fiat 500'
p6
g5
sS'BMW M Series'
p7
S'coupe'
p8
sS'Honda Brio'
p9
g5
sS'Renault Scala'
p10
g2
sS'Caterham 7'
p11
g2
sS'Fiat Abarth Punto'
p12
g2
sS'Audi R8'
p13
g8
sS'Ferrari 458 Speciale'
p14
g8
sS'Toyota Innova'
p15
S'muv'
p16
sS'Mercedes-Benz M-Class'
p17
S'suv'
p18
sS'Mahindra KUV100'
p19
g18
sS'Chevrolet Tavera'
p20
g16
sS'Toyota Camry'
p21
g2
sS'Tata Tiago'
p22
g5
sS'Lamborghini Huracan'
p23
g8
sS'Bugatti Veyron'
p24
S'convertibles'
p25
sS'Mercedes-Benz G-Class'
p26
g2
sS'Volvo XC60'
p27
g18
sS'BMW i8'
p28
S'hybrid'
p29
sS'BMW 3 Series'
p30
S'luxury'
p31
sS'Volvo S60 Cross Country'
p32
g31
sS'Mahindra XUV500'
p33
g18
sS'Ford Aspire'
p34
g2
sS'Renault KWID'
p35
g5
sS'Bentley Bentayga'
p36
g18
sS'Chevrolet Enjoy'
p37
g16
sS'Ferrari California T'
p38
g2
sS'BMW 1 Series'
p39
g5
sS'Rolls-Royce Phantom'
p40
g25
sS'Maruti Wagon R'
p41
g5
sS'Audi Q3'
p42
g18
sS'Aston Martin DB9'
p43
g2
sS'Audi Q5'
p44
g18
sS'Audi Q7'
p45
g18
sS'Ford Figo'
p46
g5
sS'Datsun Redi GO'
p47
g2
sS'Honda CR-V'
p48
g18
sS'Volvo S60'
p49
g2
sS'Maruti Swift Dzire'
p50
g2
sS'Toyota Corolla Altis'
p51
g2
sS'Mahindra TUV 300'
p52
g18
sS'Ferrari 488'
p53
g2
sS'Mercedes-Benz E-Class'
p54
g2
sS'Aston Martin Vantage'
p55
g8
sS'Hyundai Creta'
p56
g18
sS'Toyota Innova Crysta'
p57
g16
sS'Tata Aria'
p58
g16
sS'Koenigsegg Agera'
p59
g2
sS'Ford Endeavour'
p60
g18
sS'Skoda Superb'
p61
g2
sS'Nissan Micra'
p62
g5
sS'Maruti Baleno'
p63
g5
sS'Toyota Land Cruiser'
p64
g18
sS'Rolls-Royce Wraith'
p65
g8
sS'Toyota Prius'
p66
g29
sS'Nissan Micra Active'
p67
g5
sS'Porsche Cayman'
p68
g8
sS'Tata Indica eV2'
p69
g2
sS'Conquest Evade'
p70
g18
sS'Chevrolet Spark'
p71
g5
sS'Hyundai i10'
p72
g5
sS'Tata Indigo eCS'
p73
g2
sS'Fiat Linea Classic'
p74
g2
sS'Fiat Avventura'
p75
g5
sS'Fiat Linea'
p76
g2
sS'Ferrari F12berlinetta'
p77
g8
sS'Toyota Etios Cross'
p78
g5
sS'Renault Pulse'
p79
g5
sS'Audi A4'
p80
g31
sS'Audi A6'
p81
g2
sS'Volvo V40'
p82
g5
sS'Land Rover Discovery 4'
p83
g18
sS'Lamborghini Aventador'
p84
g25
sS'Audi A3 cabriolet'
p85
g25
sS'Mini 5 DOOR'
p86
g5
sS'Mercedes-Benz AMG GT'
p87
g8
sS'Nissan Terrano'
p88
g18
sS'Maserati Ghibli'
p89
g31
sS'Rolls-Royce Ghost'
p90
g31
sS'Porsche Cayenne'
p91
g18
sS'Mahindra Quanto'
p92
g18
sS'Mahindra Thar'
p93
g18
sS'Ford Mustang'
p94
g2
sS'Mahindra Scorpio'
p95
g18
sS'Chevrolet Sail Hatchback'
p96
g5
sS'DC Avanti'
p97
g8
sS'Volvo V40 Cross Country'
p98
g5
sS'Chevrolet Trailblazer'
p99
g18
sS'Mitsubishi Pajero Sport'
p100
g2
sS'Honda Jazz'
p101
g5
sS'Maserati Quattroporte'
p102
g31
sS'Premier Rio'
p103
g18
sS'Mercedes-Benz B-Class'
p104
g2
sS'Force Gurkha'
p105
g18
sS'Honda Mobilio'
p106
g16
sS'Ferrari FF'
p107
g8
sS'Mahindra Verito Vibe'
p108
g5
sS'Jaguar XF'
p109
g31
sS'Jaguar XE'
p110
g31
sS'Honda Amaze'
p111
g2
sS'Tata Safari Storme'
p112
g18
sS'Volkswagen Vento'
p113
g2
sS'Jaguar XJ'
p114
g31
sS'Isuzu MU 7'
p115
g18
sS'Tata Zest'
p116
g2
sS'Aston Martin Rapide'
p117
g31
sS'Maruti Vitara Brezza'
p118
g18
sS'Fiat Punto Pure'
p119
g5
sS'Datsun GO Plus'
p120
g16
sS'Mini 3 DOOR'
p121
g5
sS'Mini Cooper Convertible'
p122
g25
sS'Maruti Alto 800'
p123
g5
sS'Mercedes-Benz GLS'
p124
g18
sS'Hyundai Grand i10'
p125
g5
sS'Force One SUV'
p126
g18
sS'Hyundai Verna'
p127
g2
sS'Ford EcoSport'
p128
g18
sS'Tata Bolt'
p129
g5
sS'BMW Z4'
p130
g25
sS'Nissan Sunny'
p131
g2
sS'Porsche Macan'
p132
g18
sS'Skoda Yeti'
p133
g18
sS'Tata Xenon XT'
p134
g16
sS'BMW 7 Series'
p135
g31
sS'Maruti Ertiga'
p136
g16
sS'Maruti Wagon R Stingray'
p137
g5
sS'Bentley Flying Spur'
p138
g31
sS'Maruti S-Cross'
p139
g2
sS'Maruti Alto K10'
p140
g5
sS'Tata Sumo'
p141
g18
sS'Land Rover Range Rover'
p142
g18
sS'Audi RS6 Avant'
p143
g2
sS'Toyota Fortuner'
p144
g18
sS'Fiat Abarth Avventura'
p145
g5
sS'Mahindra e2o'
p146
g5
sS'Land Rover Range Rover Evoque'
p147
g8
sS'Maruti Gypsy'
p148
g18
sS'Mercedes-Benz C-Class'
p149
g2
sS'Renault Lodgy'
p150
g16
sS'Mahindra Supro'
p151
S'minivans'
p152
sS'Mercedes-Benz GLA Class'
p153
g18
sS'Volkswagen Ameo'
p154
g2
sS'Renault Duster'
p155
g18
sS'Chevrolet Sail'
p156
g2
sS'Volkswagen Beetle'
p157
g5
sS'Audi TT'
p158
g8
sS'Porsche Boxster'
p159
g25
sS'Audi RS5'
p160
g2
sS'Audi RS7'
p161
g31
sS'Porsche 911'
p162
g25
sS'Volkswagen CrossPolo'
p163
g5
sS'Bentley Mulsanne'
p164
g31
sS'Mini Countryman'
p165
g2
sS'Hyundai Xcent'
p166
g2
sS'Volvo XC90'
p167
g2
sS'Mahindra Bolero'
p168
g18
sS'Hyundai Elantra'
p169
g2
sS'Chevrolet Beat'
p170
g5
sS'Maruti Eeco'
p171
g152
sS'Mahindra Ssangyong Rexton'
p172
g18
sS'Mercedes-Benz GLA 45 AMG'
p173
g2
sS'Toyota Etios Liva'
p174
g5
sS'Volkswagen Polo'
p175
g5
sS'Honda BRV'
p176
g2
sS'Maruti Omni'
p177
g152
sS'Mercedes-Benz S-Class'
p178
g2
sS'Skoda Octavia'
p179
g2
sS'Mercedes-Benz GLE'
p180
g2
sS'Volkswagen Jetta'
p181
g2
sS'Porsche Panamera'
p182
g31
sS'Tata Nano'
p183
g5
sS'BMW 6 Series'
p184
g31
sS'Skoda Rapid'
p185
g2
sS'Chevrolet Cruze'
p186
g2
sS'BMW X5'
p187
g18
sS'BMW X6'
p188
g18
sS'BMW X1'
p189
g18
sS'BMW X3'
p190
g18
sS'Renault Koleos'
p191
g2
sS'Aston Martin Vanquish'
p192
g8
sS'Land Rover Range Rover Sport'
p193
g18
sS'Tata Safari'
p194
g18
sS'Fiat Punto EVO'
p195
g2
sS'Maruti Ciaz'
p196
g2
sS'Hyundai Santa Fe'
p197
g18
sS'BMW 5 Series'
p198
g31
sS'Mahindra NuvoSport'
p199
g18
sS'ICML Extreme'
p200
g16
sS'Land Rover Discovery Sport'
p201
g18
sS'Mercedes-Benz CLS'
p202
g2
sS'Ford Fiesta'
p203
g2
sS'Audi A3'
p204
g2
sS'Audi S5'
p205
g31
sS'Toyota Etios'
p206
g2
sS'Mercedes-Benz CLA'
p207
g2
sS'Maruti Celerio'
p208
g5
sS'Mahindra Xylo'
p209
g16
sS'Mercedes-Benz GL-Class'
p210
g18
sS'Hyundai Elite i20'
p211
g2
sS'Datsun GO'
p212
g5
sS'Toyota Land Cruiser Prado'
p213
g18
sS'Maruti Ritz'
p214
g5
sS'Maserati Gran Cabrio'
p215
g25
sS'Maruti Swift'
p216
g5
sS'Volvo S80'
p217
g2
sS'Hyundai EON'
p218
g5
sS'Jaguar F-Type'
p219
g2
sS'Audi A8'
p220
g31
sS'Honda City'
p221
g2
sS'Renault Fluence'
p222
g2
sS'Bentley Continental'
p223
g25
sS'Maserati Gran Turismo'
p224
g8
s.