(dp0
S'Mercedes-Benz A-Class'
p1
Vhttps://www.cardekho.com/carmodels/Mercedes-Benz/Mercedes-Benz_A_Class
p2
sS'Hyundai i20 Active'
p3
Vhttps://www.cardekho.com/carmodels/Hyundai/Hyundai_i20_Active
p4
sS'Mahindra E Verito'
p5
S'https://www.cardekho.com/mahindra/e-verito'
p6
sS'Fiat 500'
p7
Vhttps://www.cardekho.com/carmodels/Fiat/Fiat_500
p8
sS'BMW M Series'
p9
Vhttps://www.cardekho.com/carmodels/BMW/BMW_M_Series
p10
sS'Ford Aspire'
p11
Vhttps://www.cardekho.com/carmodels/Ford/Ford_Figo_Aspire
p12
sS'Renault Scala'
p13
Vhttps://www.cardekho.com/carmodels/Renault/Renault_Scala
p14
sS'Mercedes-Benz CLS'
p15
S'https://www.cardekho.com/carmodels/Mercedes-Benz/Mercedes-Benz_CLS-Class'
p16
sS'Renault Pulse'
p17
Vhttps://www.cardekho.com/carmodels/Renault/Renault_Pulse
p18
sS'Hyundai Elantra'
p19
Vhttps://www.cardekho.com/carmodels/Hyundai/Hyundai_Elantra
p20
sS'Honda CR-V'
p21
Vhttps://www.cardekho.com/carmodels/Honda/Honda_CR-V
p22
sS'Mercedes-Benz M-Class'
p23
Vhttps://www.cardekho.com/carmodels/Mercedes-Benz/Mercedes-Benz_M-Class
p24
sS'Mahindra KUV100'
p25
Vhttps://www.cardekho.com/carmodels/Mahindra/Mahindra_KUV_100
p26
sS'Tata Tiago'
p27
Vhttps://www.cardekho.com/carmodels/Tata/Tata_Tiago
p28
sS'Lamborghini Huracan'
p29
Vhttps://www.cardekho.com/carmodels/Lamborghini/Lamborghini_Huracan
p30
sS'Mercedes-Benz G-Class'
p31
Vhttps://www.cardekho.com/carmodels/Mercedes-Benz/Mercedes-Benz_G_Class
p32
sS'Nissan Sunny'
p33
Vhttps://www.cardekho.com/carmodels/Nissan/Nissan_Sunny
p34
sS'BMW i8'
p35
Vhttps://www.cardekho.com/carmodels/BMW/BMW_i8
p36
sS'BMW 3 Series'
p37
Vhttps://www.cardekho.com/carmodels/BMW/BMW_3_Series
p38
sS'Volvo S60 Cross Country'
p39
Vhttps://www.cardekho.com/carmodels/Volvo/Volvo_S60_Cross_Country
p40
sS'Mahindra XUV500'
p41
Vhttps://www.cardekho.com/carmodels/Mahindra/Mahindra_XUV500
p42
sS'Renault KWID'
p43
Vhttps://www.cardekho.com/carmodels/Renault/Renault_KWID
p44
sS'Chevrolet Enjoy'
p45
Vhttps://www.cardekho.com/carmodels/Chevrolet/Chevrolet_Enjoy
p46
sS'Ferrari California T'
p47
Vhttps://www.cardekho.com/carmodels/Ferrari/Ferrari_California
p48
sS'BMW 1 Series'
p49
Vhttps://www.cardekho.com/carmodels/BMW/BMW_1_Series
p50
sS'Mini 3 DOOR'
p51
Vhttps://www.cardekho.com/carmodels/Mini/Mini_3_DOOR
p52
sS'Maruti Wagon R'
p53
Vhttps://www.cardekho.com/carmodels/Maruti/Maruti_Wagon_R
p54
sS'Maruti Ritz'
p55
Vhttps://www.cardekho.com/carmodels/Maruti/Maruti_Ritz
p56
sS'Mini 5 DOOR'
p57
Vhttps://www.cardekho.com/carmodels/Mini/Mini_5_DOOR
p58
sS'Audi Q5'
p59
Vhttps://www.cardekho.com/carmodels/Audi/Audi_Q5
p60
sS'Audi Q7'
p61
Vhttps://www.cardekho.com/carmodels/Audi/Audi_Q7
p62
sS'Mahindra Quanto'
p63
Vhttps://www.cardekho.com/carmodels/Mahindra/Mahindra_Quanto
p64
sS'Datsun Redi GO'
p65
Vhttps://www.cardekho.com/carmodels/Datsun/Datsun_RediGO
p66
sS'Ferrari 458 Speciale'
p67
Vhttps://www.cardekho.com/carmodels/Ferrari/Ferrari_458_Speciale
p68
sS'Volvo S60'
p69
Vhttps://www.cardekho.com/carmodels/Volvo/Volvo_S60
p70
sS'Maruti Swift Dzire'
p71
Vhttps://www.cardekho.com/carmodels/Maruti/Maruti_Swift_Dzire
p72
sS'Toyota Corolla Altis'
p73
Vhttps://www.cardekho.com/carmodels/Toyota/Toyota_Corolla_Altis
p74
sS'Mahindra TUV 300'
p75
Vhttps://www.cardekho.com/carmodels/Mahindra/Mahindra_TUV_300
p76
sS'Aston Martin DB11'
p77
S'https://www.cardekho.com/aston-martin/db11'
p78
sS'Rolls-Royce Dawn'
p79
S'https://www.cardekho.com/rolls-royce/dawn'
p80
sS'Hyundai Santa Fe'
p81
Vhttps://www.cardekho.com/carmodels/Hyundai/Hyundai_Santa_Fe
p82
sS'Mercedes-Benz E-Class'
p83
Vhttps://www.cardekho.com/carmodels/Mercedes-Benz/Mercedes-Benz_E-Class
p84
sS'Aston Martin Vantage'
p85
Vhttps://www.cardekho.com/carmodels/Aston_Martin/Aston_Martin_Vantage
p86
sS'Ford Mustang'
p87
Vhttps://www.cardekho.com/carmodels/Ford/Ford_Mustang
p88
sS'Toyota Innova Crysta'
p89
Vhttps://www.cardekho.com/carmodels/Toyota/Toyota_Innova_Crysta
p90
sS'Tata Aria'
p91
Vhttps://www.cardekho.com/carmodels/Tata/Tata_Aria
p92
sS'Ford Endeavour'
p93
Vhttps://www.cardekho.com/carmodels/Ford/Ford_Endeavour
p94
sS'Skoda Superb'
p95
Vhttps://www.cardekho.com/carmodels/Skoda/Skoda_Superb
p96
sS'Nissan Micra'
p97
Vhttps://www.cardekho.com/carmodels/Nissan/Nissan_Micra
p98
sS'Maruti Baleno'
p99
Vhttps://www.cardekho.com/carmodels/Maruti/Maruti_Baleno
p100
sS'Toyota Land Cruiser'
p101
Vhttps://www.cardekho.com/carmodels/Toyota/Toyota_Land_Cruiser
p102
sS'Rolls-Royce Wraith'
p103
Vhttps://www.cardekho.com/carmodels/Rolls-Royce/Rolls-Royce_Wraith
p104
sS'Toyota Prius'
p105
Vhttps://www.cardekho.com/carmodels/Toyota/Toyota_Prius
p106
sS'Nissan Micra Active'
p107
Vhttps://www.cardekho.com/carmodels/Nissan/Nissan_Micra_Active
p108
sS'Porsche Cayman'
p109
Vhttps://www.cardekho.com/carmodels/Porsche/Porsche_Cayman
p110
sS'Tata Indica eV2'
p111
Vhttps://www.cardekho.com/carmodels/Tata/Tata_Indica_V2
p112
sS'Mercedes-Benz GLA Class'
p113
Vhttps://www.cardekho.com/carmodels/Mercedes-Benz/Mercedes-Benz_GLA_Class
p114
sS'Chevrolet Spark'
p115
Vhttps://www.cardekho.com/carmodels/Chevrolet/Chevrolet_Spark
p116
sS'Hyundai i10'
p117
Vhttps://www.cardekho.com/carmodels/Hyundai/Hyundai_i10
p118
sS'Tata Indigo eCS'
p119
Vhttps://www.cardekho.com/carmodels/Tata/Tata_Indigo_CS
p120
sS'Fiat Linea Classic'
p121
Vhttps://www.cardekho.com/carmodels/Fiat/Fiat_Linea_Classic
p122
sS'Fiat Avventura'
p123
Vhttps://www.cardekho.com/carmodels/Fiat/Fiat_Avventura
p124
sS'Fiat Linea'
p125
Vhttps://www.cardekho.com/carmodels/Fiat/Fiat_Linea
p126
sS'Ferrari F12berlinetta'
p127
Vhttps://www.cardekho.com/carmodels/Ferrari/Ferrari_F12berlinetta
p128
sS'Toyota Etios Cross'
p129
Vhttps://www.cardekho.com/carmodels/Toyota/Toyota_Etios_Cross
p130
sS'Audi A4'
p131
Vhttps://www.cardekho.com/carmodels/Audi/Audi_A4
p132
sS'Audi A6'
p133
Vhttps://www.cardekho.com/carmodels/Audi/Audi_A6
p134
sS'Volvo V40'
p135
Vhttps://www.cardekho.com/carmodels/Volvo/Volvo_V40
p136
sS'Mercedes-Benz SLC'
p137
S'https://www.cardekho.com/mercedes-benz/slc'
p138
sS'Lamborghini Aventador'
p139
Vhttps://www.cardekho.com/carmodels/Lamborghini/Lamborghini_Aventador
p140
sS'Bugatti Veyron'
p141
Vhttps://www.cardekho.com/carmodels/Bugatti/Bugatti_Veyron
p142
sS'Isuzu D-Max V-Cross'
p143
S'https://www.cardekho.com/overview/Isuzu_D-Max_V-Cross/Isuzu_D-Max_V-Cross_4X4.htm'
p144
sS'BMW 6 Series'
p145
Vhttps://www.cardekho.com/carmodels/BMW/BMW_6_Series
p146
sS'Mercedes-Benz AMG GT'
p147
Vhttps://www.cardekho.com/carmodels/Mercedes-Benz/Mercedes-Benz_AMG_GT
p148
sS'Nissan Terrano'
p149
Vhttps://www.cardekho.com/carmodels/Nissan/Nissan_Terrano
p150
sS'Maserati Ghibli'
p151
Vhttps://www.cardekho.com/carmodels/Maserati/Maserati_Ghibli
p152
sS'Rolls-Royce Ghost'
p153
Vhttps://www.cardekho.com/carmodels/Rolls-Royce/Rolls-Royce_Ghost
p154
sS'Porsche Cayenne'
p155
Vhttps://www.cardekho.com/carmodels/Porsche/Porsche_Cayenne
p156
sS'Ford Figo'
p157
Vhttps://www.cardekho.com/carmodels/Ford/Ford_Figo
p158
sS'Mahindra Thar'
p159
Vhttps://www.cardekho.com/carmodels/Mahindra/Mahindra_Thar
p160
sS'Jeep Wrangler Unlimited'
p161
S'https://www.cardekho.com/jeep/wrangler'
p162
sS'Hyundai Creta'
p163
S'https://www.cardekho.com/hyundai-cars/creta'
p164
sS'Mahindra Scorpio'
p165
Vhttps://www.cardekho.com/carmodels/Mahindra/Mahindra_Scorpio
p166
sS'Chevrolet Sail Hatchback'
p167
Vhttps://www.cardekho.com/carmodels/Chevrolet/Chevrolet_Sail_Hatchback
p168
sS'DC Avanti'
p169
Vhttps://www.cardekho.com/carmodels/DC/DC_Avanti
p170
sS'Audi R8'
p171
Vhttps://www.cardekho.com/carmodels/Audi/Audi_R8
p172
sS'Volvo V40 Cross Country'
p173
Vhttps://www.cardekho.com/carmodels/Volvo/Volvo_V40_Cross_Country
p174
sS'Chevrolet Trailblazer'
p175
Vhttps://www.cardekho.com/carmodels/Chevrolet/Chevrolet_Trailblazer
p176
sS'Mitsubishi Pajero Sport'
p177
Vhttps://www.cardekho.com/carmodels/Mitsubishi/Mitsubishi_Pajero
p178
sS'Honda Jazz'
p179
Vhttps://www.cardekho.com/carmodels/Honda/Honda_Jazz
p180
sS'Maserati Quattroporte'
p181
Vhttps://www.cardekho.com/carmodels/Maserati/Maserati_Quattroporte
p182
sS'Premier Rio'
p183
Vhttps://www.cardekho.com/carmodels/Premier/Premier_Rio
p184
sS'Mercedes-Benz B-Class'
p185
Vhttps://www.cardekho.com/carmodels/Mercedes-Benz/Mercedes-Benz_B_Class
p186
sS'Force Gurkha'
p187
Vhttps://www.cardekho.com/carmodels/Force/Force_Gurkha
p188
sS'Honda Mobilio'
p189
Vhttps://www.cardekho.com/carmodels/Honda/Honda_Mobilio
p190
sS'Ferrari FF'
p191
Vhttps://www.cardekho.com/carmodels/Ferrari/Ferrari_FF
p192
sS'Mahindra Verito Vibe'
p193
Vhttps://www.cardekho.com/carmodels/Mahindra/Mahindra_Verito_Vibe
p194
sS'Jaguar XF'
p195
Vhttps://www.cardekho.com/carmodels/Jaguar/Jaguar_XF
p196
sS'Jaguar XE'
p197
Vhttps://www.cardekho.com/carmodels/Jaguar/Jaguar_XE
p198
sS'Honda Amaze'
p199
Vhttps://www.cardekho.com/carmodels/Honda/Honda_Amaze
p200
sS'Tata Safari Storme'
p201
Vhttps://www.cardekho.com/carmodels/Tata/Tata_Safari_Storme
p202
sS'Volkswagen Vento'
p203
Vhttps://www.cardekho.com/carmodels/Volkswagen/Volkswagen_Vento
p204
sS'Audi A3 cabriolet'
p205
Vhttps://www.cardekho.com/carmodels/Audi/Audi_A3_cabriolet
p206
sS'Mercedes-Benz CLA'
p207
S'https://www.cardekho.com/carmodels/Mercedes-Benz/Mercedes-Benz_CLA'
p208
sS'Audi Q3'
p209
Vhttps://www.cardekho.com/carmodels/Audi/Audi_Q3
p210
sS'Tata Zest'
p211
Vhttps://www.cardekho.com/carmodels/Tata/Tata_Zest
p212
sS'Aston Martin Rapide'
p213
Vhttps://www.cardekho.com/carmodels/Aston_Martin/Aston_Martin_Rapide
p214
sS'Maruti Vitara Brezza'
p215
Vhttps://www.cardekho.com/carmodels/Maruti/Maruti_Vitara_Brezza
p216
sS'Fiat Punto Pure'
p217
Vhttps://www.cardekho.com/carmodels/Fiat/Fiat_Punto_Pure
p218
sS'Datsun GO Plus'
p219
Vhttps://www.cardekho.com/carmodels/Datsun/Datsun_GO_Plus
p220
sS'Rolls-Royce Phantom'
p221
Vhttps://www.cardekho.com/carmodels/Rolls-Royce/Rolls-Royce_Phantom
p222
sS'Mini Cooper Convertible'
p223
Vhttps://www.cardekho.com/carmodels/Mini/Mini_Cooper_Convertible
p224
sS'Mercedes-Benz GLS'
p225
S'https://www.cardekho.com/mercedes-benz/gls'
p226
sS'Volvo XC90'
p227
Vhttps://www.cardekho.com/carmodels/Volvo/Volvo_XC_90
p228
sS'Toyota Platinum Etios'
p229
Vhttps://www.cardekho.com/carmodels/Toyota/Toyota_Etios
p230
sS'Hyundai Grand i10'
p231
Vhttps://www.cardekho.com/carmodels/Hyundai/Hyundai_Grand_i10
p232
sS'Force One SUV'
p233
Vhttps://www.cardekho.com/carmodels/Force/Force_One
p234
sS'Hyundai Verna'
p235
Vhttps://www.cardekho.com/carmodels/Hyundai/Hyundai_Verna
p236
sS'Tata Bolt'
p237
Vhttps://www.cardekho.com/carmodels/Tata/Tata_Bolt
p238
sS'BMW X3'
p239
Vhttps://www.cardekho.com/carmodels/BMW/BMW_X3
p240
sS'BMW Z4'
p241
Vhttps://www.cardekho.com/carmodels/BMW/BMW_Z4
p242
sS'Volvo XC60'
p243
Vhttps://www.cardekho.com/carmodels/Volvo/Volvo_XC60
p244
sS'Porsche Macan'
p245
Vhttps://www.cardekho.com/carmodels/Porsche/Porsche_Macan
p246
sS'Skoda Yeti'
p247
Vhttps://www.cardekho.com/carmodels/Skoda/Skoda_Yeti
p248
sS'Tata Xenon XT'
p249
Vhttps://www.cardekho.com/carmodels/Tata/Tata_Xenon_XT
p250
sS'BMW 7 Series'
p251
Vhttps://www.cardekho.com/carmodels/BMW/BMW_7_Series
p252
sS'Maruti Ertiga'
p253
Vhttps://www.cardekho.com/carmodels/Maruti/Maruti_Ertiga
p254
sS'Maruti Wagon R Stingray'
p255
Vhttps://www.cardekho.com/carmodels/Maruti/Maruti_Wagon_R_Stingray
p256
sS'Bentley Flying Spur'
p257
Vhttps://www.cardekho.com/carmodels/Bentley/Bentley_Flying_Spur
p258
sS'Maruti S-Cross'
p259
Vhttps://www.cardekho.com/carmodels/Maruti/Maruti_SX4_S_Cross
p260
sS'Maruti Alto K10'
p261
Vhttps://www.cardekho.com/carmodels/Maruti/Maruti_Alto_K10
p262
sS'Tata Sumo'
p263
Vhttps://www.cardekho.com/carmodels/Tata/Tata_Sumo
p264
sS'Land Rover Range Rover'
p265
Vhttps://www.cardekho.com/carmodels/Land_Rover/Land_Rover_Range_Rover_Evoque
p266
sS'Audi RS6 Avant'
p267
Vhttps://www.cardekho.com/carmodels/Audi/Audi_RS6
p268
sS'Toyota Fortuner'
p269
Vhttps://www.cardekho.com/carmodels/Toyota/Toyota_Fortuner
p270
sS'Fiat Abarth Avventura'
p271
Vhttps://www.cardekho.com/carmodels/Fiat/Fiat_Abarth_Avventura
p272
sS'Mercedes-Benz GL-Class'
p273
Vhttps://www.cardekho.com/carmodels/Mercedes-Benz/Mercedes-Benz_GL-Class
p274
sS'Land Rover Range Rover Evoque'
p275
Vhttps://www.cardekho.com/carmodels/Land_Rover/Land_Rover_Range_Rover_Evoque
p276
sS'Maruti Gypsy'
p277
Vhttps://www.cardekho.com/carmodels/Maruti/Maruti_Gypsy
p278
sS'Mercedes-Benz C-Class'
p279
Vhttps://www.cardekho.com/carmodels/Mercedes-Benz/Mercedes-Benz_New_C-Class
p280
sS'Renault Lodgy'
p281
Vhttps://www.cardekho.com/carmodels/Renault/Renault_Lodgy
p282
sS'BMW 5 Series'
p283
Vhttps://www.cardekho.com/carmodels/BMW/BMW_5_Series
p284
sS'Mahindra Supro'
p285
Vhttps://www.cardekho.com/carmodels/Mahindra/Mahindra_Supro
p286
sS'Conquest Evade'
p287
Vhttps://www.cardekho.com/carmodels/Conquest/Conquest_Evade
p288
sS'Fiat Avventura Urban Cross'
p289
S'https://www.cardekho.com/fiat/avventura-urban-cross'
p290
sS'Volkswagen Ameo'
p291
Vhttps://www.cardekho.com/carmodels/Volkswagen/Volkswagen_Ameo
p292
sS'Renault Duster'
p293
Vhttps://www.cardekho.com/carmodels/Renault/Renault_Duster
p294
sS'Chevrolet Sail'
p295
Vhttps://www.cardekho.com/carmodels/Chevrolet/Chevrolet_Sail
p296
sS'Volkswagen Beetle'
p297
Vhttps://www.cardekho.com/carmodels/Volkswagen/Volkswagen_Beetle
p298
sS'Audi TT'
p299
Vhttps://www.cardekho.com/carmodels/Audi/Audi_TT
p300
sS'Porsche Boxster'
p301
Vhttps://www.cardekho.com/carmodels/Porsche/Porsche_Boxster
p302
sS'Honda Brio'
p303
Vhttps://www.cardekho.com/carmodels/Honda/Honda_Brio
p304
sS'Audi RS7'
p305
Vhttps://www.cardekho.com/carmodels/Audi/Audi_RS7
p306
sS'Porsche 911'
p307
Vhttps://www.cardekho.com/carmodels/Porsche/Porsche_911
p308
sS'Volkswagen CrossPolo'
p309
Vhttps://www.cardekho.com/carmodels/Volkswagen/Volkswagen_CrossPolo
p310
sS'Toyota Camry'
p311
Vhttps://www.cardekho.com/carmodels/Toyota/Toyota_Camry
p312
sS'Mini Countryman'
p313
Vhttps://www.cardekho.com/carmodels/Mini/Mini_Cooper_Countryman
p314
sS'Hyundai Xcent'
p315
Vhttps://www.cardekho.com/carmodels/Hyundai/Hyundai_Xcent
p316
sS'Toyota Innova'
p317
Vhttps://www.cardekho.com/carmodels/Toyota/Toyota_Innova
p318
sS'Skoda Octavia'
p319
Vhttps://www.cardekho.com/carmodels/Skoda/Skoda_Octavia
p320
sS'Bentley Continental'
p321
Vhttps://www.cardekho.com/carmodels/Bentley/Bentley_Continental
p322
sS'Chevrolet Beat'
p323
Vhttps://www.cardekho.com/carmodels/Chevrolet/Chevrolet_Beat
p324
sS'Maruti Eeco'
p325
Vhttps://www.cardekho.com/carmodels/Maruti/Maruti_Eeco
p326
sS'Mahindra Ssangyong Rexton'
p327
Vhttps://www.cardekho.com/carmodels/Mahindra_Ssangyong/Mahindra_Ssangyong_Rexton
p328
sS'Mercedes-Benz GLA 45 AMG'
p329
S'https://www.cardekho.com/overview/Mercedes-Benz_GLA/Mercedes-Benz_GLA_45_AMG.htm'
p330
sS'Bentley Mulsanne'
p331
Vhttps://www.cardekho.com/carmodels/Bentley/Bentley_Mulsanne
p332
sS'ICML Extreme'
p333
Vhttps://www.cardekho.com/carmodels/ICML/ICML_Extreme
p334
sS'Toyota Etios Liva'
p335
Vhttps://www.cardekho.com/carmodels/Toyota/Toyota_Etios_Liva
p336
sS'Volkswagen Polo'
p337
Vhttps://www.cardekho.com/carmodels/Volkswagen/Volkswagen_Polo
p338
sS'Maruti Omni'
p339
Vhttps://www.cardekho.com/carmodels/Maruti/Maruti_Omni
p340
sS'Mercedes-Benz S-Class'
p341
Vhttps://www.cardekho.com/carmodels/Mercedes-Benz/Mercedes-Benz_S-Class
p342
sS'Mercedes-Benz GLC'
p343
S'https://www.cardekho.com/mercedes-benz/glc-class'
p344
sS'Mahindra Bolero'
p345
Vhttps://www.cardekho.com/carmodels/Mahindra/Mahindra_Bolero
p346
sS'Mercedes-Benz GLE'
p347
S'https://www.cardekho.com/carmodels/Mercedes-Benz/Mercedes-Benz_GLE_Class'
p348
sS'Volkswagen Jetta'
p349
Vhttps://www.cardekho.com/carmodels/Volkswagen/Volkswagen_Jetta
p350
sS'Ford EcoSport'
p351
Vhttps://www.cardekho.com/carmodels/Ford/Ford_Ecosport
p352
sS'Porsche Panamera'
p353
Vhttps://www.cardekho.com/carmodels/Porsche/Porsche_Panamera
p354
sS'Skoda Rapid'
p355
Vhttps://www.cardekho.com/carmodels/Skoda/Skoda_Rapid
p356
sS'Chevrolet Cruze'
p357
Vhttps://www.cardekho.com/carmodels/Chevrolet/Chevrolet_Cruze
p358
sS'BMW X5'
p359
Vhttps://www.cardekho.com/carmodels/BMW/BMW_X5
p360
sS'BMW X6'
p361
Vhttps://www.cardekho.com/carmodels/BMW/BMW_X6
p362
sS'BMW X1'
p363
Vhttps://www.cardekho.com/carmodels/BMW/BMW_X1
p364
sS'Fiat Abarth Punto'
p365
Vhttps://www.cardekho.com/carmodels/Fiat/Fiat_Punto_Abarth
p366
sS'Chevrolet Tavera'
p367
Vhttps://www.cardekho.com/carmodels/Chevrolet/Chevrolet_Tavera
p368
sS'Land Rover Range Rover Sport'
p369
Vhttps://www.cardekho.com/carmodels/Land_Rover/Land_Rover_Range_Rover_Sport
p370
sS'Tata Safari'
p371
Vhttps://www.cardekho.com/carmodels/Tata/Tata_Safari_Storme
p372
sS'Fiat Punto EVO'
p373
Vhttps://www.cardekho.com/carmodels/Fiat/Fiat_Punto_EVO
p374
sS'Maruti Ciaz'
p375
Vhttps://www.cardekho.com/carmodels/Maruti/Maruti_Ciaz
p376
sS'Ferrari 488'
p377
Vhttps://www.cardekho.com/carmodels/Ferrari/Ferrari_488_GTB
p378
sS'Mahindra Verito'
p379
Vhttps://www.cardekho.com/carmodels/Mahindra/Mahindra_Verito
p380
sS'Mahindra NuvoSport'
p381
Vhttps://www.cardekho.com/carmodels/Mahindra/Mahindra_NuvoSport
p382
sS'Maruti Alto 800'
p383
Vhttps://www.cardekho.com/carmodels/Maruti/Maruti_Alto_800
p384
sS'Land Rover Discovery Sport'
p385
Vhttps://www.cardekho.com/carmodels/Land_Rover/Land_Rover_Discovery_Sport
p386
sS'Land Rover Discovery 4'
p387
Vhttps://www.cardekho.com/carmodels/Land_Rover/Land_Rover_Discovery_4
p388
sS'Audi A3'
p389
Vhttps://www.cardekho.com/carmodels/Audi/Audi_A3
p390
sS'Audi S5'
p391
Vhttps://www.cardekho.com/carmodels/Audi/Audi_S5
p392
sS'Tata Nano'
p393
Vhttps://www.cardekho.com/carmodels/Tata/Tata_Nano
p394
sS'Isuzu MU 7'
p395
Vhttps://www.cardekho.com/carmodels/Isuzu/Isuzu_MU_7
p396
sS'Maruti Celerio'
p397
Vhttps://www.cardekho.com/carmodels/Maruti/Maruti_Celerio
p398
sS'Mahindra Xylo'
p399
Vhttps://www.cardekho.com/carmodels/Mahindra/Mahindra_Xylo
p400
sS'Mahindra e2o'
p401
Vhttps://www.cardekho.com/carmodels/Mahindra/Mahindra_e2o
p402
sS'Hyundai Elite i20'
p403
Vhttps://www.cardekho.com/carmodels/Hyundai/Hyundai_i20
p404
sS'Datsun GO'
p405
Vhttps://www.cardekho.com/carmodels/Datsun/Datsun_GO_Plus
p406
sS'Toyota Land Cruiser Prado'
p407
Vhttps://www.cardekho.com/carmodels/Toyota/Toyota_Land_Cruiser_Prado
p408
sS'Honda BRV'
p409
Vhttps://www.cardekho.com/carmodels/Honda/Honda_BR-V
p410
sS'Maserati Gran Cabrio'
p411
Vhttps://www.cardekho.com/carmodels/Maserati/Maserati_Gran_Cabrio
p412
sS'Jaguar XJ'
p413
Vhttps://www.cardekho.com/carmodels/Jaguar/Jaguar_XJ
p414
sS'Volvo S80'
p415
Vhttps://www.cardekho.com/carmodels/Volvo/Volvo_S_80
p416
sS'Jeep Grand Cherokee'
p417
S'https://www.cardekho.com/jeep/grand-cherokee'
p418
sS'Hyundai EON'
p419
Vhttps://www.cardekho.com/carmodels/Hyundai/Hyundai_EON
p420
sS'Jaguar F-Type'
p421
Vhttps://www.cardekho.com/carmodels/Jaguar/Jaguar_F_Type
p422
sS'Audi A8'
p423
Vhttps://www.cardekho.com/carmodels/Audi/Audi_A8
p424
sS'Honda City'
p425
Vhttps://www.cardekho.com/carmodels/Honda/Honda_City
p426
sS'Maruti Swift'
p427
Vhttps://www.cardekho.com/carmodels/Maruti/Maruti_Swift
p428
sS'Maserati Gran Turismo'
p429
Vhttps://www.cardekho.com/carmodels/Maserati/Maserati_Gran_Turismo
p430
sS'Aston Martin Vanquish'
p431
Vhttps://www.cardekho.com/carmodels/Aston_Martin/Aston_Martin_Vanquish
p432
s.