(lp0
S'Fiat Avventura Urban Cross'
p1
aS'Jeep Grand Cherokee'
p2
aS'Jeep Wrangler Unlimited'
p3
aS'Mahindra E Verito'
p4
aS'Mercedes-Benz CLA'
p5
aS'Mercedes-Benz CLS'
p6
aS'Mercedes-Benz GLA 45 AMG'
p7
aS'Mercedes-Benz GLC'
p8
aS'Mercedes-Benz GLE'
p9
aS'Mercedes-Benz GLS'
p10
aS'Mercedes-Benz SLC'
p11
aS'Rolls-Royce Dawn'
p12
aS'Isuzu D-Max V-Cross'
p13
aS'Aston Martin DB11'
p14
aS'Hyundai Creta'
p15
a.