(dp0
S'Mercedes-Benz A-Class'
p1
Vhttps://www.cardekho.com/carmodels/Mercedes-Benz/Mercedes-Benz_A_Class
p2
sS'Hyundai i20 Active'
p3
Vhttps://www.cardekho.com/carmodels/Hyundai/Hyundai_i20_Active
p4
sS'Fiat 500'
p5
Vhttps://www.cardekho.com/carmodels/Fiat/Fiat_500
p6
sS'BMW M Series'
p7
Vhttps://www.cardekho.com/carmodels/BMW/BMW_M_Series
p8
sS'Honda Brio'
p9
Vhttps://www.cardekho.com/carmodels/Honda/Honda_Brio
p10
sS'Renault Scala'
p11
Vhttps://www.cardekho.com/carmodels/Renault/Renault_Scala
p12
sS'Renault Pulse'
p13
Vhttps://www.cardekho.com/carmodels/Renault/Renault_Pulse
p14
sS'Hyundai Elantra'
p15
Vhttps://www.cardekho.com/carmodels/Hyundai/Hyundai_Elantra
p16
sS'Honda CR-V'
p17
Vhttps://www.cardekho.com/carmodels/Honda/Honda_CR-V
p18
sS'Toyota Innova'
p19
Vhttps://www.cardekho.com/carmodels/Toyota/Toyota_Innova
p20
sS'Mercedes-Benz M-Class'
p21
Vhttps://www.cardekho.com/carmodels/Mercedes-Benz/Mercedes-Benz_M-Class
p22
sS'Mahindra KUV100'
p23
Vhttps://www.cardekho.com/carmodels/Mahindra/Mahindra_KUV_100
p24
sS'Tata Tiago'
p25
Vhttps://www.cardekho.com/carmodels/Tata/Tata_Tiago
p26
sS'Lamborghini Huracan'
p27
Vhttps://www.cardekho.com/carmodels/Lamborghini/Lamborghini_Huracan
p28
sS'Bugatti Veyron'
p29
Vhttps://www.cardekho.com/carmodels/Bugatti/Bugatti_Veyron
p30
sS'Mercedes-Benz G-Class'
p31
Vhttps://www.cardekho.com/carmodels/Mercedes-Benz/Mercedes-Benz_G_Class
p32
sS'Nissan Sunny'
p33
Vhttps://www.cardekho.com/carmodels/Nissan/Nissan_Sunny
p34
sS'BMW i8'
p35
Vhttps://www.cardekho.com/carmodels/BMW/BMW_i8
p36
sS'BMW 3 Series'
p37
Vhttps://www.cardekho.com/carmodels/BMW/BMW_3_Series
p38
sS'Volvo S60 Cross Country'
p39
Vhttps://www.cardekho.com/carmodels/Volvo/Volvo_S60_Cross_Country
p40
sS'Mahindra XUV500'
p41
Vhttps://www.cardekho.com/carmodels/Mahindra/Mahindra_XUV500
p42
sS'Renault KWID'
p43
Vhttps://www.cardekho.com/carmodels/Renault/Renault_KWID
p44
sS'Force Gurkha'
p45
Vhttps://www.cardekho.com/carmodels/Force/Force_Gurkha
p46
sS'Ford Aspire'
p47
Vhttps://www.cardekho.com/carmodels/Ford/Ford_Figo_Aspire
p48
sS'Chevrolet Enjoy'
p49
Vhttps://www.cardekho.com/carmodels/Chevrolet/Chevrolet_Enjoy
p50
sS'Maruti Alto 800'
p51
Vhttps://www.cardekho.com/carmodels/Maruti/Maruti_Alto_800
p52
sS'BMW 1 Series'
p53
Vhttps://www.cardekho.com/carmodels/BMW/BMW_1_Series
p54
sS'Mini 3 DOOR'
p55
Vhttps://www.cardekho.com/carmodels/Mini/Mini_3_DOOR
p56
sS'Maruti Wagon R'
p57
Vhttps://www.cardekho.com/carmodels/Maruti/Maruti_Wagon_R
p58
sS'Maruti Ritz'
p59
Vhttps://www.cardekho.com/carmodels/Maruti/Maruti_Ritz
p60
sS'Mini 5 DOOR'
p61
Vhttps://www.cardekho.com/carmodels/Mini/Mini_5_DOOR
p62
sS'Audi Q5'
p63
Vhttps://www.cardekho.com/carmodels/Audi/Audi_Q5
p64
sS'Audi Q7'
p65
Vhttps://www.cardekho.com/carmodels/Audi/Audi_Q7
p66
sS'Ford Figo'
p67
Vhttps://www.cardekho.com/carmodels/Ford/Ford_Figo
p68
sS'Datsun Redi GO'
p69
Vhttps://www.cardekho.com/carmodels/Datsun/Datsun_RediGO
p70
sS'Ferrari 458 Speciale'
p71
Vhttps://www.cardekho.com/carmodels/Ferrari/Ferrari_458_Speciale
p72
sS'Volvo S60'
p73
Vhttps://www.cardekho.com/carmodels/Volvo/Volvo_S60
p74
sS'Maruti Swift Dzire'
p75
Vhttps://www.cardekho.com/carmodels/Maruti/Maruti_Swift_Dzire
p76
sS'Toyota Corolla Altis'
p77
Vhttps://www.cardekho.com/carmodels/Toyota/Toyota_Corolla_Altis
p78
sS'Mahindra TUV 300'
p79
Vhttps://www.cardekho.com/carmodels/Mahindra/Mahindra_TUV_300
p80
sS'Hyundai Santa Fe'
p81
Vhttps://www.cardekho.com/carmodels/Hyundai/Hyundai_Santa_Fe
p82
sS'Mercedes-Benz E-Class'
p83
Vhttps://www.cardekho.com/carmodels/Mercedes-Benz/Mercedes-Benz_E-Class
p84
sS'Aston Martin Vantage'
p85
Vhttps://www.cardekho.com/carmodels/Aston_Martin/Aston_Martin_Vantage
p86
sS'Ford Mustang'
p87
Vhttps://www.cardekho.com/carmodels/Ford/Ford_Mustang
p88
sS'Toyota Innova Crysta'
p89
Vhttps://www.cardekho.com/carmodels/Toyota/Toyota_Innova_Crysta
p90
sS'Tata Aria'
p91
Vhttps://www.cardekho.com/carmodels/Tata/Tata_Aria
p92
sS'Ford Endeavour'
p93
Vhttps://www.cardekho.com/carmodels/Ford/Ford_Endeavour
p94
sS'Skoda Superb'
p95
Vhttps://www.cardekho.com/carmodels/Skoda/Skoda_Superb
p96
sS'Nissan Micra'
p97
Vhttps://www.cardekho.com/carmodels/Nissan/Nissan_Micra
p98
sS'Maruti Baleno'
p99
Vhttps://www.cardekho.com/carmodels/Maruti/Maruti_Baleno
p100
sS'Toyota Land Cruiser'
p101
Vhttps://www.cardekho.com/carmodels/Toyota/Toyota_Land_Cruiser
p102
sS'Rolls-Royce Wraith'
p103
Vhttps://www.cardekho.com/carmodels/Rolls-Royce/Rolls-Royce_Wraith
p104
sS'Toyota Prius'
p105
Vhttps://www.cardekho.com/carmodels/Toyota/Toyota_Prius
p106
sS'Nissan Micra Active'
p107
Vhttps://www.cardekho.com/carmodels/Nissan/Nissan_Micra_Active
p108
sS'Porsche Cayman'
p109
Vhttps://www.cardekho.com/carmodels/Porsche/Porsche_Cayman
p110
sS'Tata Indica eV2'
p111
Vhttps://www.cardekho.com/carmodels/Tata/Tata_Indica_V2
p112
sS'Mercedes-Benz GLA Class'
p113
Vhttps://www.cardekho.com/carmodels/Mercedes-Benz/Mercedes-Benz_GLA_Class
p114
sS'Chevrolet Spark'
p115
Vhttps://www.cardekho.com/carmodels/Chevrolet/Chevrolet_Spark
p116
sS'Hyundai i10'
p117
Vhttps://www.cardekho.com/carmodels/Hyundai/Hyundai_i10
p118
sS'Tata Indigo eCS'
p119
Vhttps://www.cardekho.com/carmodels/Tata/Tata_Indigo_CS
p120
sS'Fiat Linea Classic'
p121
Vhttps://www.cardekho.com/carmodels/Fiat/Fiat_Linea_Classic
p122
sS'Fiat Avventura'
p123
Vhttps://www.cardekho.com/carmodels/Fiat/Fiat_Avventura
p124
sS'Fiat Linea'
p125
Vhttps://www.cardekho.com/carmodels/Fiat/Fiat_Linea
p126
sS'Ferrari F12berlinetta'
p127
Vhttps://www.cardekho.com/carmodels/Ferrari/Ferrari_F12berlinetta
p128
sS'Toyota Etios Cross'
p129
Vhttps://www.cardekho.com/carmodels/Toyota/Toyota_Etios_Cross
p130
sS'Audi A4'
p131
Vhttps://www.cardekho.com/carmodels/Audi/Audi_A4
p132
sS'Audi A6'
p133
Vhttps://www.cardekho.com/carmodels/Audi/Audi_A6
p134
sS'Bentley Flying Spur'
p135
Vhttps://www.cardekho.com/carmodels/Bentley/Bentley_Flying_Spur
p136
sS'Volvo V40'
p137
Vhttps://www.cardekho.com/carmodels/Volvo/Volvo_V40
p138
sS'Lamborghini Aventador'
p139
Vhttps://www.cardekho.com/carmodels/Lamborghini/Lamborghini_Aventador
p140
sS'Premier Rio'
p141
Vhttps://www.cardekho.com/carmodels/Premier/Premier_Rio
p142
sS'BMW 6 Series'
p143
Vhttps://www.cardekho.com/carmodels/BMW/BMW_6_Series
p144
sS'Mercedes-Benz AMG GT'
p145
Vhttps://www.cardekho.com/carmodels/Mercedes-Benz/Mercedes-Benz_AMG_GT
p146
sS'Nissan Terrano'
p147
Vhttps://www.cardekho.com/carmodels/Nissan/Nissan_Terrano
p148
sS'Maserati Ghibli'
p149
Vhttps://www.cardekho.com/carmodels/Maserati/Maserati_Ghibli
p150
sS'Rolls-Royce Ghost'
p151
Vhttps://www.cardekho.com/carmodels/Rolls-Royce/Rolls-Royce_Ghost
p152
sS'Porsche Cayenne'
p153
Vhttps://www.cardekho.com/carmodels/Porsche/Porsche_Cayenne
p154
sS'Mahindra Quanto'
p155
Vhttps://www.cardekho.com/carmodels/Mahindra/Mahindra_Quanto
p156
sS'Audi A3 cabriolet'
p157
Vhttps://www.cardekho.com/carmodels/Audi/Audi_A3_cabriolet
p158
sS'Mahindra Thar'
p159
Vhttps://www.cardekho.com/carmodels/Mahindra/Mahindra_Thar
p160
sS'Mahindra Scorpio'
p161
Vhttps://www.cardekho.com/carmodels/Mahindra/Mahindra_Scorpio
p162
sS'Chevrolet Sail Hatchback'
p163
Vhttps://www.cardekho.com/carmodels/Chevrolet/Chevrolet_Sail_Hatchback
p164
sS'DC Avanti'
p165
Vhttps://www.cardekho.com/carmodels/DC/DC_Avanti
p166
sS'Audi R8'
p167
Vhttps://www.cardekho.com/carmodels/Audi/Audi_R8
p168
sS'Volvo V40 Cross Country'
p169
Vhttps://www.cardekho.com/carmodels/Volvo/Volvo_V40_Cross_Country
p170
sS'Chevrolet Trailblazer'
p171
Vhttps://www.cardekho.com/carmodels/Chevrolet/Chevrolet_Trailblazer
p172
sS'Mitsubishi Pajero Sport'
p173
Vhttps://www.cardekho.com/carmodels/Mitsubishi/Mitsubishi_Pajero
p174
sS'Honda Jazz'
p175
Vhttps://www.cardekho.com/carmodels/Honda/Honda_Jazz
p176
sS'Maserati Quattroporte'
p177
Vhttps://www.cardekho.com/carmodels/Maserati/Maserati_Quattroporte
p178
sS'Mercedes-Benz B-Class'
p179
Vhttps://www.cardekho.com/carmodels/Mercedes-Benz/Mercedes-Benz_B_Class
p180
sS'Mercedes-Benz C-Class'
p181
Vhttps://www.cardekho.com/carmodels/Mercedes-Benz/Mercedes-Benz_New_C-Class
p182
sS'Honda Mobilio'
p183
Vhttps://www.cardekho.com/carmodels/Honda/Honda_Mobilio
p184
sS'Ferrari FF'
p185
Vhttps://www.cardekho.com/carmodels/Ferrari/Ferrari_FF
p186
sS'Mahindra Verito Vibe'
p187
Vhttps://www.cardekho.com/carmodels/Mahindra/Mahindra_Verito_Vibe
p188
sS'Jaguar XF'
p189
Vhttps://www.cardekho.com/carmodels/Jaguar/Jaguar_XF
p190
sS'Jaguar XE'
p191
Vhttps://www.cardekho.com/carmodels/Jaguar/Jaguar_XE
p192
sS'Honda Amaze'
p193
Vhttps://www.cardekho.com/carmodels/Honda/Honda_Amaze
p194
sS'Tata Safari Storme'
p195
Vhttps://www.cardekho.com/carmodels/Tata/Tata_Safari_Storme
p196
sS'Volkswagen Vento'
p197
Vhttps://www.cardekho.com/carmodels/Volkswagen/Volkswagen_Vento
p198
sS'Jaguar XJ'
p199
Vhttps://www.cardekho.com/carmodels/Jaguar/Jaguar_XJ
p200
sS'Audi Q3'
p201
Vhttps://www.cardekho.com/carmodels/Audi/Audi_Q3
p202
sS'Tata Zest'
p203
Vhttps://www.cardekho.com/carmodels/Tata/Tata_Zest
p204
sS'Aston Martin Rapide'
p205
Vhttps://www.cardekho.com/carmodels/Aston_Martin/Aston_Martin_Rapide
p206
sS'Maruti Vitara Brezza'
p207
Vhttps://www.cardekho.com/carmodels/Maruti/Maruti_Vitara_Brezza
p208
sS'Fiat Punto Pure'
p209
Vhttps://www.cardekho.com/carmodels/Fiat/Fiat_Punto_Pure
p210
sS'Datsun GO Plus'
p211
Vhttps://www.cardekho.com/carmodels/Datsun/Datsun_GO_Plus
p212
sS'Rolls-Royce Phantom'
p213
Vhttps://www.cardekho.com/carmodels/Rolls-Royce/Rolls-Royce_Phantom
p214
sS'Mini Cooper Convertible'
p215
Vhttps://www.cardekho.com/carmodels/Mini/Mini_Cooper_Convertible
p216
sS'BMW 5 Series'
p217
Vhttps://www.cardekho.com/carmodels/BMW/BMW_5_Series
p218
sS'Toyota Platinum Etios'
p219
Vhttps://www.cardekho.com/carmodels/Toyota/Toyota_Etios
p220
sS'Hyundai Grand i10'
p221
Vhttps://www.cardekho.com/carmodels/Hyundai/Hyundai_Grand_i10
p222
sS'Force One SUV'
p223
Vhttps://www.cardekho.com/carmodels/Force/Force_One
p224
sS'Hyundai Verna'
p225
Vhttps://www.cardekho.com/carmodels/Hyundai/Hyundai_Verna
p226
sS'Ford EcoSport'
p227
Vhttps://www.cardekho.com/carmodels/Ford/Ford_Ecosport
p228
sS'Tata Bolt'
p229
Vhttps://www.cardekho.com/carmodels/Tata/Tata_Bolt
p230
sS'BMW X3'
p231
Vhttps://www.cardekho.com/carmodels/BMW/BMW_X3
p232
sS'BMW Z4'
p233
Vhttps://www.cardekho.com/carmodels/BMW/BMW_Z4
p234
sS'Volvo XC60'
p235
Vhttps://www.cardekho.com/carmodels/Volvo/Volvo_XC60
p236
sS'Porsche Macan'
p237
Vhttps://www.cardekho.com/carmodels/Porsche/Porsche_Macan
p238
sS'Skoda Yeti'
p239
Vhttps://www.cardekho.com/carmodels/Skoda/Skoda_Yeti
p240
sS'Tata Xenon XT'
p241
Vhttps://www.cardekho.com/carmodels/Tata/Tata_Xenon_XT
p242
sS'BMW 7 Series'
p243
Vhttps://www.cardekho.com/carmodels/BMW/BMW_7_Series
p244
sS'Maruti Ertiga'
p245
Vhttps://www.cardekho.com/carmodels/Maruti/Maruti_Ertiga
p246
sS'Maruti Wagon R Stingray'
p247
Vhttps://www.cardekho.com/carmodels/Maruti/Maruti_Wagon_R_Stingray
p248
sS'Fiat Abarth Avventura'
p249
Vhttps://www.cardekho.com/carmodels/Fiat/Fiat_Abarth_Avventura
p250
sS'Maruti S-Cross'
p251
Vhttps://www.cardekho.com/carmodels/Maruti/Maruti_SX4_S_Cross
p252
sS'Maruti Alto K10'
p253
Vhttps://www.cardekho.com/carmodels/Maruti/Maruti_Alto_K10
p254
sS'Tata Sumo'
p255
Vhttps://www.cardekho.com/carmodels/Tata/Tata_Sumo
p256
sS'Land Rover Range Rover'
p257
Vhttps://www.cardekho.com/carmodels/Land_Rover/Land_Rover_Range_Rover_Evoque
p258
sS'Audi RS6 Avant'
p259
Vhttps://www.cardekho.com/carmodels/Audi/Audi_RS6
p260
sS'Toyota Fortuner'
p261
Vhttps://www.cardekho.com/carmodels/Toyota/Toyota_Fortuner
p262
sS'ICML Extreme'
p263
Vhttps://www.cardekho.com/carmodels/ICML/ICML_Extreme
p264
sS'Mercedes-Benz GL-Class'
p265
Vhttps://www.cardekho.com/carmodels/Mercedes-Benz/Mercedes-Benz_GL-Class
p266
sS'Land Rover Range Rover Evoque'
p267
Vhttps://www.cardekho.com/carmodels/Land_Rover/Land_Rover_Range_Rover_Evoque
p268
sS'Maruti Gypsy'
p269
Vhttps://www.cardekho.com/carmodels/Maruti/Maruti_Gypsy
p270
sS'Mercedes-Benz S-Class'
p271
Vhttps://www.cardekho.com/carmodels/Mercedes-Benz/Mercedes-Benz_S-Class
p272
sS'Renault Lodgy'
p273
Vhttps://www.cardekho.com/carmodels/Renault/Renault_Lodgy
p274
sS'Mahindra Supro'
p275
Vhttps://www.cardekho.com/carmodels/Mahindra/Mahindra_Supro
p276
sS'Conquest Evade'
p277
Vhttps://www.cardekho.com/carmodels/Conquest/Conquest_Evade
p278
sS'Volkswagen Ameo'
p279
Vhttps://www.cardekho.com/carmodels/Volkswagen/Volkswagen_Ameo
p280
sS'Renault Duster'
p281
Vhttps://www.cardekho.com/carmodels/Renault/Renault_Duster
p282
sS'Chevrolet Sail'
p283
Vhttps://www.cardekho.com/carmodels/Chevrolet/Chevrolet_Sail
p284
sS'Volkswagen Beetle'
p285
Vhttps://www.cardekho.com/carmodels/Volkswagen/Volkswagen_Beetle
p286
sS'Audi TT'
p287
Vhttps://www.cardekho.com/carmodels/Audi/Audi_TT
p288
sS'Porsche Boxster'
p289
Vhttps://www.cardekho.com/carmodels/Porsche/Porsche_Boxster
p290
sS'Audi RS7'
p291
Vhttps://www.cardekho.com/carmodels/Audi/Audi_RS7
p292
sS'Porsche 911'
p293
Vhttps://www.cardekho.com/carmodels/Porsche/Porsche_911
p294
sS'Volkswagen CrossPolo'
p295
Vhttps://www.cardekho.com/carmodels/Volkswagen/Volkswagen_CrossPolo
p296
sS'Toyota Camry'
p297
Vhttps://www.cardekho.com/carmodels/Toyota/Toyota_Camry
p298
sS'Mini Countryman'
p299
Vhttps://www.cardekho.com/carmodels/Mini/Mini_Cooper_Countryman
p300
sS'Hyundai Xcent'
p301
Vhttps://www.cardekho.com/carmodels/Hyundai/Hyundai_Xcent
p302
sS'Volvo XC90'
p303
Vhttps://www.cardekho.com/carmodels/Volvo/Volvo_XC_90
p304
sS'Skoda Octavia'
p305
Vhttps://www.cardekho.com/carmodels/Skoda/Skoda_Octavia
p306
sS'Chevrolet Beat'
p307
Vhttps://www.cardekho.com/carmodels/Chevrolet/Chevrolet_Beat
p308
sS'Maruti Eeco'
p309
Vhttps://www.cardekho.com/carmodels/Maruti/Maruti_Eeco
p310
sS'Mahindra Ssangyong Rexton'
p311
Vhttps://www.cardekho.com/carmodels/Mahindra_Ssangyong/Mahindra_Ssangyong_Rexton
p312
sS'Bentley Mulsanne'
p313
Vhttps://www.cardekho.com/carmodels/Bentley/Bentley_Mulsanne
p314
sS'Toyota Etios Liva'
p315
Vhttps://www.cardekho.com/carmodels/Toyota/Toyota_Etios_Liva
p316
sS'Volkswagen Polo'
p317
Vhttps://www.cardekho.com/carmodels/Volkswagen/Volkswagen_Polo
p318
sS'Maruti Omni'
p319
Vhttps://www.cardekho.com/carmodels/Maruti/Maruti_Omni
p320
sS'Mahindra Bolero'
p321
Vhttps://www.cardekho.com/carmodels/Mahindra/Mahindra_Bolero
p322
sS'Volkswagen Jetta'
p323
Vhttps://www.cardekho.com/carmodels/Volkswagen/Volkswagen_Jetta
p324
sS'Porsche Panamera'
p325
Vhttps://www.cardekho.com/carmodels/Porsche/Porsche_Panamera
p326
sS'Tata Nano'
p327
Vhttps://www.cardekho.com/carmodels/Tata/Tata_Nano
p328
sS'Skoda Rapid'
p329
Vhttps://www.cardekho.com/carmodels/Skoda/Skoda_Rapid
p330
sS'Chevrolet Cruze'
p331
Vhttps://www.cardekho.com/carmodels/Chevrolet/Chevrolet_Cruze
p332
sS'BMW X5'
p333
Vhttps://www.cardekho.com/carmodels/BMW/BMW_X5
p334
sS'BMW X6'
p335
Vhttps://www.cardekho.com/carmodels/BMW/BMW_X6
p336
sS'BMW X1'
p337
Vhttps://www.cardekho.com/carmodels/BMW/BMW_X1
p338
sS'Fiat Abarth Punto'
p339
Vhttps://www.cardekho.com/carmodels/Fiat/Fiat_Punto_Abarth
p340
sS'Chevrolet Tavera'
p341
Vhttps://www.cardekho.com/carmodels/Chevrolet/Chevrolet_Tavera
p342
sS'Land Rover Range Rover Sport'
p343
Vhttps://www.cardekho.com/carmodels/Land_Rover/Land_Rover_Range_Rover_Sport
p344
sS'Tata Safari'
p345
Vhttps://www.cardekho.com/carmodels/Tata/Tata_Safari_Storme
p346
sS'Fiat Punto EVO'
p347
Vhttps://www.cardekho.com/carmodels/Fiat/Fiat_Punto_EVO
p348
sS'Maruti Ciaz'
p349
Vhttps://www.cardekho.com/carmodels/Maruti/Maruti_Ciaz
p350
sS'Ferrari 488'
p351
Vhttps://www.cardekho.com/carmodels/Ferrari/Ferrari_488_GTB
p352
sS'Mahindra Verito'
p353
Vhttps://www.cardekho.com/carmodels/Mahindra/Mahindra_Verito
p354
sS'Mahindra NuvoSport'
p355
Vhttps://www.cardekho.com/carmodels/Mahindra/Mahindra_NuvoSport
p356
sS'Ferrari California T'
p357
Vhttps://www.cardekho.com/carmodels/Ferrari/Ferrari_California
p358
sS'Land Rover Discovery Sport'
p359
Vhttps://www.cardekho.com/carmodels/Land_Rover/Land_Rover_Discovery_Sport
p360
sS'Land Rover Discovery 4'
p361
Vhttps://www.cardekho.com/carmodels/Land_Rover/Land_Rover_Discovery_4
p362
sS'Audi A3'
p363
Vhttps://www.cardekho.com/carmodels/Audi/Audi_A3
p364
sS'Audi S5'
p365
Vhttps://www.cardekho.com/carmodels/Audi/Audi_S5
p366
sS'Isuzu MU 7'
p367
Vhttps://www.cardekho.com/carmodels/Isuzu/Isuzu_MU_7
p368
sS'Maruti Celerio'
p369
Vhttps://www.cardekho.com/carmodels/Maruti/Maruti_Celerio
p370
sS'Mahindra Xylo'
p371
Vhttps://www.cardekho.com/carmodels/Mahindra/Mahindra_Xylo
p372
sS'Mahindra e2o'
p373
Vhttps://www.cardekho.com/carmodels/Mahindra/Mahindra_e2o
p374
sS'Hyundai Elite i20'
p375
Vhttps://www.cardekho.com/carmodels/Hyundai/Hyundai_i20
p376
sS'Datsun GO'
p377
Vhttps://www.cardekho.com/carmodels/Datsun/Datsun_GO_Plus
p378
sS'Toyota Land Cruiser Prado'
p379
Vhttps://www.cardekho.com/carmodels/Toyota/Toyota_Land_Cruiser_Prado
p380
sS'Honda BRV'
p381
Vhttps://www.cardekho.com/carmodels/Honda/Honda_BR-V
p382
sS'Maserati Gran Cabrio'
p383
Vhttps://www.cardekho.com/carmodels/Maserati/Maserati_Gran_Cabrio
p384
sS'Bentley Continental'
p385
Vhttps://www.cardekho.com/carmodels/Bentley/Bentley_Continental
p386
sS'Volvo S80'
p387
Vhttps://www.cardekho.com/carmodels/Volvo/Volvo_S_80
p388
sS'Hyundai EON'
p389
Vhttps://www.cardekho.com/carmodels/Hyundai/Hyundai_EON
p390
sS'Jaguar F-Type'
p391
Vhttps://www.cardekho.com/carmodels/Jaguar/Jaguar_F_Type
p392
sS'Audi A8'
p393
Vhttps://www.cardekho.com/carmodels/Audi/Audi_A8
p394
sS'Honda City'
p395
Vhttps://www.cardekho.com/carmodels/Honda/Honda_City
p396
sS'Maruti Swift'
p397
Vhttps://www.cardekho.com/carmodels/Maruti/Maruti_Swift
p398
sS'Maserati Gran Turismo'
p399
Vhttps://www.cardekho.com/carmodels/Maserati/Maserati_Gran_Turismo
p400
sS'Aston Martin Vanquish'
p401
Vhttps://www.cardekho.com/carmodels/Aston_Martin/Aston_Martin_Vanquish
p402
s.