(lp0
(dp1
S'Mercedes-Benz A-Class'
p2
S'https://www.cardekho.com/carmodels/Mercedes-Benz/Mercedes-Benz_A_Class'
p3
sS'Hyundai i20 Active'
p4
S'https://www.cardekho.com/carmodels/Hyundai/Hyundai_i20_Active'
p5
sS'Mahindra E Verito'
p6
S'https://www.cardekho.com/mahindra/e-verito'
p7
sS'Fiat 500'
p8
S'https://www.cardekho.com/carmodels/Fiat/Fiat_500'
p9
sS'BMW M Series'
p10
S'https://www.cardekho.com/carmodels/BMW/BMW_M_Series'
p11
sS'Honda Brio'
p12
S'https://www.cardekho.com/carmodels/Honda/Honda_Brio'
p13
sS'Renault Scala'
p14
S'https://www.cardekho.com/carmodels/Renault/Renault_Scala'
p15
sS'Renault Pulse'
p16
S'https://www.cardekho.com/carmodels/Renault/Renault_Pulse'
p17
sS'Hyundai Elantra'
p18
S'https://www.cardekho.com/carmodels/Hyundai/Hyundai_Elantra'
p19
sS'Premier Rio'
p20
S'https://www.cardekho.com/carmodels/Premier/Premier_Rio'
p21
sS'Mercedes-Benz M-Class'
p22
S'https://www.cardekho.com/carmodels/Mercedes-Benz/Mercedes-Benz_M-Class'
p23
sS'Mahindra KUV100'
p24
S'https://www.cardekho.com/carmodels/Mahindra/Mahindra_KUV_100'
p25
sS'Tata Tiago'
p26
S'https://www.cardekho.com/carmodels/Tata/Tata_Tiago'
p27
sS'Lamborghini Huracan'
p28
S'https://www.cardekho.com/carmodels/Lamborghini/Lamborghini_Huracan'
p29
sS'Bugatti Veyron'
p30
S'https://www.cardekho.com/carmodels/Bugatti/Bugatti_Veyron'
p31
sS'Mercedes-Benz G-Class'
p32
S'https://www.cardekho.com/carmodels/Mercedes-Benz/Mercedes-Benz_G_Class'
p33
sS'Nissan Sunny'
p34
S'https://www.cardekho.com/carmodels/Nissan/Nissan_Sunny'
p35
sS'BMW i8'
p36
S'https://www.cardekho.com/carmodels/BMW/BMW_i8'
p37
sS'BMW 3 Series'
p38
S'https://www.cardekho.com/carmodels/BMW/BMW_3_Series'
p39
sS'Volvo S60 Cross Country'
p40
S'https://www.cardekho.com/carmodels/Volvo/Volvo_S60_Cross_Country'
p41
sS'Volkswagen Beetle'
p42
S'https://www.cardekho.com/carmodels/Volkswagen/Volkswagen_Beetle'
p43
sS'Toyota Prius'
p44
S'https://www.cardekho.com/carmodels/Toyota/Toyota_Prius'
p45
sS'Renault KWID'
p46
S'https://www.cardekho.com/carmodels/Renault/Renault_KWID'
p47
sS'Force Gurkha'
p48
S'https://www.cardekho.com/carmodels/Force/Force_Gurkha'
p49
sS'Bentley Bentayga'
p50
S'https://www.cardekho.com/carmodels/Bentley/Bentley_Bentayga'
p51
sS'Mahindra Verito'
p52
S'https://www.cardekho.com/carmodels/Mahindra/Mahindra_Verito'
p53
sS'Maruti Alto 800'
p54
S'https://www.cardekho.com/carmodels/Maruti/Maruti_Alto_800'
p55
sS'BMW 1 Series'
p56
S'https://www.cardekho.com/carmodels/BMW/BMW_1_Series'
p57
sS'Rolls-Royce Phantom'
p58
S'https://www.cardekho.com/carmodels/Rolls-Royce/Rolls-Royce_Phantom'
p59
sS'Maruti Wagon R'
p60
S'https://www.cardekho.com/carmodels/Maruti/Maruti_Wagon_R'
p61
sS'Maruti Ritz'
p62
S'https://www.cardekho.com/carmodels/Maruti/Maruti_Ritz'
p63
sS'Mini 5 DOOR'
p64
S'https://www.cardekho.com/carmodels/Mini/Mini_5_DOOR'
p65
sS'Audi Q5'
p66
S'https://www.cardekho.com/carmodels/Audi/Audi_Q5'
p67
sS'Audi Q7'
p68
S'https://www.cardekho.com/carmodels/Audi/Audi_Q7'
p69
sS'Mahindra Quanto'
p70
S'https://www.cardekho.com/carmodels/Mahindra/Mahindra_Quanto'
p71
sS'Datsun Redi GO'
p72
S'https://www.cardekho.com/carmodels/Datsun/Datsun_RediGO'
p73
sS'Honda CR-V'
p74
S'https://www.cardekho.com/carmodels/Honda/Honda_CR-V'
p75
sS'Porsche Panamera'
p76
S'https://www.cardekho.com/carmodels/Porsche/Porsche_Panamera'
p77
sS'Volvo S60'
p78
S'https://www.cardekho.com/carmodels/Volvo/Volvo_S60'
p79
sS'Maruti Swift Dzire'
p80
S'https://www.cardekho.com/carmodels/Maruti/Maruti_Swift_Dzire'
p81
sS'Ferrari California T'
p82
S'https://www.cardekho.com/carmodels/Ferrari/Ferrari_California'
p83
sS'Toyota Corolla Altis'
p84
S'https://www.cardekho.com/carmodels/Toyota/Toyota_Corolla_Altis'
p85
sS'Mahindra TUV 300'
p86
S'https://www.cardekho.com/carmodels/Mahindra/Mahindra_TUV_300'
p87
sS'Aston Martin DB11'
p88
S'https://www.cardekho.com/aston-martin/db11'
p89
sS'Ferrari 488'
p90
S'https://www.cardekho.com/carmodels/Ferrari/Ferrari_488_GTB'
p91
sS'Mercedes-Benz E-Class'
p92
S'https://www.cardekho.com/carmodels/Mercedes-Benz/Mercedes-Benz_E-Class'
p93
sS'Aston Martin Vantage'
p94
S'https://www.cardekho.com/carmodels/Aston_Martin/Aston_Martin_Vantage'
p95
sS'Ford Mustang'
p96
S'https://www.cardekho.com/carmodels/Ford/Ford_Mustang'
p97
sS'Ferrari FF'
p98
S'https://www.cardekho.com/carmodels/Ferrari/Ferrari_FF'
p99
sS'Ford Aspire'
p100
S'https://www.cardekho.com/carmodels/Ford/Ford_Figo_Aspire'
p101
sS'Tata Aria'
p102
S'https://www.cardekho.com/carmodels/Tata/Tata_Aria'
p103
sS'Ford Endeavour'
p104
S'https://www.cardekho.com/carmodels/Ford/Ford_Endeavour'
p105
sS'Skoda Superb'
p106
S'https://www.cardekho.com/carmodels/Skoda/Skoda_Superb'
p107
sS'Nissan Micra'
p108
S'https://www.cardekho.com/carmodels/Nissan/Nissan_Micra'
p109
sS'Maruti Baleno'
p110
S'https://www.cardekho.com/carmodels/Maruti/Maruti_Baleno'
p111
sS'Toyota Land Cruiser'
p112
S'https://www.cardekho.com/carmodels/Toyota/Toyota_Land_Cruiser'
p113
sS'Rolls-Royce Wraith'
p114
S'https://www.cardekho.com/carmodels/Rolls-Royce/Rolls-Royce_Wraith'
p115
sS'Audi A8'
p116
S'https://www.cardekho.com/carmodels/Audi/Audi_A8'
p117
sS'Nissan Micra Active'
p118
S'https://www.cardekho.com/carmodels/Nissan/Nissan_Micra_Active'
p119
sS'Porsche Cayman'
p120
S'https://www.cardekho.com/carmodels/Porsche/Porsche_Cayman'
p121
sS'Tata Indica eV2'
p122
S'https://www.cardekho.com/carmodels/Tata/Tata_Indica_V2'
p123
sS'Mercedes-Benz GLA Class'
p124
S'https://www.cardekho.com/carmodels/Mercedes-Benz/Mercedes-Benz_GLA_Class'
p125
sS'Chevrolet Spark'
p126
S'https://www.cardekho.com/carmodels/Chevrolet/Chevrolet_Spark'
p127
sS'Tata Indigo eCS'
p128
S'https://www.cardekho.com/carmodels/Tata/Tata_Indigo_CS'
p129
sS'Fiat Linea Classic'
p130
S'https://www.cardekho.com/carmodels/Fiat/Fiat_Linea_Classic'
p131
sS'Fiat Avventura'
p132
S'https://www.cardekho.com/carmodels/Fiat/Fiat_Avventura'
p133
sS'Fiat Linea'
p134
S'https://www.cardekho.com/carmodels/Fiat/Fiat_Linea'
p135
sS'Ferrari F12berlinetta'
p136
S'https://www.cardekho.com/carmodels/Ferrari/Ferrari_F12berlinetta'
p137
sS'Toyota Etios Cross'
p138
S'https://www.cardekho.com/carmodels/Toyota/Toyota_Etios_Cross'
p139
sS'Audi A4'
p140
S'https://www.cardekho.com/carmodels/Audi/Audi_A4'
p141
sS'Audi A6'
p142
S'https://www.cardekho.com/carmodels/Audi/Audi_A6'
p143
sS'Bentley Flying Spur'
p144
S'https://www.cardekho.com/carmodels/Bentley/Bentley_Flying_Spur'
p145
sS'Volvo V40'
p146
S'https://www.cardekho.com/carmodels/Volvo/Volvo_V40'
p147
sS'Mercedes-Benz CLS'
p148
S'https://www.cardekho.com/carmodels/Mercedes-Benz/Mercedes-Benz_CLS-Class'
p149
sS'Lamborghini Aventador'
p150
S'https://www.cardekho.com/carmodels/Lamborghini/Lamborghini_Aventador'
p151
sS'Audi A3 cabriolet'
p152
S'https://www.cardekho.com/carmodels/Audi/Audi_A3_cabriolet'
p153
sS'Isuzu D-Max V-Cross'
p154
S'https://www.cardekho.com/isuzu/d-max-v-cross'
p155
sS'BMW 6 Series'
p156
S'https://www.cardekho.com/carmodels/BMW/BMW_6_Series'
p157
sS'Mercedes-Benz AMG GT'
p158
S'https://www.cardekho.com/carmodels/Mercedes-Benz/Mercedes-Benz_AMG_GT'
p159
sS'Nissan Terrano'
p160
S'https://www.cardekho.com/carmodels/Nissan/Nissan_Terrano'
p161
sS'Maserati Ghibli'
p162
S'https://www.cardekho.com/carmodels/Maserati/Maserati_Ghibli'
p163
sS'Rolls-Royce Ghost'
p164
S'https://www.cardekho.com/carmodels/Rolls-Royce/Rolls-Royce_Ghost'
p165
sS'Porsche Cayenne'
p166
S'https://www.cardekho.com/carmodels/Porsche/Porsche_Cayenne'
p167
sS'Ford Figo'
p168
S'https://www.cardekho.com/carmodels/Ford/Ford_Figo'
p169
sS'Mahindra Thar'
p170
S'https://www.cardekho.com/carmodels/Mahindra/Mahindra_Thar'
p171
sS'Jeep Wrangler Unlimited'
p172
S'https://www.cardekho.com/jeep/wrangler'
p173
sS'Hyundai Creta'
p174
S'https://www.cardekho.com/hyundai-cars/creta'
p175
sS'Mahindra Scorpio'
p176
S'https://www.cardekho.com/carmodels/Mahindra/Mahindra_Scorpio'
p177
sS'Chevrolet Sail Hatchback'
p178
S'https://www.cardekho.com/carmodels/Chevrolet/Chevrolet_Sail_Hatchback'
p179
sS'DC Avanti'
p180
S'https://www.cardekho.com/carmodels/DC/DC_Avanti'
p181
sS'Audi R8'
p182
S'https://www.cardekho.com/carmodels/Audi/Audi_R8'
p183
sS'Volvo V40 Cross Country'
p184
S'https://www.cardekho.com/carmodels/Volvo/Volvo_V40_Cross_Country'
p185
sS'Chevrolet Trailblazer'
p186
S'https://www.cardekho.com/carmodels/Chevrolet/Chevrolet_Trailblazer'
p187
sS'Mitsubishi Pajero Sport'
p188
S'https://www.cardekho.com/carmodels/Mitsubishi/Mitsubishi_Pajero'
p189
sS'Datsun GO Plus'
p190
S'https://www.cardekho.com/carmodels/Datsun/Datsun_GO_Plus'
p191
sS'Maserati Quattroporte'
p192
S'https://www.cardekho.com/carmodels/Maserati/Maserati_Quattroporte'
p193
sS'Mercedes-Benz B-Class'
p194
S'https://www.cardekho.com/carmodels/Mercedes-Benz/Mercedes-Benz_B_Class'
p195
sS'Mercedes-Benz C-Class'
p196
S'https://www.cardekho.com/carmodels/Mercedes-Benz/Mercedes-Benz_New_C-Class'
p197
sS'Honda Mobilio'
p198
S'https://www.cardekho.com/carmodels/Honda/Honda_Mobilio'
p199
sS'Audi TT'
p200
S'https://www.cardekho.com/carmodels/Audi/Audi_TT'
p201
sS'Maruti Eeco'
p202
S'https://www.cardekho.com/carmodels/Maruti/Maruti_Eeco'
p203
sS'Mahindra Verito Vibe'
p204
S'https://www.cardekho.com/carmodels/Mahindra/Mahindra_Verito_Vibe'
p205
sS'Skoda Rapid'
p206
S'https://www.cardekho.com/carmodels/Skoda/Skoda_Rapid'
p207
sS'Jaguar XE'
p208
S'https://www.cardekho.com/carmodels/Jaguar/Jaguar_XE'
p209
sS'Honda Amaze'
p210
S'https://www.cardekho.com/carmodels/Honda/Honda_Amaze'
p211
sS'Tata Safari Storme'
p212
S'https://www.cardekho.com/carmodels/Tata/Tata_Safari_Storme'
p213
sS'Volkswagen Vento'
p214
S'https://www.cardekho.com/carmodels/Volkswagen/Volkswagen_Vento'
p215
sS'Jaguar XJ'
p216
S'https://www.cardekho.com/carmodels/Jaguar/Jaguar_XJ'
p217
sS'Isuzu MU 7'
p218
S'https://www.cardekho.com/carmodels/Isuzu/Isuzu_MU_7'
p219
sS'Audi Q3'
p220
S'https://www.cardekho.com/carmodels/Audi/Audi_Q3'
p221
sS'Tata Zest'
p222
S'https://www.cardekho.com/carmodels/Tata/Tata_Zest'
p223
sS'Aston Martin Rapide'
p224
S'https://www.cardekho.com/carmodels/Aston_Martin/Aston_Martin_Rapide'
p225
sS'Maruti Vitara Brezza'
p226
S'https://www.cardekho.com/carmodels/Maruti/Maruti_Vitara_Brezza'
p227
sS'Fiat Punto Pure'
p228
S'https://www.cardekho.com/carmodels/Fiat/Fiat_Punto_Pure'
p229
sS'Honda Jazz'
p230
S'https://www.cardekho.com/carmodels/Honda/Honda_Jazz'
p231
sS'Mini 3 DOOR'
p232
S'https://www.cardekho.com/carmodels/Mini/Mini_3_DOOR'
p233
sS'Mini Cooper Convertible'
p234
S'https://www.cardekho.com/carmodels/Mini/Mini_Cooper_Convertible'
p235
sS'Volvo XC90'
p236
S'https://www.cardekho.com/carmodels/Volvo/Volvo_XC_90'
p237
sS'Toyota Platinum Etios'
p238
S'https://www.cardekho.com/carmodels/Toyota/Toyota_Etios'
p239
sS'Hyundai Grand i10'
p240
S'https://www.cardekho.com/carmodels/Hyundai/Hyundai_Grand_i10'
p241
sS'Force One SUV'
p242
S'https://www.cardekho.com/carmodels/Force/Force_One'
p243
sS'Hyundai Verna'
p244
S'https://www.cardekho.com/carmodels/Hyundai/Hyundai_Verna'
p245
sS'Tata Bolt'
p246
S'https://www.cardekho.com/carmodels/Tata/Tata_Bolt'
p247
sS'BMW X3'
p248
S'https://www.cardekho.com/carmodels/BMW/BMW_X3'
p249
sS'BMW Z4'
p250
S'https://www.cardekho.com/carmodels/BMW/BMW_Z4'
p251
sS'Volvo XC60'
p252
S'https://www.cardekho.com/carmodels/Volvo/Volvo_XC60'
p253
sS'Porsche Macan'
p254
S'https://www.cardekho.com/carmodels/Porsche/Porsche_Macan'
p255
sS'Skoda Yeti'
p256
S'https://www.cardekho.com/carmodels/Skoda/Skoda_Yeti'
p257
sS'Tata Xenon XT'
p258
S'https://www.cardekho.com/carmodels/Tata/Tata_Xenon_XT'
p259
sS'BMW 7 Series'
p260
S'https://www.cardekho.com/carmodels/BMW/BMW_7_Series'
p261
sS'Maruti Ertiga'
p262
S'https://www.cardekho.com/carmodels/Maruti/Maruti_Ertiga'
p263
sS'Maruti Wagon R Stingray'
p264
S'https://www.cardekho.com/carmodels/Maruti/Maruti_Wagon_R_Stingray'
p265
sS'Fiat Abarth Avventura'
p266
S'https://www.cardekho.com/carmodels/Fiat/Fiat_Abarth_Avventura'
p267
sS'Volkswagen Ameo'
p268
S'https://www.cardekho.com/carmodels/Volkswagen/Volkswagen_Ameo'
p269
sS'Maruti Alto K10'
p270
S'https://www.cardekho.com/carmodels/Maruti/Maruti_Alto_K10'
p271
sS'Tata Sumo'
p272
S'https://www.cardekho.com/carmodels/Tata/Tata_Sumo'
p273
sS'Land Rover Range Rover'
p274
S'https://www.cardekho.com/carmodels/Land_Rover/Land_Rover_Range_Rover'
p275
sS'Audi RS6 Avant'
p276
S'https://www.cardekho.com/carmodels/Audi/Audi_RS6'
p277
sS'ICML Extreme'
p278
S'https://www.cardekho.com/carmodels/ICML/ICML_Extreme'
p279
sS'Mercedes-Benz GL-Class'
p280
S'https://www.cardekho.com/carmodels/Mercedes-Benz/Mercedes-Benz_GL-Class'
p281
sS'Land Rover Range Rover Evoque'
p282
S'https://www.cardekho.com/carmodels/Land_Rover/Land_Rover_Range_Rover_Evoque'
p283
sS'Maruti Gypsy'
p284
S'https://www.cardekho.com/carmodels/Maruti/Maruti_Gypsy'
p285
sS'Mercedes-Benz S-Class'
p286
S'https://www.cardekho.com/carmodels/Mercedes-Benz/Mercedes-Benz_S-Class'
p287
sS'Renault Lodgy'
p288
S'https://www.cardekho.com/carmodels/Renault/Renault_Lodgy'
p289
sS'Toyota Innova Crysta'
p290
S'https://www.cardekho.com/carmodels/Toyota/Toyota_Innova_Crysta'
p291
sS'BMW 5 Series'
p292
S'https://www.cardekho.com/carmodels/BMW/BMW_5_Series'
p293
sS'Mahindra Supro'
p294
S'https://www.cardekho.com/carmodels/Mahindra/Mahindra_Supro'
p295
sS'Conquest Evade'
p296
S'https://www.cardekho.com/carmodels/Conquest/Conquest_Evade'
p297
sS'Fiat Avventura Urban Cross'
p298
S'https://www.cardekho.com/fiat/avventura-urban-cross'
p299
sS'Maruti S-Cross'
p300
S'https://www.cardekho.com/carmodels/Maruti/Maruti_SX4_S_Cross'
p301
sS'Renault Duster'
p302
S'https://www.cardekho.com/carmodels/Renault/Renault_Duster'
p303
sS'Chevrolet Sail'
p304
S'https://www.cardekho.com/carmodels/Chevrolet/Chevrolet_Sail'
p305
sS'Mahindra XUV500'
p306
S'https://www.cardekho.com/carmodels/Mahindra/Mahindra_XUV500'
p307
sS'Rolls-Royce Dawn'
p308
S'https://www.cardekho.com/rolls-royce/dawn'
p309
sS'Porsche Boxster'
p310
S'https://www.cardekho.com/carmodels/Porsche/Porsche_Boxster'
p311
sS'Audi RS7'
p312
S'https://www.cardekho.com/carmodels/Audi/Audi_RS7'
p313
sS'Porsche 911'
p314
S'https://www.cardekho.com/carmodels/Porsche/Porsche_911'
p315
sS'Volkswagen CrossPolo'
p316
S'https://www.cardekho.com/carmodels/Volkswagen/Volkswagen_CrossPolo'
p317
sS'Toyota Camry'
p318
S'https://www.cardekho.com/carmodels/Toyota/Toyota_Camry'
p319
sS'Mini Countryman'
p320
S'https://www.cardekho.com/carmodels/Mini/Mini_Cooper_Countryman'
p321
sS'Toyota Land Cruiser Prado'
p322
S'https://www.cardekho.com/carmodels/Toyota/Toyota_Land_Cruiser_Prado'
p323
sS'Toyota Innova'
p324
S'https://www.cardekho.com/carmodels/Toyota/Toyota_Innova'
p325
sS'Mahindra Bolero'
p326
S'https://www.cardekho.com/carmodels/Mahindra/Mahindra_Bolero'
p327
sS'New Toyota Fortuner'
p328
S'https://www.cardekho.com/carmodels/Toyota/Toyota_Fortuner'
p329
sS'Chevrolet Beat'
p330
S'https://www.cardekho.com/carmodels/Chevrolet/Chevrolet_Beat'
p331
sS'Mercedes-Benz GLS'
p332
S'https://www.cardekho.com/mercedes-benz/gls'
p333
sS'Mahindra Ssangyong Rexton'
p334
S'https://www.cardekho.com/carmodels/Mahindra_Ssangyong/Mahindra_Ssangyong_Rexton'
p335
sS'Mercedes-Benz GLA 45 AMG'
p336
S'https://www.cardekho.com/carmodels/Mercedes-Benz/Mercedes-Benz_GLA'
p337
sS'Bentley Mulsanne'
p338
S'https://www.cardekho.com/carmodels/Bentley/Bentley_Mulsanne'
p339
sS'Toyota Etios Liva'
p340
S'https://www.cardekho.com/carmodels/Toyota/Toyota_Etios_Liva'
p341
sS'Volkswagen Polo'
p342
S'https://www.cardekho.com/carmodels/Volkswagen/Volkswagen_Polo'
p343
sS'Maruti Omni'
p344
S'https://www.cardekho.com/carmodels/Maruti/Maruti_Omni'
p345
sS'Mercedes-Benz GLC'
p346
S'https://www.cardekho.com/mercedes-benz/glc-class'
p347
sS'Skoda Octavia'
p348
S'https://www.cardekho.com/carmodels/Skoda/Skoda_Octavia'
p349
sS'Mercedes-Benz GLE'
p350
S'https://www.cardekho.com/carmodels/Mercedes-Benz/Mercedes-Benz_GLE_Class'
p351
sS'Volkswagen Jetta'
p352
S'https://www.cardekho.com/carmodels/Volkswagen/Volkswagen_Jetta'
p353
sS'Ford EcoSport'
p354
S'https://www.cardekho.com/carmodels/Ford/Ford_Ecosport'
p355
sS'Tata Nano'
p356
S'https://www.cardekho.com/carmodels/Tata/Tata_Nano'
p357
sS'Jaguar XF'
p358
S'https://www.cardekho.com/carmodels/Jaguar/Jaguar_XF'
p359
sS'Chevrolet Cruze'
p360
S'https://www.cardekho.com/carmodels/Chevrolet/Chevrolet_Cruze'
p361
sS'BMW X5'
p362
S'https://www.cardekho.com/carmodels/BMW/BMW_X5'
p363
sS'BMW X6'
p364
S'https://www.cardekho.com/carmodels/BMW/BMW_X6'
p365
sS'BMW X1'
p366
S'https://www.cardekho.com/carmodels/BMW/BMW_X1'
p367
sS'Fiat Abarth Punto'
p368
S'https://www.cardekho.com/carmodels/Fiat/Fiat_Punto_Abarth'
p369
sS'Chevrolet Tavera'
p370
S'https://www.cardekho.com/carmodels/Chevrolet/Chevrolet_Tavera'
p371
sS'Land Rover Range Rover Sport'
p372
S'https://www.cardekho.com/carmodels/Land_Rover/Land_Rover_Range_Rover_Sport'
p373
sS'Tata Safari'
p374
S'https://www.cardekho.com/carmodels/Tata/Tata_New_Safari'
p375
sS'Fiat Punto EVO'
p376
S'https://www.cardekho.com/carmodels/Fiat/Fiat_Grande_Punto'
p377
sS'Maruti Ciaz'
p378
S'https://www.cardekho.com/carmodels/Maruti/Maruti_Ciaz'
p379
sS'Hyundai Santa Fe'
p380
S'https://www.cardekho.com/carmodels/Hyundai/Hyundai_Santa_Fe'
p381
sS'Chevrolet Enjoy'
p382
S'https://www.cardekho.com/carmodels/Chevrolet/Chevrolet_Enjoy'
p383
sS'Mahindra NuvoSport'
p384
S'https://www.cardekho.com/carmodels/Mahindra/Mahindra_NuvoSport'
p385
sS'Hyundai i10'
p386
S'https://www.cardekho.com/carmodels/Hyundai/Hyundai_i10'
p387
sS'Ferrari 458 Speciale'
p388
S'https://www.cardekho.com/carmodels/Ferrari/Ferrari_458_Speciale'
p389
sS'Land Rover Discovery Sport'
p390
S'https://www.cardekho.com/carmodels/Land_Rover/Land_Rover_Discovery_Sport'
p391
sS'Land Rover Discovery 4'
p392
S'https://www.cardekho.com/carmodels/Land_Rover/Land_Rover_Discovery_4'
p393
sS'Audi A3'
p394
S'https://www.cardekho.com/carmodels/Audi/Audi_A3'
p395
sS'Audi S5'
p396
S'https://www.cardekho.com/carmodels/Audi/Audi_S5'
p397
sS'Mercedes-Benz CLA'
p398
S'https://www.cardekho.com/carmodels/Mercedes-Benz/Mercedes-Benz_CLA'
p399
sS'Maruti Celerio'
p400
S'https://www.cardekho.com/carmodels/Maruti/Maruti_Celerio'
p401
sS'Mahindra Xylo'
p402
S'https://www.cardekho.com/carmodels/Mahindra/Mahindra_Xylo'
p403
sS'Mahindra e2o'
p404
S'https://www.cardekho.com/carmodels/Mahindra/Mahindra_e2o'
p405
sS'Hyundai Elite i20'
p406
S'https://www.cardekho.com/carmodels/Hyundai/Hyundai_i20'
p407
sS'Datsun GO'
p408
S'https://www.cardekho.com/carmodels/Datsun/Datsun_GO'
p409
sS'Mercedes-Benz SLC'
p410
S'https://www.cardekho.com/mercedes-benz/slc'
p411
sS'Hyundai Xcent'
p412
S'https://www.cardekho.com/carmodels/Hyundai/Hyundai_Xcent'
p413
sS'Honda BRV'
p414
S'https://www.cardekho.com/carmodels/Honda/Honda_BR-V'
p415
sS'Maserati Gran Cabrio'
p416
S'https://www.cardekho.com/carmodels/Maserati/Maserati_Gran_Cabrio'
p417
sS'Bentley Continental'
p418
S'https://www.cardekho.com/carmodels/Bentley/Bentley_Continental'
p419
sS'Volvo S80'
p420
S'https://www.cardekho.com/carmodels/Volvo/Volvo_S_80'
p421
sS'Hyundai EON'
p422
S'https://www.cardekho.com/carmodels/Hyundai/Hyundai_EON'
p423
sS'Jaguar F-Type'
p424
S'https://www.cardekho.com/carmodels/Jaguar/Jaguar_F_Type'
p425
sS'Jeep Grand Cherokee'
p426
S'https://www.cardekho.com/jeep/grand-cherokee'
p427
sS'Honda City'
p428
S'https://www.cardekho.com/carmodels/Honda/Honda_City'
p429
sS'Maruti Swift'
p430
S'https://www.cardekho.com/carmodels/Maruti/Maruti_Swift'
p431
sS'Maserati Gran Turismo'
p432
S'https://www.cardekho.com/carmodels/Maserati/Maserati_Gran_Turismo'
p433
sS'Aston Martin Vanquish'
p434
S'https://www.cardekho.com/carmodels/Aston_Martin/Aston_Martin_Vanquish'
p435
sa(dp436
S'Sedans'
p437
(dp438
S'Hyundai Elantra 1.6 S'
p439
S'https://www.cardekho.com/overview/Hyundai_Elantra/Hyundai_Elantra_1.6_S.htm'
p440
sS'Skoda Octavia Ambition 2.0 TDI AT'
p441
S'https://www.cardekho.com/overview/Skoda_Octavia/Skoda_Octavia_Ambition_2.0_TDI_AT.htm'
p442
sS'Mercedes-Benz S-Class Maybach S600'
p443
S'https://www.cardekho.com/overview/Mercedes-Benz_S-Class/Mercedes-Benz_S-Class_Maybach_S600.htm'
p444
sS'Renault Scala RxL'
p445
S'https://www.cardekho.com/overview/Renault_Scala/Renault_Scala_RxL.htm'
p446
sS'Honda Amaze S i-DTEC'
p447
S'https://www.cardekho.com/overview/Honda_Amaze/Honda_Amaze_S_i-DTEC.htm'
p448
sS'Maruti Swift Dzire LXI Option'
p449
S'https://www.cardekho.com/overview/Maruti_Swift_Dzire/Maruti_Swift_Dzire_LXI_Option.htm'
p450
sS'Toyota Camry Hybrid'
p451
S'https://www.cardekho.com/overview/Toyota_Camry/Toyota_Camry_Hybrid.htm'
p452
sS'Toyota Camry 2.5 G'
p453
S'https://www.cardekho.com/overview/Toyota_Camry/Toyota_Camry_2.5_G.htm'
p454
sS'Ford Mustang V8'
p455
S'https://www.cardekho.com/overview/Ford_Mustang/Ford_Mustang_V8.htm'
p456
sS'Toyota Corolla Altis VL AT'
p457
S'https://www.cardekho.com/overview/Toyota_Corolla_Altis/Toyota_Corolla_Altis_VL_AT.htm'
p458
sS'Volkswagen Jetta 2.0L TDI Trendline'
p459
S'https://www.cardekho.com/overview/Volkswagen_Jetta/Volkswagen_Jetta_2.0L_TDI_Trendline.htm'
p460
sS'Skoda Rapid 1.5 TDI AT Style Plus'
p461
S'https://www.cardekho.com/overview/Skoda_Rapid/Skoda_Rapid_1.5_TDI_AT_Style_Plus.htm'
p462
sS'Volkswagen Jetta 2.0L TDI Highline AT'
p463
S'https://www.cardekho.com/overview/Volkswagen_Jetta/Volkswagen_Jetta_2.0L_TDI_Highline_AT.htm'
p464
sS'Volkswagen Vento Celeste 1.2 TSI Highline AT'
p465
S'https://www.cardekho.com/overview/Volkswagen_Vento/Volkswagen_Vento_Celeste_1.2_TSI_Highline_AT.htm'
p466
sS'Hyundai Verna 1.6 CRDi AT S'
p467
S'https://www.cardekho.com/overview/Hyundai_Verna/Hyundai_Verna_1.6_CRDi_AT_S.htm'
p468
sS'Tata Indigo eCS LS (TDI) BS III'
p469
S'https://www.cardekho.com/overview/Tata_Indigo_CS/Tata_Indigo_CS_LS_(TDI)_BS-III.htm'
p470
sS'Maruti Ciaz VDi Option SHVS'
p471
S'https://www.cardekho.com/overview/Maruti_Ciaz/Maruti_Ciaz_VDi_Option_SHVS.htm'
p472
sS'Volvo S60 D4 KINETIC'
p473
S'https://www.cardekho.com/overview/Volvo_S60/Volvo_S60_D4_KINETIC.htm'
p474
sS'Fiat Linea Power Up 1.3 Dynamic'
p475
S'https://www.cardekho.com/overview/Fiat_Linea/Fiat_Linea_Power_Up_1.3_Dynamic.htm'
p476
sS'Toyota Corolla Altis D 4D JS'
p477
S'https://www.cardekho.com/overview/Toyota_Corolla_Altis/Toyota_Corolla_Altis_D-4D_JS.htm'
p478
sS'Tata Indigo eCS LS'
p479
S'https://www.cardekho.com/overview/Tata_Indigo_CS/Tata_Indigo_CS_eLS_BS_IV.htm'
p480
sS'Mercedes-Benz E-Class E350 CDI Avantgrade'
p481
S'https://www.cardekho.com/overview/Mercedes-Benz_E-Class/Mercedes-Benz_E-Class_E350_CDI_Avantgrade.htm'
p482
sS'Volkswagen Vento 1.2 TSI Highline AT'
p483
S'https://www.cardekho.com/overview/Volkswagen_Vento/Volkswagen_Vento_1.2_TSI_Highline_AT.htm'
p484
sS'Tata Indigo eCS LX'
p485
S'https://www.cardekho.com/overview/Tata_Indigo_CS/Tata_Indigo_CS_eLX_BS_IV.htm'
p486
sS'Volkswagen Vento Celeste 1.5 TDI Highline'
p487
S'https://www.cardekho.com/overview/Volkswagen_Vento/Volkswagen_Vento_Celeste_1.5_TDI_Highline.htm'
p488
sS'Ford Aspire 1.5 TDCi Titanium'
p489
S'https://www.cardekho.com/overview/Ford_Figo_Aspire/Ford_Figo_Aspire_1.5_TDCi_Titanium.htm'
p490
sS'Mahindra Verito 1.5 Executive edition'
p491
S'https://www.cardekho.com/overview/Mahindra_Verito/Mahindra_Verito_1.5_Executive_edition.htm'
p492
sS'Volkswagen Ameo 1.5 TDI Highline AT'
p493
S'https://www.cardekho.com/overview/Volkswagen_Ameo/Volkswagen_Ameo_1.5_TDI_Highline_AT.htm'
p494
sS'Mercedes-Benz E-Class E 63 AMG'
p495
S'https://www.cardekho.com/overview/Mercedes-Benz_E-Class/Mercedes-Benz_E-Class_E_63_AMG.htm'
p496
sS'Tata Zest Revotron 1.2T XMS'
p497
S'https://www.cardekho.com/overview/Tata_Zest/Tata_Zest_Revotron_1.2T_XMS.htm'
p498
sS'Maruti Swift Dzire VDI'
p499
S'https://www.cardekho.com/overview/Maruti_Swift_Dzire/Maruti_Swift_Dzire_VDI.htm'
p500
sS'Maruti Ciaz RS ZDi Plus SHVS'
p501
S'https://www.cardekho.com/overview/Maruti_Ciaz/Maruti_Ciaz_RS_ZDi_Plus_SHVS.htm'
p502
sS'Maruti Ciaz RS ZXi Plus'
p503
S'https://www.cardekho.com/overview/Maruti_Ciaz/Maruti_Ciaz_RS_ZXi_Plus.htm'
p504
sS'Hyundai Verna 1.6 VTVT AT SX'
p505
S'https://www.cardekho.com/overview/Hyundai_Verna/Hyundai_Verna_1.6_VTVT_AT_SX.htm'
p506
sS'Mercedes-Benz CLA 200 CDI Style'
p507
S'https://www.cardekho.com/overview/Mercedes-Benz_CLA/Mercedes-Benz_CLA_200_CDI_Style.htm'
p508
sS'Honda Amaze S Option i-DTEC'
p509
S'https://www.cardekho.com/overview/Honda_Amaze/Honda_Amaze_S_Option_i-DTEC.htm'
p510
sS'Honda Amaze S i-VTEC'
p511
S'https://www.cardekho.com/overview/Honda_Amaze/Honda_Amaze_S_i-VTEC.htm'
p512
sS'Hyundai Verna 1.6 SX VTVT'
p513
S'https://www.cardekho.com/overview/Hyundai_Verna/Hyundai_Verna_1.6_SX_VTVT.htm'
p514
sS'Skoda Octavia Style Plus 1.8 TSI AT'
p515
S'https://www.cardekho.com/overview/Skoda_Octavia/Skoda_Octavia_Style_Plus_1.8_TSI_AT.htm'
p516
sS'Toyota Platinum Etios 1.5 VX'
p517
S'https://www.cardekho.com/overview/Toyota_Etios/Toyota_Etios_1.5_VX.htm'
p518
sS'Skoda Octavia Ambition 2.0 TDI MT'
p519
S'https://www.cardekho.com/overview/Skoda_Octavia/Skoda_Octavia_Ambition_2.0_TDI_MT.htm'
p520
sS'Skoda Rapid 1.6 MPI Style Plus'
p521
S'https://www.cardekho.com/overview/Skoda_Rapid/Skoda_Rapid_1.6_MPI_Style_Plus.htm'
p522
sS'Maruti Ciaz VDi Plus SHVS'
p523
S'https://www.cardekho.com/overview/Maruti_Ciaz/Maruti_Ciaz_VDi_Plus_SHVS.htm'
p524
sS'Chevrolet Sail 1.2 LS ABS'
p525
S'https://www.cardekho.com/overview/Chevrolet_Sail/Chevrolet_Sail_1.2_LS_ABS.htm'
p526
sS'Maruti Swift Dzire VXI AT Optional'
p527
S'https://www.cardekho.com/overview/Maruti_Swift_Dzire/Maruti_Swift_Dzire_VXI_AT_Optional.htm'
p528
sS'Tata Indigo eCS GLS'
p529
S'https://www.cardekho.com/overview/Tata_Indigo_CS/Tata_Indigo_CS_eGLS_BS_IV.htm'
p530
sS'Fiat Linea Power Up 1.3 Emotion'
p531
S'https://www.cardekho.com/overview/Fiat_Linea/Fiat_Linea_Power_Up_1.3_Emotion.htm'
p532
sS'Skoda Rapid 1.6 MPI AT Style'
p533
S'https://www.cardekho.com/overview/Skoda_Rapid/Skoda_Rapid_1.6_MPI_AT_Style.htm'
p534
sS'Ford Aspire 1.2 Ti-VCT Titanium'
p535
S'https://www.cardekho.com/overview/Ford_Figo_Aspire/Ford_Figo_Aspire_1.2_Ti-VCT_Titanium.htm'
p536
sS'Maruti Ciaz AT ZXi'
p537
S'https://www.cardekho.com/overview/Maruti_Ciaz/Maruti_Ciaz_AT_ZXi.htm'
p538
sS'Ford Aspire 1.2 Ti-VCT Trend'
p539
S'https://www.cardekho.com/overview/Ford_Figo_Aspire/Ford_Figo_Aspire_1.2_Ti-VCT_Trend.htm'
p540
sS'Honda City i VTEC CVT SV'
p541
S'https://www.cardekho.com/overview/Honda_City/Honda_City_i_VTEC_CVT_SV.htm'
p542
sS'Skoda Rapid 1.6 MPI Ambition'
p543
S'https://www.cardekho.com/overview/Skoda_Rapid/Skoda_Rapid_1.6_MPI_Ambition.htm'
p544
sS'Skoda Rapid 1.5 TDI Style Plus'
p545
S'https://www.cardekho.com/overview/Skoda_Rapid/Skoda_Rapid_1.5_TDI_Style_Plus.htm'
p546
sS'Tata Zest Quadrajet 1.3 75PS XM'
p547
S'https://www.cardekho.com/overview/Tata_Zest/Tata_Zest_Quadrajet_1.3_75PS_XM.htm'
p548
sS'Tata Zest Quadrajet 1.3 XTA'
p549
S'https://www.cardekho.com/overview/Tata_Zest/Tata_Zest_Quadrajet_1.3_XTA.htm'
p550
sS'Tata Zest Quadrajet 1.3 XMA'
p551
S'https://www.cardekho.com/overview/Tata_Zest/Tata_Zest_Quadrajet_1.3_XMA.htm'
p552
sS'Volkswagen Ameo 1.2 MPI Trendline'
p553
S'https://www.cardekho.com/overview/Volkswagen_Ameo/Volkswagen_Ameo_1.2_MPI_Trendline.htm'
p554
sS'Hyundai Xcent 1.1 CRDi S'
p555
S'https://www.cardekho.com/overview/Hyundai_Xcent/Hyundai_Xcent_1.1_CRDi_S.htm'
p556
sS'Tata Zest Quadrajet 1.3 75PS XE'
p557
S'https://www.cardekho.com/overview/Tata_Zest/Tata_Zest_Quadrajet_1.3_75PS_XE.htm'
p558
sS'Audi A3 35 TDI Premium Plus'
p559
S'https://www.cardekho.com/overview/Audi_A3/Audi_A3_35_TDI_Premium_Plus.htm'
p560
sS'Nissan Sunny XV CVT'
p561
S'https://www.cardekho.com/overview/Nissan_Sunny/Nissan_Sunny_XV_CVT.htm'
p562
sS'Honda City i VTEC V'
p563
S'https://www.cardekho.com/overview/Honda_City/Honda_City_i_VTEC_V.htm'
p564
sS'Mercedes-Benz C-Class C 220 CDI Avantgarde'
p565
S'https://www.cardekho.com/overview/Mercedes-Benz_New_C-Class/Mercedes-Benz_New_C-Class_C_220_CDI_Avantgarde.htm'
p566
sS'Mercedes-Benz S-Class Maybach S500'
p567
S'https://www.cardekho.com/overview/Mercedes-Benz_S-Class/Mercedes-Benz_S-Class_Maybach_S500.htm'
p568
sS'Honda City i VTEC S'
p569
S'https://www.cardekho.com/overview/Honda_City/Honda_City_i_VTEC_S.htm'
p570
sS'Toyota Corolla Altis GL MT'
p571
S'https://www.cardekho.com/overview/Toyota_Corolla_Altis/Toyota_Corolla_Altis_GL_MT.htm'
p572
sS'Maruti Swift Dzire LDI Optional'
p573
S'https://www.cardekho.com/overview/Maruti_Swift_Dzire/Maruti_Swift_Dzire_LDI_Optional.htm'
p574
sS'Hyundai Verna 1.6 VTVT AT S'
p575
S'https://www.cardekho.com/overview/Hyundai_Verna/Hyundai_Verna_1.6_VTVT_AT_S.htm'
p576
sS'Fiat Linea Power Up 1.4 Fire Active'
p577
S'https://www.cardekho.com/overview/Fiat_Linea/Fiat_Linea_Power_Up_1.4_Fire_Active.htm'
p578
sS'Maruti Ciaz AT VXi Plus'
p579
S'https://www.cardekho.com/overview/Maruti_Ciaz/Maruti_Ciaz_AT_VXi_Plus.htm'
p580
sS'Hyundai Verna 1.6 CRDI SX Option'
p581
S'https://www.cardekho.com/overview/Hyundai_Verna/Hyundai_Verna_1.6_CRDI_SX_Option.htm'
p582
sS'Toyota Platinum Etios 1.4 GD'
p583
S'https://www.cardekho.com/overview/Toyota_Etios/Toyota_Etios_1.4_GD.htm'
p584
sS'Skoda Superb Style 1.8 TSI MT'
p585
S'https://www.cardekho.com/overview/Skoda_Superb/Skoda_Superb_Style_1.8_TSI_MT.htm'
p586
sS'Honda City i VTEC E'
p587
S'https://www.cardekho.com/overview/Honda_City/Honda_City_i_VTEC_E.htm'
p588
sS'Volkswagen Jetta 1.4 TSI Trendline'
p589
S'https://www.cardekho.com/overview/Volkswagen_Jetta/Volkswagen_Jetta_1.4_TSI_Trendline.htm'
p590
sS'Tata Indigo eCS LX TDI BS III'
p591
S'https://www.cardekho.com/overview/Tata_Indigo_CS/Tata_Indigo_CS_LX_(TDI)_BS-III.htm'
p592
sS'Toyota Corolla Altis D 4D GL'
p593
S'https://www.cardekho.com/overview/Toyota_Corolla_Altis/Toyota_Corolla_Altis_D-4D_GL.htm'
p594
sS'Volvo S60 D4 Momentum'
p595
S'https://www.cardekho.com/overview/Volvo_S60/Volvo_S60_D4_Momentum.htm'
p596
sS'Maruti Swift Dzire VXI Optional'
p597
S'https://www.cardekho.com/overview/Maruti_Swift_Dzire/Maruti_Swift_Dzire_VXI_Optional.htm'
p598
sS'Volkswagen Ameo 1.2 MPI Highline'
p599
S'https://www.cardekho.com/overview/Volkswagen_Ameo/Volkswagen_Ameo_1.2_MPI_Highline.htm'
p600
sS'Skoda Rapid 1.5 TDI Active'
p601
S'https://www.cardekho.com/overview/Skoda_Rapid/Skoda_Rapid_1.5_TDI_Active.htm'
p602
sS'Volkswagen Vento 1.5 TDI Comfortline AT'
p603
S'https://www.cardekho.com/overview/Volkswagen_Vento/Volkswagen_Vento_1.5_TDI_Comfortline_AT.htm'
p604
sS'Nissan Sunny Diesel XL'
p605
S'https://www.cardekho.com/overview/Nissan_Sunny/Nissan_Sunny_Diesel_XL.htm'
p606
sS'Volkswagen Ameo 1.2 MPI Comfortline'
p607
S'https://www.cardekho.com/overview/Volkswagen_Ameo/Volkswagen_Ameo_1.2_MPI_Comfortline.htm'
p608
sS'Fiat Linea Classic 1.3 Multijet'
p609
S'https://www.cardekho.com/overview/Fiat_Linea_Classic/Fiat_Linea_Classic_1.3_Multijet.htm'
p610
sS'Audi A6 35 TDI Matrix Edition'
p611
S'https://www.cardekho.com/overview/Audi_A6/Audi_A6_35_TDI.htm'
p612
sS'Skoda Octavia Ambition Plus 2.0 TDI AT'
p613
S'https://www.cardekho.com/overview/Skoda_Octavia/Skoda_Octavia_Ambition_Plus_2.0_TDI_AT.htm'
p614
sS'Hyundai Xcent 1.2 Kappa S Celebration Edition'
p615
S'https://www.cardekho.com/overview/Hyundai_Xcent/Hyundai_Xcent_1.2_Kappa_S_Celebration_Edition.htm'
p616
sS'Skoda Rapid 1.6 MPI AT Style Plus'
p617
S'https://www.cardekho.com/overview/Skoda_Rapid/Skoda_Rapid_1.6_MPI_AT_Style_Plus.htm'
p618
sS'Chevrolet Cruze LTZ'
p619
S'https://www.cardekho.com/overview/Chevrolet_Cruze/Chevrolet_Cruze_LTZ.htm'
p620
sS'Ford Aspire 1.5 TDCi Trend'
p621
S'https://www.cardekho.com/overview/Ford_Figo_Aspire/Ford_Figo_Aspire_1.5_TDCi_Trend.htm'
p622
sS'Maruti Swift Dzire AMT ZDI'
p623
S'https://www.cardekho.com/overview/Maruti_Swift_Dzire/Maruti_Swift_Dzire_AMT_ZDI.htm'
p624
sS'Hyundai Elantra 2.0 SX AT'
p625
S'https://www.cardekho.com/overview/Hyundai_Elantra/Hyundai_Elantra_2.0_SX_AT.htm'
p626
sS'Audi A3 35 TDI Technology'
p627
S'https://www.cardekho.com/overview/Audi_A3/Audi_A3_35_TDI_Technology.htm'
p628
sS'Toyota Corolla Altis G AT'
p629
S'https://www.cardekho.com/overview/Toyota_Corolla_Altis/Toyota_Corolla_Altis_G_AT.htm'
p630
sS'Volkswagen Vento 1.5 TDI Highline AT'
p631
S'https://www.cardekho.com/overview/Volkswagen_Vento/Volkswagen_Vento_1.5_TDI_Highline_AT.htm'
p632
sS'Mercedes-Benz C-Class C 220 CDI Style'
p633
S'https://www.cardekho.com/overview/Mercedes-Benz_New_C-Class/Mercedes-Benz_New_C-Class_C_220_CDI_Style.htm'
p634
sS'Honda Amaze E Option i-DTEC'
p635
S'https://www.cardekho.com/overview/Honda_Amaze/Honda_Amaze_E_Option_i-DTEC.htm'
p636
sS'Volkswagen Jetta 1.4 TSI Comfortline'
p637
S'https://www.cardekho.com/overview/Volkswagen_Jetta/Volkswagen_Jetta_1.4_TSI_Comfortline.htm'
p638
sS'Toyota Platinum Etios 1.4 VD'
p639
S'https://www.cardekho.com/overview/Toyota_Etios/Toyota_Etios_1.4_VD.htm'
p640
sS'Hyundai Verna 1.6 CRDi SX'
p641
S'https://www.cardekho.com/overview/Hyundai_Verna/Hyundai_Verna_1.6_CRDi_SX.htm'
p642
sS'Honda City i DTec V'
p643
S'https://www.cardekho.com/overview/Honda_City/Honda_City_i_DTec_V.htm'
p644
sS'Volkswagen Ameo 1.5 TDI Trendline'
p645
S'https://www.cardekho.com/overview/Volkswagen_Ameo/Volkswagen_Ameo_1.5_TDI_Trendline.htm'
p646
sS'Hyundai Verna 1.6 VTVT S'
p647
S'https://www.cardekho.com/overview/Hyundai_Verna/Hyundai_Verna_1.6_VTVT_S.htm'
p648
sS'Honda City i DTec S'
p649
S'https://www.cardekho.com/overview/Honda_City/Honda_City_i_DTec_S.htm'
p650
sS'Nissan Sunny Diesel XE'
p651
S'https://www.cardekho.com/overview/Nissan_Sunny/Nissan_Sunny_Diesel_XE.htm'
p652
sS'Chevrolet Sail 1.2 Base'
p653
S'https://www.cardekho.com/overview/Chevrolet_Sail/Chevrolet_Sail_1.2_Base.htm'
p654
sS'Hyundai Xcent 1.2 Kappa SX Option AT'
p655
S'https://www.cardekho.com/overview/Hyundai_Xcent/Hyundai_Xcent_1.2_Kappa_SX_Option_AT.htm'
p656
sS'Honda City i DTec E'
p657
S'https://www.cardekho.com/overview/Honda_City/Honda_City_i_DTec_E.htm'
p658
sS'Honda Amaze VX i-VTEC'
p659
S'https://www.cardekho.com/overview/Honda_Amaze/Honda_Amaze_VX_i-VTEC.htm'
p660
sS'Nissan Sunny XL'
p661
S'https://www.cardekho.com/overview/Nissan_Sunny/Nissan_Sunny_XL.htm'
p662
sS'Maruti Ciaz ZXi'
p663
S'https://www.cardekho.com/overview/Maruti_Ciaz/Maruti_Ciaz_ZXi.htm'
p664
sS'Hyundai Verna 1.4 VTVT'
p665
S'https://www.cardekho.com/overview/Hyundai_Verna/Hyundai_Verna_1.4_VTVT.htm'
p666
sS'Mahindra E Verito D2'
p667
S'https://www.cardekho.com/overview/Mahindra_E_Verito/Mahindra_E_Verito_D2.htm'
p668
sS'Mercedes-Benz S-Class S 500 Coupe'
p669
S'https://www.cardekho.com/overview/Mercedes-Benz_S-Class/Mercedes-Benz_S-Class_S_500_Coupe.htm'
p670
sS'Audi A3 35 TDI Premium'
p671
S'https://www.cardekho.com/overview/Audi_A3/Audi_A3_35_TDI_Premium.htm'
p672
sS'Mahindra E Verito D6'
p673
S'https://www.cardekho.com/overview/Mahindra_E_Verito/Mahindra_E_Verito_D6.htm'
p674
sS'Nissan Sunny XE'
p675
S'https://www.cardekho.com/overview/Nissan_Sunny/Nissan_Sunny_XE.htm'
p676
sS'Maruti Ciaz ZXi Plus'
p677
S'https://www.cardekho.com/overview/Maruti_Ciaz/Maruti_Ciaz_ZXi_Plus.htm'
p678
sS'Nissan Sunny Diesel XV'
p679
S'https://www.cardekho.com/overview/Nissan_Sunny/Nissan_Sunny_Diesel_XV.htm'
p680
sS'Chevrolet Sail 1.3 LT ABS'
p681
S'https://www.cardekho.com/overview/Chevrolet_Sail/Chevrolet_Sail_LT_ABS.htm'
p682
sS'Skoda Rapid 1.6 MPI Active'
p683
S'https://www.cardekho.com/overview/Skoda_Rapid/Skoda_Rapid_1.6_MPI_Active.htm'
p684
sS'Honda Amaze VX CVT i-VTEC'
p685
S'https://www.cardekho.com/overview/Honda_Amaze/Honda_Amaze_VX_CVT_i-VTEC.htm'
p686
sS'Ford Aspire 1.2 Ti-VCT Ambiente'
p687
S'https://www.cardekho.com/overview/Ford_Figo_Aspire/Ford_Figo_Aspire_1.2_Ti-VCT_Ambiente.htm'
p688
sS'Maruti Swift Dzire ZDI'
p689
S'https://www.cardekho.com/overview/Maruti_Swift_Dzire/Maruti_Swift_Dzire_ZDI.htm'
p690
sS'Maruti Swift Dzire LXI'
p691
S'https://www.cardekho.com/overview/Maruti_Swift_Dzire/Maruti_Swift_Dzire_LXI.htm'
p692
sS'Hyundai Elantra 2.0 S'
p693
S'https://www.cardekho.com/overview/Hyundai_Elantra/Hyundai_Elantra_2.0_S.htm'
p694
sS'Mercedes-Benz S-Class S400'
p695
S'https://www.cardekho.com/overview/Mercedes-Benz_S-Class/Mercedes-Benz_S-Class_S400.htm'
p696
sS'Fiat Linea Classic Plus 1.3 Multijet'
p697
S'https://www.cardekho.com/overview/Fiat_Linea_Classic/Fiat_Linea_Classic_Plus_1.3_Multijet.htm'
p698
sS'Honda Amaze S Option CVT i-VTEC'
p699
S'https://www.cardekho.com/overview/Honda_Amaze/Honda_Amaze_S_Option_CVT_i-VTEC.htm'
p700
sS'Ford Aspire 1.5 Ti-VCT Titanium'
p701
S'https://www.cardekho.com/overview/Ford_Figo_Aspire/Ford_Figo_Aspire_1.5_Ti-VCT_Titanium.htm'
p702
sS'Toyota Corolla Altis D-4D Limited Edition'
p703
S'https://www.cardekho.com/overview/Toyota_Corolla_Altis/Toyota_Corolla_Altis_D-4D_Limited_Edition.htm'
p704
sS'Skoda Rapid 1.5 TDI AT Ambition'
p705
S'https://www.cardekho.com/overview/Skoda_Rapid/Skoda_Rapid_1.5_TDI_AT_Ambition.htm'
p706
sS'Honda Amaze E i-VTEC'
p707
S'https://www.cardekho.com/overview/Honda_Amaze/Honda_Amaze_E_i-VTEC.htm'
p708
sS'Volkswagen Vento 1.6 Trendline'
p709
S'https://www.cardekho.com/overview/Volkswagen_Vento/Volkswagen_Vento_1.6_Trendline.htm'
p710
sS'Mercedes-Benz E-Class E350 Edition E'
p711
S'https://www.cardekho.com/overview/Mercedes-Benz_E-Class/Mercedes-Benz_E-Class_E350_Edition_E.htm'
p712
sS'Volkswagen Ameo 1.5 TDI Highline'
p713
S'https://www.cardekho.com/overview/Volkswagen_Ameo/Volkswagen_Ameo_1.5_TDI_Highline.htm'
p714
sS'Hyundai Elantra 2.0 SX'
p715
S'https://www.cardekho.com/overview/Hyundai_Elantra/Hyundai_Elantra_2.0_SX.htm'
p716
sS'Chevrolet Sail 1.3 LS ABS'
p717
S'https://www.cardekho.com/overview/Chevrolet_Sail/Chevrolet_Sail_LS_ABS.htm'
p718
sS'Honda Amaze S CVT i-VTEC'
p719
S'https://www.cardekho.com/overview/Honda_Amaze/Honda_Amaze_S_CVT_i-VTEC.htm'
p720
sS'Maruti Swift Dzire VDI Optional'
p721
S'https://www.cardekho.com/overview/Maruti_Swift_Dzire/Maruti_Swift_Dzire_VDI_Optional.htm'
p722
sS'Volkswagen Vento Celeste 1.5 TDI Highline AT'
p723
S'https://www.cardekho.com/overview/Volkswagen_Vento/Volkswagen_Vento_Celeste_1.5_TDI_Highline_AT.htm'
p724
sS'Tata Zest Revotron 1.2T XE'
p725
S'https://www.cardekho.com/overview/Tata_Zest/Tata_Zest_Revotron_1.2T_XE.htm'
p726
sS'Skoda Rapid 1.5 TDI Ambition'
p727
S'https://www.cardekho.com/overview/Skoda_Rapid/Skoda_Rapid_1.5_TDI_Ambition.htm'
p728
sS'Honda City i VTEC VX Option'
p729
S'https://www.cardekho.com/overview/Honda_City/Honda_City_i_VTEC_VX_Option.htm'
p730
sS'Mercedes-Benz CLA 200 CGI Sport'
p731
S'https://www.cardekho.com/overview/Mercedes-Benz_CLA/Mercedes-Benz_CLA_200_CGI.htm'
p732
sS'Toyota Platinum Etios 1.5 G'
p733
S'https://www.cardekho.com/overview/Toyota_Etios/Toyota_Etios_1.5_G.htm'
p734
sS'Tata Zest Revotron 1.2T XM'
p735
S'https://www.cardekho.com/overview/Tata_Zest/Tata_Zest_Revotron_1.2T_XM.htm'
p736
sS'Maruti Ciaz VDI SHVS'
p737
S'https://www.cardekho.com/overview/Maruti_Ciaz/Maruti_Ciaz_VDI_SHVS.htm'
p738
sS'Skoda Superb L&K 2.0 TDI AT'
p739
S'https://www.cardekho.com/overview/Skoda_Superb/Skoda_Superb_LK_2.0_TDI_AT.htm'
p740
sS'Mercedes-Benz E-Class E400 Cabriolet'
p741
S'https://www.cardekho.com/overview/Mercedes-Benz_E-Class/Mercedes-Benz_E-Class_E400_Cabriolet.htm'
p742
sS'Honda City i VTEC CVT VX'
p743
S'https://www.cardekho.com/overview/Honda_City/Honda_City_i_VTEC_CVT_VX.htm'
p744
sS'Audi A6 35 TFSI'
p745
S'https://www.cardekho.com/overview/Audi_A6/Audi_A6_35_TFSI.htm'
p746
sS'Toyota Platinum Etios 1.5 V'
p747
S'https://www.cardekho.com/overview/Toyota_Etios/Toyota_Etios_1.5_V.htm'
p748
sS'Honda City i DTec VX Option'
p749
S'https://www.cardekho.com/overview/Honda_City/Honda_City_i_DTec_VX_Option.htm'
p750
sS'Volkswagen Vento 1.6 Highline'
p751
S'https://www.cardekho.com/overview/Volkswagen_Vento/Volkswagen_Vento_1.6_Highline.htm'
p752
sS'Volvo S60 D5 Inscription'
p753
S'https://www.cardekho.com/overview/Volvo_S60/Volvo_S60_D5_Inscription.htm'
p754
sS'Chevrolet Sail 1.3 Base'
p755
S'https://www.cardekho.com/overview/Chevrolet_Sail/Chevrolet_Sail_1.3_Base.htm'
p756
sS'Mercedes-Benz S-Class S 63 AMG Coupe'
p757
S'https://www.cardekho.com/overview/Mercedes-Benz_S-Class/Mercedes-Benz_S-Class_S_63_AMG_Coupe.htm'
p758
sS'Maruti Swift Dzire VXI'
p759
S'https://www.cardekho.com/overview/Maruti_Swift_Dzire/Maruti_Swift_Dzire_VXI.htm'
p760
sS'Hyundai Xcent 1.1 CRDi S Celebration Edition'
p761
S'https://www.cardekho.com/overview/Hyundai_Xcent/Hyundai_Xcent_1.1_CRDi_S_Celebration_Edition.htm'
p762
sS'Hyundai Elantra 1.6 SX'
p763
S'https://www.cardekho.com/overview/Hyundai_Elantra/Hyundai_Elantra_1.6_SX.htm'
p764
sS'Chevrolet Sail 1.2 LT ABS'
p765
S'https://www.cardekho.com/overview/Chevrolet_Sail/Chevrolet_Sail_1.2_LT_ABS.htm'
p766
sS'Mercedes-Benz S-Class S 350 CDI'
p767
S'https://www.cardekho.com/overview/Mercedes-Benz_S-Class/Mercedes-Benz_S-Class_S_350_CDI.htm'
p768
sS'Mahindra E Verito D4'
p769
S'https://www.cardekho.com/overview/Mahindra_E_Verito/Mahindra_E_Verito_D4.htm'
p770
sS'Tata Zest Quadrajet 1.3 XT'
p771
S'https://www.cardekho.com/overview/Tata_Zest/Tata_Zest_Quadrajet_1.3_XT.htm'
p772
sS'Honda City i DTec VX Option BL'
p773
S'https://www.cardekho.com/overview/Honda_City/Honda_City_i_DTec_VX_Option_BL.htm'
p774
sS'Skoda Rapid 1.5 TDI Style Plus Black Package'
p775
S'https://www.cardekho.com/overview/Skoda_Rapid/Skoda_Rapid_1.5_TDI_Style_Plus_Black_Package.htm'
p776
sS'Nissan Sunny XV D Premium Safety'
p777
S'https://www.cardekho.com/overview/Nissan_Sunny/Nissan_Sunny_XV_D_Premium_Safety.htm'
p778
sS'Honda Amaze SX i-VTEC'
p779
S'https://www.cardekho.com/overview/Honda_Amaze/Honda_Amaze_SX_i_VTEC.htm'
p780
sS'Mercedes-Benz E-Class E200 Edition E'
p781
S'https://www.cardekho.com/overview/Mercedes-Benz_E-Class/Mercedes-Benz_E-Class_E200_Edition_E.htm'
p782
sS'Skoda Rapid 1.5 TDI AT Style Plus Black Package'
p783
S'https://www.cardekho.com/overview/Skoda_Rapid/Skoda_Rapid_1.5_TDI_AT_Style_Plus_Black_Package.htm'
p784
sS'Skoda Rapid 1.6 MPI Style Plus Black Package'
p785
S'https://www.cardekho.com/overview/Skoda_Rapid/Skoda_Rapid_1.6_MPI_Style_Plus_Black_Package.htm'
p786
sS'Skoda Octavia Ambition 1.4 TSI MT'
p787
S'https://www.cardekho.com/overview/Skoda_Octavia/Skoda_Octavia_Ambition_1.4_TSI_MT.htm'
p788
sS'Hyundai Xcent 1.1 CRDi SX'
p789
S'https://www.cardekho.com/overview/Hyundai_Xcent/Hyundai_Xcent_1.1_CRDi_SX.htm'
p790
sS'Skoda Octavia Style Plus 2.0 TDI AT'
p791
S'https://www.cardekho.com/overview/Skoda_Octavia/Skoda_Octavia_Style_Plus_2.0_TDI_AT.htm'
p792
sS'Volkswagen Vento 1.5 TDI Highline'
p793
S'https://www.cardekho.com/overview/Volkswagen_Vento/Volkswagen_Vento_1.5_TDI_Highline.htm'
p794
sS'Volkswagen Vento Celeste 1.6 Highline'
p795
S'https://www.cardekho.com/overview/Volkswagen_Vento/Volkswagen_Vento_Celeste_1.6_Highline.htm'
p796
sS'Chevrolet Sail 1.2 LS'
p797
S'https://www.cardekho.com/overview/Chevrolet_Sail/Chevrolet_Sail_1.2_LS.htm'
p798
sS'Mercedes-Benz E-Class E250 Edition E'
p799
S'https://www.cardekho.com/overview/Mercedes-Benz_E-Class/Mercedes-Benz_E-Class_E250_Edition_E.htm'
p800
sS'Honda City i VTEC VX Option BL'
p801
S'https://www.cardekho.com/overview/Honda_City/Honda_City_i_VTEC_VX_Option_BL.htm'
p802
sS'Hyundai Elantra 2.0 SX Option'
p803
S'https://www.cardekho.com/overview/Hyundai_Elantra/Hyundai_Elantra_2.0_SX_Option.htm'
p804
sS'Fiat Linea Power Up 1.3 Active'
p805
S'https://www.cardekho.com/overview/Fiat_Linea/Fiat_Linea_Power_Up_1.3_Active.htm'
p806
sS'Hyundai Xcent 1.1 CRDi Base'
p807
S'https://www.cardekho.com/overview/Hyundai_Xcent/Hyundai_Xcent_1.1_CRDi_Base.htm'
p808
sS'Maruti Ciaz VXi Plus'
p809
S'https://www.cardekho.com/overview/Maruti_Ciaz/Maruti_Ciaz_VXi_Plus.htm'
p810
sS'Maruti Ciaz VXi Option'
p811
S'https://www.cardekho.com/overview/Maruti_Ciaz/Maruti_Ciaz_VXi_Option.htm'
p812
sS'Skoda Superb L&K 1.8 TSI AT'
p813
S'https://www.cardekho.com/overview/Skoda_Superb/Skoda_Superb_LK_1.8_TSI_AT.htm'
p814
sS'Honda Amaze VX i-DTEC'
p815
S'https://www.cardekho.com/overview/Honda_Amaze/Honda_Amaze_VX_i_DTEC.htm'
p816
sS'Tata Indigo eCS eVX'
p817
S'https://www.cardekho.com/overview/Tata_Indigo_CS/Tata_Indigo_CS_eVX.htm'
p818
sS'Volkswagen Ameo 1.5 TDI Comfortline'
p819
S'https://www.cardekho.com/overview/Volkswagen_Ameo/Volkswagen_Ameo_1.5_TDI_Comfortline.htm'
p820
sS'Honda City i DTec VX'
p821
S'https://www.cardekho.com/overview/Honda_City/Honda_City_i_DTec_VX.htm'
p822
sS'Volkswagen Vento 1.5 TDI Comfortline'
p823
S'https://www.cardekho.com/overview/Volkswagen_Vento/Volkswagen_Vento_1.5_TDI_Comfortline.htm'
p824
sS'Chevrolet Sail 1.3 LS'
p825
S'https://www.cardekho.com/overview/Chevrolet_Sail/Chevrolet_Sail_1.3_LS.htm'
p826
sS'Ford Aspire 1.2 Ti-VCT Titanium Plus'
p827
S'https://www.cardekho.com/overview/Ford_Figo_Aspire/Ford_Figo_Aspire_1.2_Ti-VCT_Titanium_Plus.htm'
p828
sS'Tata Zest Revotron 1.2 XT'
p829
S'https://www.cardekho.com/overview/Tata_Zest/Tata_Zest_Revotron_1.2_XT.htm'
p830
sS'Hyundai Xcent 1.2 Kappa SX Option'
p831
S'https://www.cardekho.com/overview/Hyundai_Xcent/Hyundai_Xcent_1.2_Kappa_SX_Option.htm'
p832
sS'Skoda Superb Style 2.0 TDI AT'
p833
S'https://www.cardekho.com/overview/Skoda_Superb/Skoda_Superb_Style_2.0_TDI_AT.htm'
p834
sS'Maruti Ciaz VXi'
p835
S'https://www.cardekho.com/overview/Maruti_Ciaz/Maruti_Ciaz_VXi.htm'
p836
sS'Audi A3 40 TFSI Premium'
p837
S'https://www.cardekho.com/overview/Audi_A3/Audi_A3_40_TFSI_Premium.htm'
p838
sS'Maruti Swift Dzire ZXI'
p839
S'https://www.cardekho.com/overview/Maruti_Swift_Dzire/Maruti_Swift_Dzire_ZXI.htm'
p840
sS'Mahindra Verito 1.5 D2'
p841
S'https://www.cardekho.com/overview/Mahindra_Verito/Mahindra_Verito_1.5_D2_BSIV.htm'
p842
sS'Maruti Ciaz ZDi Plus SHVS'
p843
S'https://www.cardekho.com/overview/Maruti_Ciaz/Maruti_Ciaz_ZDi_Plus_SHVS.htm'
p844
sS'Mercedes-Benz CLA 45 AMG'
p845
S'https://www.cardekho.com/overview/Mercedes-Benz_CLA/Mercedes-Benz_CLA_45_AMG.htm'
p846
sS'Mahindra Verito 1.5 D6'
p847
S'https://www.cardekho.com/overview/Mahindra_Verito/Mahindra_Verito_1.5_D6_BSIV.htm'
p848
sS'Mahindra Verito 1.5 D4'
p849
S'https://www.cardekho.com/overview/Mahindra_Verito/Mahindra_Verito_1.5_D4_BSIV.htm'
p850
sS'Hyundai Verna 1.6 CRDI AT SX Option'
p851
S'https://www.cardekho.com/overview/Hyundai_Verna/Hyundai_Verna_1.6_CRDI_AT_SX_Option.htm'
p852
sS'Hyundai Verna 1.4 CRDi'
p853
S'https://www.cardekho.com/overview/Hyundai_Verna/Hyundai_Verna_1.4_CRDi.htm'
p854
sS'Hyundai Verna 1.6 VTVT SX Option'
p855
S'https://www.cardekho.com/overview/Hyundai_Verna/Hyundai_Verna_1.6_VTVT_SX_Option.htm'
p856
sS'Volkswagen Vento 1.6 Comfortline'
p857
S'https://www.cardekho.com/overview/Volkswagen_Vento/Volkswagen_Vento_1.6_Comfortline.htm'
p858
sS'Fiat Linea Classic 1.4 Petrol'
p859
S'https://www.cardekho.com/overview/Fiat_Linea_Classic/Fiat_Linea_Classic_1.4_Petrol.htm'
p860
sS'Toyota Corolla Altis D 4D J'
p861
S'https://www.cardekho.com/overview/Toyota_Corolla_Altis/Toyota_Corolla_Altis_D-4D_J.htm'
p862
sS'Hyundai Elantra 1.6 SX Option'
p863
S'https://www.cardekho.com/overview/Hyundai_Elantra/Hyundai_Elantra_1.6_SX_Option.htm'
p864
sS'Toyota Corolla Altis D 4D G'
p865
S'https://www.cardekho.com/overview/Toyota_Corolla_Altis/Toyota_Corolla_Altis_D-4D_G.htm'
p866
sS'Hyundai Verna 1.6 CRDi S'
p867
S'https://www.cardekho.com/overview/Hyundai_Verna/Hyundai_Verna_1.6_CRDi_S.htm'
p868
sS'Skoda Octavia Ambition Plus 1.8 TSI AT'
p869
S'https://www.cardekho.com/overview/Skoda_Octavia/Skoda_Octavia_Ambition_Plus_1.8_TSI_AT.htm'
p870
sS'Toyota Corolla Altis JS MT'
p871
S'https://www.cardekho.com/overview/Toyota_Corolla_Altis/Toyota_Corolla_Altis_JS_MT.htm'
p872
sS'Toyota Corolla Altis G MT'
p873
S'https://www.cardekho.com/overview/Toyota_Corolla_Altis/Toyota_Corolla_Altis_G_MT.htm'
p874
sS'Toyota Platinum Etios 1.4 VXD'
p875
S'https://www.cardekho.com/overview/Toyota_Etios/Toyota_Etios_1.4_VXD.htm'
p876
sS'Mercedes-Benz S-Class S 63 AMG'
p877
S'https://www.cardekho.com/overview/Mercedes-Benz_S-Class/Mercedes-Benz_S-Class_S_63_AMG.htm'
p878
sS'Hyundai Elantra 2.0 SX Option AT'
p879
S'https://www.cardekho.com/overview/Hyundai_Elantra/Hyundai_Elantra_2.0_SX_Option_AT.htm'
p880
sS'Mercedes-Benz C-Class C 63 S AMG'
p881
S'https://www.cardekho.com/overview/Mercedes-Benz_New_C-Class/Mercedes-Benz_New_C-Class_C_63_S_AMG.htm'
p882
sS'Maruti Swift Dzire VXi AT'
p883
S'https://www.cardekho.com/overview/Maruti_Swift_Dzire/Maruti_Swift_Dzire_VXi_AT.htm'
p884
sS'Fiat Linea Classic Plus With Alloy 1.3 Multijet'
p885
S'https://www.cardekho.com/overview/Fiat_Linea_Classic/Fiat_Linea_Classic_Plus_With_Alloy_1.3_Multijet.htm'
p886
sS'Ford Aspire 1.5 TDCi Ambiente'
p887
S'https://www.cardekho.com/overview/Ford_Figo_Aspire/Ford_Figo_Aspire_1.5_TDCi_Ambiente.htm'
p888
sS'Volkswagen Vento 1.5 TDI Trendline'
p889
S'https://www.cardekho.com/overview/Volkswagen_Vento/Volkswagen_Vento_1.5_TDI_Trendline.htm'
p890
sS'Mercedes-Benz C-Class C 200 CGI'
p891
S'https://www.cardekho.com/overview/Mercedes-Benz_New_C-Class/Mercedes-Benz_New_C-Class_C_200_CGI.htm'
p892
sS'Mercedes-Benz E-Class E 200 CGI'
p893
S'https://www.cardekho.com/overview/Mercedes-Benz_E-Class/Mercedes-Benz_E-Class_E_200_CGI.htm'
p894
sS'Tata Zest Quadrajet 1.3 75PS XMS'
p895
S'https://www.cardekho.com/overview/Tata_Zest/Tata_Zest_Quadrajet_1.3_75PS_XMS.htm'
p896
sS'Chevrolet Cruze LT'
p897
S'https://www.cardekho.com/overview/Chevrolet_Cruze/Chevrolet_Cruze_LT.htm'
p898
sS'Volkswagen Ameo 1.5 TDI Comfortline AT'
p899
S'https://www.cardekho.com/overview/Volkswagen_Ameo/Volkswagen_Ameo_1.5_TDI_Comfortline_AT.htm'
p900
sS'Volkswagen Vento 1.2 TSI Comfortline AT'
p901
S'https://www.cardekho.com/overview/Volkswagen_Vento/Volkswagen_Vento_1.2_TSI_Comfortline_AT.htm'
p902
sS'Mercedes-Benz S-Class S Guard'
p903
S'https://www.cardekho.com/overview/Mercedes-Benz_S-Class/Mercedes-Benz_S-Class_S_Guard.htm'
p904
sS'Honda City i VTEC VX'
p905
S'https://www.cardekho.com/overview/Honda_City/Honda_City_i_VTEC_VX.htm'
p906
sS'Honda Amaze SX i-DTEC'
p907
S'https://www.cardekho.com/overview/Honda_Amaze/Honda_Amaze_SX_i_DTEC.htm'
p908
sS'Honda City i VTEC SV'
p909
S'https://www.cardekho.com/overview/Honda_City/Honda_City_i_VTEC_SV.htm'
p910
sS'Volvo S60 T6'
p911
S'https://www.cardekho.com/overview/Volvo_S60/Volvo_S60_T6.htm'
p912
sS'Renault Scala Diesel RxL'
p913
S'https://www.cardekho.com/overview/Renault_Scala/Renault_Scala_Diesel_RxL.htm'
p914
sS'Chevrolet Cruze LTZ AT'
p915
S'https://www.cardekho.com/overview/Chevrolet_Cruze/Chevrolet_Cruze_LTZ_AT.htm'
p916
sS'Hyundai Xcent 1.2 Kappa SX'
p917
S'https://www.cardekho.com/overview/Hyundai_Xcent/Hyundai_Xcent_1.2_Kappa_SX.htm'
p918
sS'Toyota Corolla Altis 1.8 Limited Edition'
p919
S'https://www.cardekho.com/overview/Toyota_Corolla_Altis/Toyota_Corolla_Altis_1.8_Limited_Edition.htm'
p920
sS'Honda Amaze E i-DTEC'
p921
S'https://www.cardekho.com/overview/Honda_Amaze/Honda_Amaze_E_i-DTEC.htm'
p922
sS'Mercedes-Benz E-Class E250 CDI Avantgarde'
p923
S'https://www.cardekho.com/overview/Mercedes-Benz_E-Class/Mercedes-Benz_E-Class_E250_CDI_Avantgarde.htm'
p924
sS'Maruti Ciaz ZDi SHVS'
p925
S'https://www.cardekho.com/overview/Maruti_Ciaz/Maruti_Ciaz_ZDi_SHVS.htm'
p926
sS'Hyundai Elantra 1.6 SX Option AT'
p927
S'https://www.cardekho.com/overview/Hyundai_Elantra/Hyundai_Elantra_1.6_SX_Option_AT.htm'
p928
sS'Mercedes-Benz CLA 200 CDI Sport'
p929
S'https://www.cardekho.com/overview/Mercedes-Benz_CLA/Mercedes-Benz_CLA_200_CDI_Sport.htm'
p930
sS'Hyundai Xcent 1.2 Kappa S AT'
p931
S'https://www.cardekho.com/overview/Hyundai_Xcent/Hyundai_Xcent_1.2_Kappa_S_AT.htm'
p932
sS'Renault Scala Diesel RxZ'
p933
S'https://www.cardekho.com/overview/Renault_Scala/Renault_Scala_Diesel_RxZ.htm'
p934
sS'Hyundai Xcent 1.2 Kappa Base'
p935
S'https://www.cardekho.com/overview/Hyundai_Xcent/Hyundai_Xcent_1.2_Kappa_Base.htm'
p936
sS'Honda Amaze S Option i-VTEC'
p937
S'https://www.cardekho.com/overview/Honda_Amaze/Honda_Amaze_S_Option_i-VTEC.htm'
p938
sS'Ford Aspire 1.5 TDCi Titanium Plus'
p939
S'https://www.cardekho.com/overview/Ford_Figo_Aspire/Ford_Figo_Aspire_1.5_TDCi_Titanium_Plus.htm'
p940
sS'Skoda Superb Style 1.8 TSI AT'
p941
S'https://www.cardekho.com/overview/Skoda_Superb/Skoda_Superb_Style_1.8_TSI_AT.htm'
p942
sS'Skoda Octavia Ambition Plus 2.0 TDI MT'
p943
S'https://www.cardekho.com/overview/Skoda_Octavia/Skoda_Octavia_Ambition_Plus_2.0_TDI_MT.htm'
p944
sS'Maruti Swift Dzire LXI Optional-O'
p945
S'https://www.cardekho.com/overview/Maruti_Swift_Dzire/Maruti_Swift_Dzire_LXI_Optional-O.htm'
p946
sS'Mercedes-Benz S-Class Maybach S600 Guard'
p947
S'https://www.cardekho.com/overview/Mercedes-Benz_S-Class/Mercedes-Benz_S-Class_Maybach_S600_Guard.htm'
p948
sS'Maruti Swift Dzire LDI'
p949
S'https://www.cardekho.com/overview/Maruti_Swift_Dzire/Maruti_Swift_Dzire_LDI.htm'
p950
sS'Audi A6 35 TFSI Matrix'
p951
S'https://www.cardekho.com/overview/Audi_A6/Audi_A6_35_TFSI_Matrix.htm'
p952
sS'Hyundai Xcent 1.1 CRDi SX Option'
p953
S'https://www.cardekho.com/overview/Hyundai_Xcent/Hyundai_Xcent_1.1_CRDi_SX_Option.htm'
p954
sS'Volkswagen Jetta 2.0L TDI Comfortline'
p955
S'https://www.cardekho.com/overview/Volkswagen_Jetta/Volkswagen_Jetta_2.0L_TDI_Comfortline.htm'
p956
sS'Hyundai Xcent 1.2 Kappa S'
p957
S'https://www.cardekho.com/overview/Hyundai_Xcent/Hyundai_Xcent_1.2_Kappa_S.htm'
p958
sS'Tata Indigo eCS Emax CNG GLS'
p959
S'https://www.cardekho.com/overview/Tata_Indigo_CS/Tata_Indigo_CS_Emax_CNG_GLS.htm'
p960
sS'Honda Amaze E Option i-VTEC'
p961
S'https://www.cardekho.com/overview/Honda_Amaze/Honda_Amaze_E_Option_i-VTEC.htm'
p962
sS'Volkswagen Jetta 2.0L TDI Highline'
p963
S'https://www.cardekho.com/overview/Volkswagen_Jetta/Volkswagen_Jetta_2.0L_TDI_Highline.htm'
p964
sS'Fiat Linea Power Up 1.4 T-Jet Emotion'
p965
S'https://www.cardekho.com/overview/Fiat_Linea/Fiat_Linea_125S.htm'
p966
sS'Honda City i DTec SV'
p967
S'https://www.cardekho.com/overview/Honda_City/Honda_City_i_DTec_SV.htm'
p968
ssS'MUV'
p969
(dp970
S'ICML Extreme DI Non Ac 9Seater BSIII'
p971
S'https://www.cardekho.com/overview/ICML_Extreme/ICML_Extreme_LD_DI_Non-Ac_9Seater_BSIII.htm'
p972
sS'Toyota Innova 2.5 GX (Diesel) 7 Seater'
p973
S'https://www.cardekho.com/overview/Toyota_Innova/Toyota_Innova_2.5_GX_(Diesel)_7_Seater_BS_IV.htm'
p974
sS'Honda Mobilio V i VTEC'
p975
S'https://www.cardekho.com/overview/Honda_Mobilio/Honda_Mobilio_V_i-VTEC.htm'
p976
sS'Tata Aria Pleasure 4x2'
p977
S'https://www.cardekho.com/overview/Tata_Aria/Tata_Aria_Pleasure_4x2.htm'
p978
sS'Chevrolet Tavera Neo 3 LS 9 Str BSIII'
p979
S'https://www.cardekho.com/overview/Chevrolet_Tavera/Chevrolet_Tavera_Neo_3_LS_9_Str_BSIII.htm'
p980
sS'Honda Mobilio RS Option i DTEC'
p981
S'https://www.cardekho.com/overview/Honda_Mobilio/Honda_Mobilio_RS_Option_i-DTEC.htm'
p982
sS'Renault Lodgy World Edition 110PS'
p983
S'https://www.cardekho.com/overview/Renault_Lodgy/Renault_Lodgy_World_Edition_110PS.htm'
p984
sS'Toyota Innova 2.5 ZX Diesel 7 Seater'
p985
S'https://www.cardekho.com/overview/Toyota_Innova/Toyota_Innova_2.5_ZX_Diesel_7_Seater.htm'
p986
sS'ICML Extreme Van BSIII Non AC'
p987
S'https://www.cardekho.com/overview/ICML_Extreme/ICML_Extreme_Van_BSIII_Non_AC.htm'
p988
sS'Chevrolet Tavera Neo 3 LS 7 Seats BSIII'
p989
S'https://www.cardekho.com/overview/Chevrolet_Tavera/Chevrolet_Tavera_Neo_3_LS_7_Seats_BSIII.htm'
p990
sS'Mahindra Xylo D2 Maxx BSIV'
p991
S'https://www.cardekho.com/overview/Mahindra_Xylo/Mahindra_Xylo_D2_Maxx_BSIV.htm'
p992
sS'Honda Mobilio E i VTEC'
p993
S'https://www.cardekho.com/overview/Honda_Mobilio/Honda_Mobilio_E_i-VTEC.htm'
p994
sS'Mahindra Xylo D4'
p995
S'https://www.cardekho.com/overview/Mahindra_Xylo/Mahindra_Xylo_D4.htm'
p996
sS'Datsun GO Plus A EPS'
p997
S'https://www.cardekho.com/overview/Datsun_GO_Plus/Datsun_GO_Plus_A_EPS.htm'
p998
sS'Mahindra Xylo D2'
p999
S'https://www.cardekho.com/overview/Mahindra_Xylo/Mahindra_Xylo_D2_BS_IV.htm'
p1000
sS'ICML Extreme Xciter CRDFi 9Seater BSIV'
p1001
S'https://www.cardekho.com/overview/ICML_Extreme/ICML_Extreme_SD_CRDFi_9Seater_BSIV.htm'
p1002
sS'Chevrolet Tavera Neo 3 10 Seats BSIII'
p1003
S'https://www.cardekho.com/overview/Chevrolet_Tavera/Chevrolet_Tavera_Neo_3_10_Seats_BSIII.htm'
p1004
sS'Honda Mobilio S i VTEC'
p1005
S'https://www.cardekho.com/overview/Honda_Mobilio/Honda_Mobilio_S_i-VTEC.htm'
p1006
sS'Chevrolet Tavera Neo 3 LS 7 C BSIII'
p1007
S'https://www.cardekho.com/overview/Chevrolet_Tavera/Chevrolet_Tavera_Neo_3_LS_7_C_BSIII.htm'
p1008
sS'Toyota Innova Crysta 2.7 GX MT 8S'
p1009
S'https://www.cardekho.com/overview/Toyota_Innova_Crysta/Toyota_Innova_Crysta_2.7_GX_MT_8S.htm'
p1010
sS'Honda Mobilio V Option i VTEC'
p1011
S'https://www.cardekho.com/overview/Honda_Mobilio/Honda_Mobilio_V_Option_i-VTEC.htm'
p1012
sS'Toyota Innova Crysta 2.7 GX MT'
p1013
S'https://www.cardekho.com/overview/Toyota_Innova_Crysta/Toyota_Innova_Crysta_2.7_GX_MT.htm'
p1014
sS'ICML Extreme Winner DI PS AC 9Seater BSIII'
p1015
S'https://www.cardekho.com/overview/ICML_Extreme/ICML_Extreme_LD_DI_PS_AC_9Seater_BSIII.htm'
p1016
sS'Toyota Innova 2.5 GX (Diesel) 8 Seater'
p1017
S'https://www.cardekho.com/overview/Toyota_Innova/Toyota_Innova_2.5_GX_(Diesel)_8_Seater_BS_IV.htm'
p1018
sS'Chevrolet Enjoy 1.4 LT 8'
p1019
S'https://www.cardekho.com/overview/Chevrolet_Enjoy/Chevrolet_Enjoy_1.4_LT_8.htm'
p1020
sS'Maruti Ertiga SHVS LDI'
p1021
S'https://www.cardekho.com/overview/Maruti_Ertiga/Maruti_Ertiga_SHVS_LDI.htm'
p1022
sS'Chevrolet Enjoy 1.4 LT 7'
p1023
S'https://www.cardekho.com/overview/Chevrolet_Enjoy/Chevrolet_Enjoy_1.4_LT_7.htm'
p1024
sS'Mahindra Xylo D2 Maxx'
p1025
S'https://www.cardekho.com/overview/Mahindra_Xylo/Mahindra_Xylo_D2_Maxx.htm'
p1026
sS'Toyota Innova Crysta 2.4 G MT'
p1027
S'https://www.cardekho.com/overview/Toyota_Innova_Crysta/Toyota_Innova_Crysta_2.4_G_MT.htm'
p1028
sS'Toyota Innova Crysta 2.4 GX MT 8S'
p1029
S'https://www.cardekho.com/overview/Toyota_Innova_Crysta/Toyota_Innova_Crysta_2.4_GX_MT_8S.htm'
p1030
sS'Honda Mobilio V i DTEC'
p1031
S'https://www.cardekho.com/overview/Honda_Mobilio/Honda_Mobilio_V_i-DTEC.htm'
p1032
sS'ICML Extreme  Xciter DI 9Seater BSIII'
p1033
S'https://www.cardekho.com/overview/ICML_Extreme/ICML_Extreme_SD_DI_9Seater_BSIII.htm'
p1034
sS'Toyota Innova Crysta 2.4 VX MT'
p1035
S'https://www.cardekho.com/overview/Toyota_Innova_Crysta/Toyota_Innova_Crysta_2.4_VX_MT.htm'
p1036
sS'Toyota Innova 2.5 VX (Diesel) 8 Seater'
p1037
S'https://www.cardekho.com/overview/Toyota_Innova/Toyota_Innova_2.5_VX_(Diesel)_8_Seater_BS_IV.htm'
p1038
sS'Honda Mobilio S i DTEC'
p1039
S'https://www.cardekho.com/overview/Honda_Mobilio/Honda_Mobilio_S_i-DTEC.htm'
p1040
sS'Mercedes-Benz B-Class B180 Sport'
p1041
S'https://www.cardekho.com/overview/Mercedes-Benz_B_Class/Mercedes-Benz_B_Class_B180_Sport.htm'
p1042
sS'Toyota Innova Crysta 2.4 G MT 8S'
p1043
S'https://www.cardekho.com/overview/Toyota_Innova_Crysta/Toyota_Innova_Crysta_2.4_G_MT_8S.htm'
p1044
sS'Tata Aria Pride 4x4'
p1045
S'https://www.cardekho.com/overview/Tata_Aria/Tata_Aria_Pride_4x4.htm'
p1046
sS'Toyota Innova Crysta 2.7 VX MT'
p1047
S'https://www.cardekho.com/overview/Toyota_Innova_Crysta/Toyota_Innova_Crysta_2.7_VX_MT.htm'
p1048
sS'Renault Lodgy 85PS Std'
p1049
S'https://www.cardekho.com/overview/Renault_Lodgy/Renault_Lodgy_85PS_Std.htm'
p1050
sS'Toyota Innova Crysta 2.8 GX AT 8S'
p1051
S'https://www.cardekho.com/overview/Toyota_Innova_Crysta/Toyota_Innova_Crysta_2.8_GX_AT_8S.htm'
p1052
sS'Chevrolet Tavera Neo 3 Max 10 Seats BSIII'
p1053
S'https://www.cardekho.com/overview/Chevrolet_Tavera/Chevrolet_Tavera_Neo_3_Max_10_Seats_BSIII.htm'
p1054
sS'Chevrolet Enjoy 1.3 TCDi LTZ 8'
p1055
S'https://www.cardekho.com/overview/Chevrolet_Enjoy/Chevrolet_Enjoy_1.3_TCDi_LTZ_8.htm'
p1056
sS'Chevrolet Enjoy 1.3 TCDi LS 8'
p1057
S'https://www.cardekho.com/overview/Chevrolet_Enjoy/Chevrolet_Enjoy_1.3_TCDi_LS_8.htm'
p1058
sS'Chevrolet Enjoy 1.3 TCDi LS 7'
p1059
S'https://www.cardekho.com/overview/Chevrolet_Enjoy/Chevrolet_Enjoy_1.3_TCDi_LS_7.htm'
p1060
sS'Chevrolet Enjoy 1.3 TCDi LTZ 7'
p1061
S'https://www.cardekho.com/overview/Chevrolet_Enjoy/Chevrolet_Enjoy_1.3_TCDi_LTZ_7.htm'
p1062
sS'Toyota Innova 2.5 VX (Diesel) 7 Seater'
p1063
S'https://www.cardekho.com/overview/Toyota_Innova/Toyota_Innova_2.5_VX_(Diesel)_7_Seater_BS_IV.htm'
p1064
sS'Honda Mobilio E i DTEC'
p1065
S'https://www.cardekho.com/overview/Honda_Mobilio/Honda_Mobilio_E_i-DTEC.htm'
p1066
sS'Mahindra Xylo H4 ABS'
p1067
S'https://www.cardekho.com/overview/Mahindra_Xylo/Mahindra_Xylo_H4_ABS.htm'
p1068
sS'Maruti Ertiga SHVS ZDI'
p1069
S'https://www.cardekho.com/overview/Maruti_Ertiga/Maruti_Ertiga_SHVS_ZDI.htm'
p1070
sS'Mahindra Xylo H8'
p1071
S'https://www.cardekho.com/overview/Mahindra_Xylo/Mahindra_Xylo_H8.htm'
p1072
sS'Mahindra Xylo H4'
p1073
S'https://www.cardekho.com/overview/Mahindra_Xylo/Mahindra_Xylo_H4.htm'
p1074
sS'Renault Lodgy 85PS RxE 7 Seater'
p1075
S'https://www.cardekho.com/overview/Renault_Lodgy/Renault_Lodgy_85PS_RxE_7_Seater.htm'
p1076
sS'Chevrolet Tavera Neo 3 LT 9 Seats BSIII'
p1077
S'https://www.cardekho.com/overview/Chevrolet_Tavera/Chevrolet_Tavera_Neo_3_LT_9_Seats_BSIII.htm'
p1078
sS'Toyota Innova Crysta 2.4 GX MT'
p1079
S'https://www.cardekho.com/overview/Toyota_Innova_Crysta/Toyota_Innova_Crysta_2.4_GX_MT.htm'
p1080
sS'Mahindra Xylo D2 BS III'
p1081
S'https://www.cardekho.com/overview/Mahindra_Xylo/Mahindra_Xylo_D2_BS_III.htm'
p1082
sS'Chevrolet Enjoy 1.4 LS 7'
p1083
S'https://www.cardekho.com/overview/Chevrolet_Enjoy/Chevrolet_Enjoy_1.4_LS_7.htm'
p1084
sS'Chevrolet Enjoy 1.4 LS 8'
p1085
S'https://www.cardekho.com/overview/Chevrolet_Enjoy/Chevrolet_Enjoy_1.4_LS_8.htm'
p1086
sS'Toyota Innova Crysta 2.4 ZX MT'
p1087
S'https://www.cardekho.com/overview/Toyota_Innova_Crysta/Toyota_Innova_Crysta_2.4_ZX_MT.htm'
p1088
sS'Honda Mobilio RS i DTEC'
p1089
S'https://www.cardekho.com/overview/Honda_Mobilio/Honda_Mobilio_RS_i-DTEC.htm'
p1090
sS'ICML Extreme Winner CRDFi PS AC 9Seater BSIII'
p1091
S'https://www.cardekho.com/overview/ICML_Extreme/ICML_Extreme_LD_CRDFi_PS_AC_9Seater_BSIII.htm'
p1092
sS'ICML Extreme Xciter CRDFi 9Seater BSIII'
p1093
S'https://www.cardekho.com/overview/ICML_Extreme/ICML_Extreme_SD_CRDFi_9Seater_BSIII.htm'
p1094
sS'Datsun GO Plus Style'
p1095
S'https://www.cardekho.com/overview/Datsun_GO_Plus/Datsun_GO_Plus_Style.htm'
p1096
sS'Datsun GO Plus T Option'
p1097
S'https://www.cardekho.com/overview/Datsun_GO_Plus/Datsun_GO_Plus_T_Option.htm'
p1098
sS'ICML Extreme Delite DI 7Seater BSIII'
p1099
S'https://www.cardekho.com/overview/ICML_Extreme/ICML_Extreme_VD_DI_7Seater_BSIII.htm'
p1100
sS'Maruti Ertiga SHVS LDI Option'
p1101
S'https://www.cardekho.com/overview/Maruti_Ertiga/Maruti_Ertiga_SHVS_LDI_Option.htm'
p1102
sS'Chevrolet Tavera Neo 3 LS 10 Seats BSIII'
p1103
S'https://www.cardekho.com/overview/Chevrolet_Tavera/Chevrolet_Tavera_Neo_3_LS_10_Seats_BSIII.htm'
p1104
sS'Toyota Innova Crysta 2.8 GX AT'
p1105
S'https://www.cardekho.com/overview/Toyota_Innova_Crysta/Toyota_Innova_Crysta_2.8_GX_AT.htm'
p1106
sS'ICML Extreme Winner CRDFi AC M Stg 9Seater BSIV'
p1107
S'https://www.cardekho.com/overview/ICML_Extreme/ICML_Extreme_LD_CRDFi_AC_M_Stg_9Seater_BSIV.htm'
p1108
sS'Maruti Ertiga LXI Option'
p1109
S'https://www.cardekho.com/overview/Maruti_Ertiga/Maruti_Ertiga_LXI_Option.htm'
p1110
sS'Toyota Innova Crysta 2.4 VX MT 8S'
p1111
S'https://www.cardekho.com/overview/Toyota_Innova_Crysta/Toyota_Innova_Crysta_2.4_VX_MT_8S.htm'
p1112
sS'Chevrolet Enjoy 1.3 TCDi LT 7'
p1113
S'https://www.cardekho.com/overview/Chevrolet_Enjoy/Chevrolet_Enjoy_1.3_TCDi_LT_7.htm'
p1114
sS'ICML Extreme Winner CRDFi Non AC 9Seater BSIV'
p1115
S'https://www.cardekho.com/overview/ICML_Extreme/ICML_Extreme_LD_CRDFi_Non-AC_9Seater_BSIV.htm'
p1116
sS'Chevrolet Enjoy 1.3 TCDi LT 8'
p1117
S'https://www.cardekho.com/overview/Chevrolet_Enjoy/Chevrolet_Enjoy_1.3_TCDi_LT_8.htm'
p1118
sS'Chevrolet Enjoy 1.4 LTZ 7'
p1119
S'https://www.cardekho.com/overview/Chevrolet_Enjoy/Chevrolet_Enjoy_1.4_LTZ_7.htm'
p1120
sS'Chevrolet Enjoy 1.4 LTZ 8'
p1121
S'https://www.cardekho.com/overview/Chevrolet_Enjoy/Chevrolet_Enjoy_1.4_LTZ_8.htm'
p1122
sS'Toyota Innova Crysta 2.7 GX AT'
p1123
S'https://www.cardekho.com/overview/Toyota_Innova_Crysta/Toyota_Innova_Crysta_2.7_GX_AT.htm'
p1124
sS'Tata Aria Pure LX 4x2'
p1125
S'https://www.cardekho.com/overview/Tata_Aria/Tata_Aria_Pure_LX_4x2.htm'
p1126
sS'Toyota Innova 2.5 G (Diesel) 8 Seater'
p1127
S'https://www.cardekho.com/overview/Toyota_Innova/Toyota_Innova_2.5_G_(Diesel)_8_Seater_BS_IV.htm'
p1128
sS'Toyota Innova Crysta 2.7 GX AT 8S'
p1129
S'https://www.cardekho.com/overview/Toyota_Innova_Crysta/Toyota_Innova_Crysta_2.7_GX_AT_8S.htm'
p1130
sS'Toyota Innova Crysta 2.7 ZX AT'
p1131
S'https://www.cardekho.com/overview/Toyota_Innova_Crysta/Toyota_Innova_Crysta_2.7_ZX_AT.htm'
p1132
sS'ICML Extreme Van BSIII AC'
p1133
S'https://www.cardekho.com/overview/ICML_Extreme/ICML_Extreme_Van_BSIII_AC.htm'
p1134
sS'Mahindra Xylo D4 BS III'
p1135
S'https://www.cardekho.com/overview/Mahindra_Xylo/Mahindra_Xylo_D4_BS_III.htm'
p1136
sS'Toyota Innova Crysta 2.8 ZX AT'
p1137
S'https://www.cardekho.com/overview/Toyota_Innova_Crysta/Toyota_Innova_Crysta_2.8_ZX_AT.htm'
p1138
sS'Renault Lodgy 85PS RxE'
p1139
S'https://www.cardekho.com/overview/Renault_Lodgy/Renault_Lodgy_85PS_RxE.htm'
p1140
sS'Renault Lodgy 85PS RxL'
p1141
S'https://www.cardekho.com/overview/Renault_Lodgy/Renault_Lodgy_85PS_RxL.htm'
p1142
sS'Renault Lodgy World Edition 85PS'
p1143
S'https://www.cardekho.com/overview/Renault_Lodgy/Renault_Lodgy_World_Edition_85PS.htm'
p1144
sS'ICML Extreme Ambulance DI Non AC BSIII'
p1145
S'https://www.cardekho.com/overview/ICML_Extreme/ICML_Extreme_Ambulance_DI_Non_AC_BSIII.htm'
p1146
sS'ICML Extreme Ambulance DI AC BSIII'
p1147
S'https://www.cardekho.com/overview/ICML_Extreme/ICML_Extreme_Ambulance_DI_AC_BSIII.htm'
p1148
sS'ICML Extreme Delite CRDFi 7Seater BSIII'
p1149
S'https://www.cardekho.com/overview/ICML_Extreme/ICML_Extreme_VD_CRDFi_7Seater_BSIII.htm'
p1150
sS'Chevrolet Tavera Neo 3 Max 9 Str BSIII'
p1151
S'https://www.cardekho.com/overview/Chevrolet_Tavera/Chevrolet_Tavera_Neo_3_Max_9_Str_BSIII.htm'
p1152
sS'Honda Mobilio V Option i DTEC'
p1153
S'https://www.cardekho.com/overview/Honda_Mobilio/Honda_Mobilio_V_Option_i-DTEC.htm'
p1154
sS'Maruti Ertiga LXI'
p1155
S'https://www.cardekho.com/overview/Maruti_Ertiga/Maruti_Ertiga_LXI.htm'
p1156
sS'Maruti Ertiga SHVS ZDI Plus'
p1157
S'https://www.cardekho.com/overview/Maruti_Ertiga/Maruti_Ertiga_SHVS_ZDI_Plus.htm'
p1158
sS'Datsun GO Plus T'
p1159
S'https://www.cardekho.com/overview/Datsun_GO_Plus/Datsun_GO_Plus_T.htm'
p1160
sS'Maruti Ertiga VXI CNG'
p1161
S'https://www.cardekho.com/overview/Maruti_Ertiga/Maruti_Ertiga_VXI_CNG.htm'
p1162
sS'Mercedes-Benz B-Class B200 CDI Sport'
p1163
S'https://www.cardekho.com/overview/Mercedes-Benz_B_Class/Mercedes-Benz_B_Class_B200_CDI_Sport.htm'
p1164
sS'Datsun GO Plus A'
p1165
S'https://www.cardekho.com/overview/Datsun_GO_Plus/Datsun_GO_Plus_A.htm'
p1166
sS'Datsun GO Plus D'
p1167
S'https://www.cardekho.com/overview/Datsun_GO_Plus/Datsun_GO_Plus_D.htm'
p1168
sS'Maruti Ertiga VXI AT'
p1169
S'https://www.cardekho.com/overview/Maruti_Ertiga/Maruti_Ertiga_VXI_AT.htm'
p1170
sS'Maruti Ertiga ZXI Plus'
p1171
S'https://www.cardekho.com/overview/Maruti_Ertiga/Maruti_Ertiga_ZXI_Plus.htm'
p1172
sS'Chevrolet Tavera Neo 3 9 Str BSIII'
p1173
S'https://www.cardekho.com/overview/Chevrolet_Tavera/Chevrolet_Tavera_Neo_3_9_Str_BSIII.htm'
p1174
sS'Tata Xenon XT EX 4X4'
p1175
S'https://www.cardekho.com/overview/Tata_Xenon_XT/Tata_Xenon_XT_EX_4X4.htm'
p1176
sS'Maruti Ertiga ZXI'
p1177
S'https://www.cardekho.com/overview/Maruti_Ertiga/Maruti_Ertiga_ZXI.htm'
p1178
sS'Tata Xenon XT EX 4X2'
p1179
S'https://www.cardekho.com/overview/Tata_Xenon_XT/Tata_Xenon_XT_EX_4X2.htm'
p1180
sS'Toyota Innova 2.5 G (Diesel) 7 Seater'
p1181
S'https://www.cardekho.com/overview/Toyota_Innova/Toyota_Innova_2.5_G_(Diesel)_7_Seater_BS_IV.htm'
p1182
sS'Maruti Ertiga VXI'
p1183
S'https://www.cardekho.com/overview/Maruti_Ertiga/Maruti_Ertiga_VXI.htm'
p1184
sS'ICML Extreme Winner CRDFi PS AC 9Seater BSIV'
p1185
S'https://www.cardekho.com/overview/ICML_Extreme/ICML_Extreme_LD_CRDFi_PS_AC_9Seater_BSIV.htm'
p1186
sS'Mahindra Xylo H8 ABS with Airbags'
p1187
S'https://www.cardekho.com/overview/Mahindra_Xylo/Mahindra_Xylo_H8_ABS_with_Airbags.htm'
p1188
sS'ICML Extreme Delite CRDFi 7Seater BSIV'
p1189
S'https://www.cardekho.com/overview/ICML_Extreme/ICML_Extreme_VD_CRDFi_7Seater_BSIV.htm'
p1190
sS'Maruti Ertiga SHVS VDI'
p1191
S'https://www.cardekho.com/overview/Maruti_Ertiga/Maruti_Ertiga_SHVS_VDI.htm'
p1192
ssS'Convertibles'
p1193
(dp1194
S'Mercedes-Benz E-Class E350 Edition E'
p1195
S'https://www.cardekho.com/overview/Mercedes-Benz_E-Class/Mercedes-Benz_E-Class_E350_Edition_E.htm'
p1196
sS'Porsche 911 Turbo S'
p1197
S'https://www.cardekho.com/overview/Porsche_911/Porsche_911_Turbo_S.htm'
p1198
sS'Jaguar F Type S Coupe'
p1199
S'https://www.cardekho.com/overview/Jaguar_F_Type/Jaguar_F_Type_S_Coupe.htm'
p1200
sS'Rolls Royce Phantom Series II'
p1201
S'https://www.cardekho.com/overview/Rolls-Royce_Phantom/Rolls-Royce_Phantom_Phantom.htm'
p1202
sS'Bentley Continental GT Speed Convertible'
p1203
S'https://www.cardekho.com/overview/Bentley_Continental/Bentley_Continental_GT_Speed_Convertible.htm'
p1204
sS'Mercedes-Benz E-Class E400 Cabriolet'
p1205
S'https://www.cardekho.com/overview/Mercedes-Benz_E-Class/Mercedes-Benz_E-Class_E400_Cabriolet.htm'
p1206
sS'Bugatti Veyron 16.4 Grand Sport'
p1207
S'https://www.cardekho.com/overview/Bugatti_Veyron/Bugatti_Veyron_16.4_Grand_Sport.htm'
p1208
sS'Rolls Royce Phantom Extended Wheelbase'
p1209
S'https://www.cardekho.com/overview/Rolls-Royce_Phantom/Rolls-Royce_Phantom_Extended_Wheelbase.htm'
p1210
sS'Bentley Continental GT V8 S Convertible'
p1211
S'https://www.cardekho.com/overview/Bentley_Continental/Bentley_Continental_GT_V8_S_Convertible.htm'
p1212
sS'Jaguar F-Type Coupe'
p1213
S'https://www.cardekho.com/overview/Jaguar_F_Type/Jaguar_F_Type_Coupe.htm'
p1214
sS'Porsche 911 Turbo Cabriolet'
p1215
S'https://www.cardekho.com/overview/Porsche_911/Porsche_911_Turbo_Cabriolet.htm'
p1216
sS'Porsche 911 Carrera S'
p1217
S'https://www.cardekho.com/overview/Porsche_911/Porsche_911_Carrera_S.htm'
p1218
sS'Porsche 911 Turbo'
p1219
S'https://www.cardekho.com/overview/Porsche_911/Porsche_911_Turbo.htm'
p1220
sS'Mercedes-Benz SLC 43 AMG'
p1221
S'https://www.cardekho.com/overview/Mercedes-Benz_SLC/Mercedes-Benz_SLC_43_AMG.htm'
p1222
sS'Jaguar F Type 3.0 V6 S'
p1223
S'https://www.cardekho.com/overview/Jaguar_F_Type/Jaguar_F_Type_3.0_V6_S.htm'
p1224
sS'Mercedes-Benz E-Class E350 CDI Avantgrade'
p1225
S'https://www.cardekho.com/overview/Mercedes-Benz_E-Class/Mercedes-Benz_E-Class_E350_CDI_Avantgrade.htm'
p1226
sS'Lamborghini Aventador Roadster LP 700 4'
p1227
S'https://www.cardekho.com/overview/Lamborghini_Aventador/Lamborghini_Aventador_Roadster_LP_700_4.htm'
p1228
sS'Porsche 911 Turbo S Cabriolet'
p1229
S'https://www.cardekho.com/overview/Porsche_911/Porsche_911_Turbo_S_Cabriolet.htm'
p1230
sS'Bentley Continental GT V8 Convertible'
p1231
S'https://www.cardekho.com/overview/Bentley_Continental/Bentley_Continental_GT_V8_Convertible.htm'
p1232
sS'Mercedes-Benz E-Class E 63 AMG'
p1233
S'https://www.cardekho.com/overview/Mercedes-Benz_E-Class/Mercedes-Benz_E-Class_E_63_AMG.htm'
p1234
sS'Mercedes-Benz E-Class E 200 CGI'
p1235
S'https://www.cardekho.com/overview/Mercedes-Benz_E-Class/Mercedes-Benz_E-Class_E_200_CGI.htm'
p1236
sS'Rolls-Royce Dawn Convertible'
p1237
S'https://www.cardekho.com/overview/Rolls-Royce_Dawn/Rolls-Royce_Dawn_Convertible.htm'
p1238
sS'Bentley Continental GT V8'
p1239
S'https://www.cardekho.com/overview/Bentley_Continental/Bentley_Continental_GT_V8.htm'
p1240
sS'Mercedes-Benz E-Class E200 Edition E'
p1241
S'https://www.cardekho.com/overview/Mercedes-Benz_E-Class/Mercedes-Benz_E-Class_E200_Edition_E.htm'
p1242
sS'Rolls Royce Phantom Coupe'
p1243
S'https://www.cardekho.com/overview/Rolls-Royce_Phantom/Rolls-Royce_Phantom_Coupe.htm'
p1244
sS'Jaguar F Type R Coupe'
p1245
S'https://www.cardekho.com/overview/Jaguar_F_Type/Jaguar_F_Type_R_Coupe.htm'
p1246
sS'Mercedes-Benz E-Class E250 CDI Avantgarde'
p1247
S'https://www.cardekho.com/overview/Mercedes-Benz_E-Class/Mercedes-Benz_E-Class_E250_CDI_Avantgarde.htm'
p1248
sS'BMW Z4 35i DPT'
p1249
S'https://www.cardekho.com/overview/BMW_Z4/BMW_Z4_35i_DPT.htm'
p1250
sS'Jaguar F Type 5.0 V8 S'
p1251
S'https://www.cardekho.com/overview/Jaguar_F_Type/Jaguar_F_Type_5.0_V8_S.htm'
p1252
sS'Maserati GranCabrio 4.7 V8'
p1253
S'https://www.cardekho.com/overview/Maserati_Gran_Cabrio/Maserati_Gran_Cabrio_4.7_V8.htm'
p1254
sS'Porsche 911 Carrera'
p1255
S'https://www.cardekho.com/overview/Porsche_911/Porsche_911_Carrera.htm'
p1256
sS'Bentley Continental GT V8 S'
p1257
S'https://www.cardekho.com/overview/Bentley_Continental/Bentley_Continental_GT_V8_S.htm'
p1258
sS'Porsche 911 Carrera Cabriolet'
p1259
S'https://www.cardekho.com/overview/Porsche_911/Porsche_911_Carrera_Cabriolet.htm'
p1260
sS'Bentley Continental GTC'
p1261
S'https://www.cardekho.com/overview/Bentley_Continental/Bentley_Continental_GTC.htm'
p1262
sS'Rolls Royce Phantom Drophead Coupe'
p1263
S'https://www.cardekho.com/overview/Rolls-Royce_Phantom/Rolls-Royce_Phantom_Drophead_Coupe.htm'
p1264
sS'BMW Z4 35i'
p1265
S'https://www.cardekho.com/overview/BMW_Z4/BMW_Z4_35i.htm'
p1266
sS'Mini Cooper Convertible S'
p1267
S'https://www.cardekho.com/overview/Mini_Cooper_Convertible/Mini_Cooper_Convertible_S.htm'
p1268
sS'Porsche Boxster GTS'
p1269
S'https://www.cardekho.com/overview/Porsche_Boxster/Porsche_Boxster_GTS.htm'
p1270
sS'Ferrari California T T'
p1271
S'https://www.cardekho.com/overview/Ferrari_California/Ferrari_California_T.htm'
p1272
sS'Bentley Continental GT'
p1273
S'https://www.cardekho.com/overview/Bentley_Continental/Bentley_Continental_GT.htm'
p1274
sS'Lamborghini Aventador LP700 4'
p1275
S'https://www.cardekho.com/overview/Lamborghini_Aventador/Lamborghini_Aventador_LP700_4.htm'
p1276
sS'Bentley Continental GT Speed'
p1277
S'https://www.cardekho.com/overview/Bentley_Continental/Bentley_Continental_GT_Speed.htm'
p1278
sS'Audi A3 cabriolet 40 TFSI Premium Plus'
p1279
S'https://www.cardekho.com/overview/Audi_A3_cabriolet/Audi_A3_cabriolet_40_TFSI_Premium_Plus.htm'
p1280
sS'Porsche Boxster S'
p1281
S'https://www.cardekho.com/overview/Porsche_Boxster/Porsche_Boxster_S.htm'
p1282
sS'Porsche 911 Carrera S Cabriolet'
p1283
S'https://www.cardekho.com/overview/Porsche_911/Porsche_911_Carrera_S_Cabriolet.htm'
p1284
sS'Mercedes-Benz E-Class E250 Edition E'
p1285
S'https://www.cardekho.com/overview/Mercedes-Benz_E-Class/Mercedes-Benz_E-Class_E250_Edition_E.htm'
p1286
ssS'Minivans'
p1287
(dp1288
S'Mahindra Supro VX 5 Str BSIII'
p1289
S'https://www.cardekho.com/overview/Mahindra_Supro/Mahindra_Supro_VX_5_Str_BSIII.htm'
p1290
sS'Mahindra Supro VX 8 Str BSIII'
p1291
S'https://www.cardekho.com/overview/Mahindra_Supro/Mahindra_Supro_VX_8_Str_BSIII.htm'
p1292
sS'Maruti Omni E MPI STD BS IV'
p1293
S'https://www.cardekho.com/overview/Maruti_Omni/Maruti_Omni_E_MPI_STD_BSIV.htm'
p1294
sS'Maruti Eeco 5 Seater Standard'
p1295
S'https://www.cardekho.com/overview/Maruti_Eeco/Maruti_Eeco_5_Seater_Standard.htm'
p1296
sS'Mahindra Supro ZX 5 Str'
p1297
S'https://www.cardekho.com/overview/Mahindra_Supro/Mahindra_Supro_ZX_5_Str.htm'
p1298
sS'Maruti Eeco 5 Seater AC'
p1299
S'https://www.cardekho.com/overview/Maruti_Eeco/Maruti_Eeco_5_Seater_AC.htm'
p1300
sS'Mahindra Supro LX 8 Str BSIII'
p1301
S'https://www.cardekho.com/overview/Mahindra_Supro/Mahindra_Supro_LX_8_Str_BSIII.htm'
p1302
sS'Maruti Omni MPI CARGO'
p1303
S'https://www.cardekho.com/overview/Maruti_Omni/Maruti_Omni_MPI_CARGO_BSIV.htm'
p1304
sS'Mahindra Supro LX 8 Str'
p1305
S'https://www.cardekho.com/overview/Mahindra_Supro/Mahindra_Supro_LX_8_Str.htm'
p1306
sS'Maruti Omni MPI Ambulance'
p1307
S'https://www.cardekho.com/overview/Maruti_Omni/Maruti_Omni_MPI_Ambulance_BSIV.htm'
p1308
sS'Maruti Eeco CNG HTR 5 STR'
p1309
S'https://www.cardekho.com/overview/Maruti_Eeco/Maruti_Eeco_CNG_HTR_5-STR.htm'
p1310
sS'Maruti Eeco CNG 5 Seater AC'
p1311
S'https://www.cardekho.com/overview/Maruti_Eeco/Maruti_Eeco_CNG_5_Seater_AC.htm'
p1312
sS'Mahindra Supro VX 8 Str'
p1313
S'https://www.cardekho.com/overview/Mahindra_Supro/Mahindra_Supro_VX_8_Str.htm'
p1314
sS'Mahindra Supro ZX 5 Str BSIII'
p1315
S'https://www.cardekho.com/overview/Mahindra_Supro/Mahindra_Supro_ZX_5_Str_BSIII.htm'
p1316
sS'Maruti Omni MPI STD'
p1317
S'https://www.cardekho.com/overview/Maruti_Omni/Maruti_Omni_MPI_STD_BSIV.htm'
p1318
sS'Mahindra Supro VX 5 Str'
p1319
S'https://www.cardekho.com/overview/Mahindra_Supro/Mahindra_Supro_VX_5_Str.htm'
p1320
sS'Maruti Eeco 7 Seater Standard'
p1321
S'https://www.cardekho.com/overview/Maruti_Eeco/Maruti_Eeco_7_Seater_Standard.htm'
p1322
sS'Maruti Eeco Flexi Green'
p1323
S'https://www.cardekho.com/overview/Maruti_Eeco/Maruti_Eeco_Flexi_Green.htm'
p1324
sS'Maruti Eeco Ambulance Petrol AC Plus HTR'
p1325
S'https://www.cardekho.com/overview/Maruti_Eeco/Maruti_Eeco_Ambulance_Petrol_AC_Plus_HTR.htm'
p1326
ssS'Hybrid'
p1327
(dp1328
S'BMW i8 Hybrid'
p1329
S'https://www.cardekho.com/overview/BMW_i8/BMW_i8_Hybrid.htm'
p1330
sS'Volvo XC90 D5 Momentum'
p1331
S'https://www.cardekho.com/overview/Volvo_XC_90/Volvo_XC_90_D5_Momentum.htm'
p1332
sS'Volvo XC90 T8 Excellence'
p1333
S'https://www.cardekho.com/overview/Volvo_XC_90/Volvo_XC_90_T8_Excellence.htm'
p1334
sS'Volvo XC90 D5 Inscription'
p1335
S'https://www.cardekho.com/overview/Volvo_XC_90/Volvo_XC_90_D5_Inscription.htm'
p1336
sS'Toyota Camry Hybrid'
p1337
S'https://www.cardekho.com/overview/Toyota_Camry/Toyota_Camry_Hybrid.htm'
p1338
sS'Toyota Camry 2.5 G'
p1339
S'https://www.cardekho.com/overview/Toyota_Camry/Toyota_Camry_2.5_G.htm'
p1340
sS'Toyota Prius Z6'
p1341
S'https://www.cardekho.com/overview/Toyota_Prius/Toyota_Prius_Z6.htm'
p1342
sS'Toyota Prius Z5'
p1343
S'https://www.cardekho.com/overview/Toyota_Prius/Toyota_Prius_Z5.htm'
p1344
ssS'Coupe'
p1345
(dp1346
S'Maserati GranTurismo 4.2 V8'
p1347
S'https://www.cardekho.com/overview/Maserati_Gran_Turismo/Maserati_Gran_Turismo_4.2_V8.htm'
p1348
sS'Lamborghini Aventador Roadster LP 700 4'
p1349
S'https://www.cardekho.com/overview/Lamborghini_Aventador/Lamborghini_Aventador_Roadster_LP_700_4.htm'
p1350
sS'Audi TT 45 TFSI'
p1351
S'https://www.cardekho.com/overview/Audi_TT/Audi_TT_45_TFSI.htm'
p1352
sS'Jaguar F Type S Coupe'
p1353
S'https://www.cardekho.com/overview/Jaguar_F_Type/Jaguar_F_Type_S_Coupe.htm'
p1354
sS'Mercedes-Benz AMG GT S'
p1355
S'https://www.cardekho.com/overview/Mercedes-Benz_AMG_GT/Mercedes-Benz_AMG_GT_S.htm'
p1356
sS'Porsche Cayman GT4'
p1357
S'https://www.cardekho.com/overview/Porsche_Cayman/Porsche_Cayman_GT4.htm'
p1358
sS'BMW M Series M6 Gran Coupe'
p1359
S'https://www.cardekho.com/overview/BMW_M_Series/BMW_M_Series_M6_Gran_Coupe.htm'
p1360
sS'BMW M Series X6 M'
p1361
S'https://www.cardekho.com/overview/BMW_M_Series/BMW_M_Series_X6_M.htm'
p1362
sS'Rolls Royce Wraith Coupe'
p1363
S'https://www.cardekho.com/overview/Rolls-Royce_Wraith/Rolls-Royce_Wraith_Coupe.htm'
p1364
sS'Ferrari 488 GTB V8'
p1365
S'https://www.cardekho.com/overview/Ferrari_488_GTB/Ferrari_488_GTB_V8.htm'
p1366
sS'Rolls Royce Phantom Series II'
p1367
S'https://www.cardekho.com/overview/Rolls-Royce_Phantom/Rolls-Royce_Phantom_Phantom.htm'
p1368
sS'Porsche 911 Turbo S'
p1369
S'https://www.cardekho.com/overview/Porsche_911/Porsche_911_Turbo_S.htm'
p1370
sS'Bentley Continental GT Speed Convertible'
p1371
S'https://www.cardekho.com/overview/Bentley_Continental/Bentley_Continental_GT_Speed_Convertible.htm'
p1372
sS'Mercedes-Benz S-Class Maybach S500'
p1373
S'https://www.cardekho.com/overview/Mercedes-Benz_S-Class/Mercedes-Benz_S-Class_Maybach_S500.htm'
p1374
sS'Rolls Royce Phantom Extended Wheelbase'
p1375
S'https://www.cardekho.com/overview/Rolls-Royce_Phantom/Rolls-Royce_Phantom_Extended_Wheelbase.htm'
p1376
sS'Bentley Continental GT V8 S Convertible'
p1377
S'https://www.cardekho.com/overview/Bentley_Continental/Bentley_Continental_GT_V8_S_Convertible.htm'
p1378
sS'Jaguar F-Type Coupe'
p1379
S'https://www.cardekho.com/overview/Jaguar_F_Type/Jaguar_F_Type_Coupe.htm'
p1380
sS'BMW M Series M5 Sedan'
p1381
S'https://www.cardekho.com/overview/BMW_M_Series/BMW_M_Series_M5_Sedan.htm'
p1382
sS'Land Rover Range Rover Evoque Pure'
p1383
S'https://www.cardekho.com/overview/Land_Rover_Range_Rover_Evoque/Land_Rover_Range_Rover_Evoque_Pure.htm'
p1384
sS'Porsche 911 Carrera S'
p1385
S'https://www.cardekho.com/overview/Porsche_911/Porsche_911_Carrera_S.htm'
p1386
sS'Bentley Continental GT V8'
p1387
S'https://www.cardekho.com/overview/Bentley_Continental/Bentley_Continental_GT_V8.htm'
p1388
sS'Mercedes-Benz GLE 400 4MATIC'
p1389
S'https://www.cardekho.com/overview/Mercedes-Benz_GLE_Class/Mercedes-Benz_GLE_Class_400_4MATIC.htm'
p1390
sS'Mercedes-Benz S-Class S 63 AMG'
p1391
S'https://www.cardekho.com/overview/Mercedes-Benz_S-Class/Mercedes-Benz_S-Class_S_63_AMG.htm'
p1392
sS'Jaguar F Type 3.0 V6 S'
p1393
S'https://www.cardekho.com/overview/Jaguar_F_Type/Jaguar_F_Type_3.0_V6_S.htm'
p1394
sS'Porsche 911 Turbo'
p1395
S'https://www.cardekho.com/overview/Porsche_911/Porsche_911_Turbo.htm'
p1396
sS'Land Rover Range Rover Evoque Coupe HSE Dynamic'
p1397
S'https://www.cardekho.com/overview/Land_Rover_Range_Rover_Evoque/Land_Rover_Range_Rover_Evoque_Coupe_HSE_Dynamic.htm'
p1398
sS'Aston Martin Vantage V12 6.0L'
p1399
S'https://www.cardekho.com/overview/Aston_Martin_Vantage/Aston_Martin_Vantage_V12_6.0L.htm'
p1400
sS'Mercedes-Benz GLE 450 AMG Coupe'
p1401
S'https://www.cardekho.com/overview/Mercedes-Benz_GLE_Class/Mercedes-Benz_GLE_Class_Coupe.htm'
p1402
sS'Mercedes-Benz GLE 250d'
p1403
S'https://www.cardekho.com/overview/Mercedes-Benz_GLE_Class/Mercedes-Benz_GLE_Class_250d.htm'
p1404
sS'Aston Martin Vantage V8 Roadster'
p1405
S'https://www.cardekho.com/overview/Aston_Martin_Vantage/Aston_Martin_Vantage_V8_Roadster.htm'
p1406
sS'Mercedes-Benz S-Class Maybach S600'
p1407
S'https://www.cardekho.com/overview/Mercedes-Benz_S-Class/Mercedes-Benz_S-Class_Maybach_S600.htm'
p1408
sS'Mercedes-Benz GLE 350d'
p1409
S'https://www.cardekho.com/overview/Mercedes-Benz_GLE_Class/Mercedes-Benz_GLE_Class_350d.htm'
p1410
sS'Ferrari FF GT'
p1411
S'https://www.cardekho.com/overview/Ferrari_FF/Ferrari_FF_GT.htm'
p1412
sS'Mercedes-Benz S-Class S 350 CDI'
p1413
S'https://www.cardekho.com/overview/Mercedes-Benz_S-Class/Mercedes-Benz_S-Class_S_350_CDI.htm'
p1414
sS'Lamborghini Huracan LP 610 4 Spyder'
p1415
S'https://www.cardekho.com/overview/Lamborghini_Huracan/Lamborghini_Huracan_LP_610_4_Spyder.htm'
p1416
sS'Rolls Royce Phantom Drophead Coupe'
p1417
S'https://www.cardekho.com/overview/Rolls-Royce_Phantom/Rolls-Royce_Phantom_Drophead_Coupe.htm'
p1418
sS'Bentley Continental GTC'
p1419
S'https://www.cardekho.com/overview/Bentley_Continental/Bentley_Continental_GTC.htm'
p1420
sS'Audi R8 V10 Plus'
p1421
S'https://www.cardekho.com/overview/Audi_R8/Audi_R8_V10_Plus.htm'
p1422
sS'Lamborghini Huracan LP 580 2'
p1423
S'https://www.cardekho.com/overview/Lamborghini_Huracan/Lamborghini_Huracan_LP_580_2.htm'
p1424
sS'Ferrari F12berlinetta V12'
p1425
S'https://www.cardekho.com/overview/Ferrari_F12berlinetta/Ferrari_F12berlinetta_V12.htm'
p1426
sS'Rolls Royce Phantom Coupe'
p1427
S'https://www.cardekho.com/overview/Rolls-Royce_Phantom/Rolls-Royce_Phantom_Coupe.htm'
p1428
sS'Porsche Cayman GTS'
p1429
S'https://www.cardekho.com/overview/Porsche_Cayman/Porsche_Cayman_GTS.htm'
p1430
sS'Ferrari 458 Speciale V8'
p1431
S'https://www.cardekho.com/overview/Ferrari_458_Speciale/Ferrari_458_Speciale_V8.htm'
p1432
sS'Jaguar F Type R Coupe'
p1433
S'https://www.cardekho.com/overview/Jaguar_F_Type/Jaguar_F_Type_R_Coupe.htm'
p1434
sS'Jaguar F Type 5.0 V8 S'
p1435
S'https://www.cardekho.com/overview/Jaguar_F_Type/Jaguar_F_Type_5.0_V8_S.htm'
p1436
sS'Mercedes-Benz S-Class S Guard'
p1437
S'https://www.cardekho.com/overview/Mercedes-Benz_S-Class/Mercedes-Benz_S-Class_S_Guard.htm'
p1438
sS'Lamborghini Huracan AVIO'
p1439
S'https://www.cardekho.com/overview/Lamborghini_Huracan/Lamborghini_Huracan_AVIO.htm'
p1440
sS'Mercedes-Benz S-Class S 500 Coupe'
p1441
S'https://www.cardekho.com/overview/Mercedes-Benz_S-Class/Mercedes-Benz_S-Class_S_500_Coupe.htm'
p1442
sS'DC Avanti 2.0 L'
p1443
S'https://www.cardekho.com/overview/DC_Avanti/DC_Avanti_2.0_L.htm'
p1444
sS'Bentley Continental GT V8 Convertible'
p1445
S'https://www.cardekho.com/overview/Bentley_Continental/Bentley_Continental_GT_V8_Convertible.htm'
p1446
sS'Lamborghini Aventador LP700 4'
p1447
S'https://www.cardekho.com/overview/Lamborghini_Aventador/Lamborghini_Aventador_LP700_4.htm'
p1448
sS'Bentley Continental GT Speed'
p1449
S'https://www.cardekho.com/overview/Bentley_Continental/Bentley_Continental_GT_Speed.htm'
p1450
sS'Aston Martin DB11 V12'
p1451
S'https://www.cardekho.com/overview/Aston_Martin_DB11/Aston_Martin_DB11_V12.htm'
p1452
sS'Land Rover Range Rover Evoque HSE Dynamic'
p1453
S'https://www.cardekho.com/overview/Land_Rover_Range_Rover_Evoque/Land_Rover_Range_Rover_Evoque_HSE_Dynamic.htm'
p1454
sS'Porsche 911 Carrera'
p1455
S'https://www.cardekho.com/overview/Porsche_911/Porsche_911_Carrera.htm'
p1456
sS'Bentley Continental GT V8 S'
p1457
S'https://www.cardekho.com/overview/Bentley_Continental/Bentley_Continental_GT_V8_S.htm'
p1458
sS'Porsche 911 Carrera Cabriolet'
p1459
S'https://www.cardekho.com/overview/Porsche_911/Porsche_911_Carrera_Cabriolet.htm'
p1460
sS'Mercedes-Benz S-Class S400'
p1461
S'https://www.cardekho.com/overview/Mercedes-Benz_S-Class/Mercedes-Benz_S-Class_S400.htm'
p1462
sS'Land Rover Range Rover Evoque HSE'
p1463
S'https://www.cardekho.com/overview/Land_Rover_Range_Rover_Evoque/Land_Rover_Range_Rover_Evoque_HSE.htm'
p1464
sS'Aston Martin Vantage V8 4.7L'
p1465
S'https://www.cardekho.com/overview/Aston_Martin_Vantage/Aston_Martin_Vantage_V8_4.7L.htm'
p1466
sS'Porsche Cayman S Tiptronic'
p1467
S'https://www.cardekho.com/overview/Porsche_Cayman/Porsche_Cayman_S_Tiptronic.htm'
p1468
sS'Land Rover Range Rover Evoque SE'
p1469
S'https://www.cardekho.com/overview/Land_Rover_Range_Rover_Evoque/Land_Rover_Range_Rover_Evoque_SE.htm'
p1470
sS'Mercedes-Benz S-Class Maybach S600 Guard'
p1471
S'https://www.cardekho.com/overview/Mercedes-Benz_S-Class/Mercedes-Benz_S-Class_Maybach_S600_Guard.htm'
p1472
sS'Lamborghini Huracan LP 610 4'
p1473
S'https://www.cardekho.com/overview/Lamborghini_Huracan/Lamborghini_Huracan_LP_610_4.htm'
p1474
sS'BMW M Series M4 Coupe'
p1475
S'https://www.cardekho.com/overview/BMW_M_Series/BMW_M_Series_M4_Coupe.htm'
p1476
sS'BMW M Series X5 M'
p1477
S'https://www.cardekho.com/overview/BMW_M_Series/BMW_M_Series_X5_M.htm'
p1478
sS'Bentley Continental GT'
p1479
S'https://www.cardekho.com/overview/Bentley_Continental/Bentley_Continental_GT.htm'
p1480
sS'Mercedes-Benz S-Class S 63 AMG Coupe'
p1481
S'https://www.cardekho.com/overview/Mercedes-Benz_S-Class/Mercedes-Benz_S-Class_S_63_AMG_Coupe.htm'
p1482
sS'BMW M Series M3 Sedan'
p1483
S'https://www.cardekho.com/overview/BMW_M_Series/BMW_M_Series_M3_Sedan.htm'
p1484
sS'Aston Martin Vantage V8 Sport'
p1485
S'https://www.cardekho.com/overview/Aston_Martin_Vantage/Aston_Martin_Vantage_V8_Sport.htm'
p1486
sS'Aston Martin Vanquish V12'
p1487
S'https://www.cardekho.com/overview/Aston_Martin_Vanquish/Aston_Martin_Vanquish_V12.htm'
p1488
sS'Porsche 911 Turbo S Cabriolet'
p1489
S'https://www.cardekho.com/overview/Porsche_911/Porsche_911_Turbo_S_Cabriolet.htm'
p1490
sS'Porsche 911 Carrera S Cabriolet'
p1491
S'https://www.cardekho.com/overview/Porsche_911/Porsche_911_Carrera_S_Cabriolet.htm'
p1492
sS'Porsche 911 Turbo Cabriolet'
p1493
S'https://www.cardekho.com/overview/Porsche_911/Porsche_911_Turbo_Cabriolet.htm'
p1494
ssS'SUV'
p1495
(dp1496
S'Mahindra NuvoSport N6 AMT'
p1497
S'https://www.cardekho.com/overview/Mahindra_NuvoSport/Mahindra_NuvoSport_N6_AMT.htm'
p1498
sS'Mercedes-Benz GL-Class 350 CDI Blue Efficiency'
p1499
S'https://www.cardekho.com/overview/Mercedes-Benz_GL-Class/Mercedes-Benz_GL-Class_350_CDI_Blue_Efficiency.htm'
p1500
sS'BMW M Series X6 M'
p1501
S'https://www.cardekho.com/overview/BMW_M_Series/BMW_M_Series_X6_M.htm'
p1502
sS'Mahindra TUV 300 T4 Plus'
p1503
S'https://www.cardekho.com/overview/Mahindra_TUV_300/Mahindra_TUV_300_T4_Plus.htm'
p1504
sS'Mahindra Thar CRDe'
p1505
S'https://www.cardekho.com/overview/Mahindra_Thar/Mahindra_Thar_CRDe.htm'
p1506
sS'Mahindra XUV500 AT W10 FWD'
p1507
S'https://www.cardekho.com/overview/Mahindra_XUV500/Mahindra_XUV500_AT_W10_FWD.htm'
p1508
sS'Land Rover Range Rover Evoque Pure'
p1509
S'https://www.cardekho.com/overview/Land_Rover_Range_Rover_Evoque/Land_Rover_Range_Rover_Evoque_Pure.htm'
p1510
sS'Chevrolet Tavera Neo 3 LS 7 Seats BSIII'
p1511
S'https://www.cardekho.com/overview/Chevrolet_Tavera/Chevrolet_Tavera_Neo_3_LS_7_Seats_BSIII.htm'
p1512
sS'BMW X6 xDrive 40d M Sport'
p1513
S'https://www.cardekho.com/overview/BMW_X6/BMW_X6_xDrive_40d_M_Sport.htm'
p1514
sS'Mahindra TUV 300 T8 AMT'
p1515
S'https://www.cardekho.com/overview/Mahindra_TUV_300/Mahindra_TUV_300_T8_AMT.htm'
p1516
sS'Renault Duster 110PS Diesel RxZ AMT'
p1517
S'https://www.cardekho.com/overview/Renault_Duster/Renault_Duster_110PS_Diesel_RxZ_AMT.htm'
p1518
sS'Land Rover Range Rover Sport S'
p1519
S'https://www.cardekho.com/overview/Land_Rover_Range_Rover_Sport/Land_Rover_Range_Rover_Sport_S.htm'
p1520
sS'Volvo XC60 D4 Momentum'
p1521
S'https://www.cardekho.com/overview/Volvo_XC60/Volvo_XC60_D4_Momentum.htm'
p1522
sS'BMW X1 xDrive 20d xLine'
p1523
S'https://www.cardekho.com/overview/BMW_X1/BMW_X1_xDrive_20d_xLine.htm'
p1524
sS'Hyundai Creta 1.6 VTVT Anniversary Edition'
p1525
S'https://www.cardekho.com/overview/Hyundai_Creta/Hyundai_Creta_1.6_VTVT_Anniversary_Edition.htm'
p1526
sS'Mahindra KUV100 mFALCON G80 K4 Plus 5str'
p1527
S'https://www.cardekho.com/overview/Mahindra_KUV_100/Mahindra_KUV_100_mFALCON_G80_K4_Plus_5str.htm'
p1528
sS'Toyota Land Cruiser VX'
p1529
S'https://www.cardekho.com/overview/Toyota_Land_Cruiser/Toyota_Land_Cruiser_VX.htm'
p1530
sS'Maruti Gypsy King Hard Top MPI'
p1531
S'https://www.cardekho.com/overview/Maruti_Gypsy/Maruti_Gypsy_King_Hard_Top_MPI_BSIV.htm'
p1532
sS'Volvo XC90 D5 Inscription'
p1533
S'https://www.cardekho.com/overview/Volvo_XC_90/Volvo_XC_90_D5_Inscription.htm'
p1534
sS'Maruti Vitara Brezza VDi Option'
p1535
S'https://www.cardekho.com/overview/Maruti_Vitara_Brezza/Maruti_Vitara_Brezza_VDi_Option.htm'
p1536
sS'Mahindra KUV100 mFALCON D75 K8 5str'
p1537
S'https://www.cardekho.com/overview/Mahindra_KUV_100/Mahindra_KUV_100_mFALCON_D75_K8_5str.htm'
p1538
sS'Ford Ecosport 1.5 TDCi Trend Plus'
p1539
S'https://www.cardekho.com/overview/Ford_Ecosport/Ford_Ecosport_1.5_TDCi_Trend_Plus.htm'
p1540
sS'Porsche Macan Turbo'
p1541
S'https://www.cardekho.com/overview/Porsche_Macan/Porsche_Macan_Turbo.htm'
p1542
sS'Maruti S-Cross DDiS 200 Delta'
p1543
S'https://www.cardekho.com/overview/Maruti_SX4_S_Cross/Maruti_SX4_S_Cross_DDiS_200_Delta.htm'
p1544
sS'Porsche Cayenne S Diesel'
p1545
S'https://www.cardekho.com/overview/Porsche_Cayenne/Porsche_Cayenne_S_Diesel.htm'
p1546
sS'Force Gurkha Soft Top BS3 2WD'
p1547
S'https://www.cardekho.com/overview/Force_Gurkha/Force_Gurkha_Soft_Top_BS3_2WD.htm'
p1548
sS'Mahindra XUV500 AT W6 2WD'
p1549
S'https://www.cardekho.com/overview/Mahindra_XUV500/Mahindra_XUV500_AT_W6_2WD.htm'
p1550
sS'Mahindra Scorpio 1.99 S6 Plus'
p1551
S'https://www.cardekho.com/overview/Mahindra_Scorpio/Mahindra_Scorpio_1.99_S6_Plus.htm'
p1552
sS'Mahindra XUV500 AT W6 1.99 mHawk'
p1553
S'https://www.cardekho.com/overview/Mahindra_XUV500/Mahindra_XUV500_AT_W6_1.99_mHawk.htm'
p1554
sS'Mahindra NuvoSport N8 AMT'
p1555
S'https://www.cardekho.com/overview/Mahindra_NuvoSport/Mahindra_NuvoSport_N8_AMT.htm'
p1556
sS'Mahindra XUV500 AT W10 AWD'
p1557
S'https://www.cardekho.com/overview/Mahindra_XUV500/Mahindra_XUV500_AT_W10_AWD.htm'
p1558
sS'BMW X5 xDrive 30d Expedition'
p1559
S'https://www.cardekho.com/overview/BMW_X5/BMW_X5_xDrive_30d_Expedition.htm'
p1560
sS'Land Rover Discovery Sport TD4 S'
p1561
S'https://www.cardekho.com/overview/Land_Rover_Discovery_Sport/Land_Rover_Discovery_Sport_TD4_S.htm'
p1562
sS'Mahindra XUV500 AT W8 1.99 mHawk'
p1563
S'https://www.cardekho.com/overview/Mahindra_XUV500/Mahindra_XUV500_AT_W8_1.99_mHawk.htm'
p1564
sS'Honda BRV i-VTEC V CVT'
p1565
S'https://www.cardekho.com/overview/Honda_BR-V/Honda_BR-V_i-VTEC_V_CVT.htm'
p1566
sS'Mahindra TUV 300 mHAWK100 T8 AMT'
p1567
S'https://www.cardekho.com/overview/Mahindra_TUV_300/Mahindra_TUV_300_mHAWK100_T8_AMT.htm'
p1568
sS'Premier Rio CRDi4 DX'
p1569
S'https://www.cardekho.com/overview/Premier_Rio/Premier_Rio_CRDi4_DX.htm'
p1570
sS'Hyundai Creta 1.4 CRDi S Plus'
p1571
S'https://www.cardekho.com/overview/Hyundai_Creta/Hyundai_Creta_1.4_CRDi_S_Plus.htm'
p1572
sS'Ford Ecosport 1.5 Ti VCT MT Titanium'
p1573
S'https://www.cardekho.com/overview/Ford_Ecosport/Ford_Ecosport_1.5_Ti_VCT_MT_Titanium.htm'
p1574
sS'Mahindra Scorpio Getaway'
p1575
S'https://www.cardekho.com/overview/Mahindra_Scorpio/Mahindra_Scorpio_Getaway.htm'
p1576
sS'Toyota Fortuner 4x4 MT'
p1577
S'https://www.cardekho.com/overview/Toyota_Fortuner/Toyota_Fortuner_4x4_MT.htm'
p1578
sS'BMW X5 xDrive 30d Design Pure Experience 7 Seater'
p1579
S'https://www.cardekho.com/overview/BMW_X5/BMW_X5_xDrive_30d_Design_Pure_Experience_7_Seater.htm'
p1580
sS'Porsche Cayenne S Hybrid'
p1581
S'https://www.cardekho.com/overview/Porsche_Cayenne/Porsche_Cayenne_S_Hybrid.htm'
p1582
sS'Tata Safari DICOR 2.2 EX 4x2'
p1583
S'https://www.cardekho.com/overview/Tata_New_Safari/Tata_New_Safari_DICOR_2.2_EX_4x2_BS_IV.htm'
p1584
sS'Hyundai Creta 1.4 CRDi L'
p1585
S'https://www.cardekho.com/overview/Hyundai_Creta/Hyundai_Creta_1.4_CRDi_Base.htm'
p1586
sS'Mahindra Bolero Plus Non AC BSIV PS'
p1587
S'https://www.cardekho.com/overview/Mahindra_Bolero/Mahindra_Bolero_Plus_Non_AC_BSIV_PS.htm'
p1588
sS'Renault Duster 85PS Diesel STD'
p1589
S'https://www.cardekho.com/overview/Renault_Duster/Renault_Duster_85PS_Diesel_STD.htm'
p1590
sS'Audi Q3 35 TDI Quattro Premium'
p1591
S'https://www.cardekho.com/overview/Audi_Q3/Audi_Q3_35_TDI_Quattro_Premium.htm'
p1592
sS'Mahindra Bolero Special Edition'
p1593
S'https://www.cardekho.com/overview/Mahindra_Bolero/Mahindra_Bolero_Special_Edition.htm'
p1594
sS'Hyundai Creta 1.6 VTVT SX Plus'
p1595
S'https://www.cardekho.com/overview/Hyundai_Creta/Hyundai_Creta_1.6_Gamma_SX_Plus.htm'
p1596
sS'Land Rover Discovery Sport TD4 HSE 7S'
p1597
S'https://www.cardekho.com/overview/Land_Rover_Discovery_Sport/Land_Rover_Discovery_Sport_TD4_HSE_7S.htm'
p1598
sS'Mahindra Scorpio Intelli Hybrid S6 Plus'
p1599
S'https://www.cardekho.com/overview/Mahindra_Scorpio/Mahindra_Scorpio_Intelli_Hybrid_S6_Plus.htm'
p1600
sS'Hyundai Creta 1.6 VTVT AT SX Plus'
p1601
S'https://www.cardekho.com/overview/Hyundai_Creta/Hyundai_Creta_1.6_VTVT_AT_SX_Plus.htm'
p1602
sS'Ford Endeavour 3.2 Titanium AT 4X4'
p1603
S'https://www.cardekho.com/overview/Ford_Endeavour/Ford_Endeavour_3.2_Titanium_AT_4X4.htm'
p1604
sS'Mahindra Quanto C8'
p1605
S'https://www.cardekho.com/overview/Mahindra_Quanto/Mahindra_Quanto_C8.htm'
p1606
sS'Mahindra Quanto C4'
p1607
S'https://www.cardekho.com/overview/Mahindra_Quanto/Mahindra_Quanto_C4.htm'
p1608
sS'Skoda Yeti Style 4X2'
p1609
S'https://www.cardekho.com/overview/Skoda_Yeti/Skoda_Yeti_Style_4X2.htm'
p1610
sS'Mahindra Quanto C6'
p1611
S'https://www.cardekho.com/overview/Mahindra_Quanto/Mahindra_Quanto_C6.htm'
p1612
sS'Skoda Yeti Style 4X4'
p1613
S'https://www.cardekho.com/overview/Skoda_Yeti/Skoda_Yeti_Style_4X4.htm'
p1614
sS'Mahindra Quanto C2'
p1615
S'https://www.cardekho.com/overview/Mahindra_Quanto/Mahindra_Quanto_C2.htm'
p1616
sS'Land Rover Range Rover LWB 4.4 SDV8 Autobiography Black Edition'
p1617
S'https://www.cardekho.com/overview/Land_Rover_Range_Rover/Land_Rover_Range_Rover_LWB_4.4_SDV8_Autobiography_Black_Edition.htm'
p1618
sS'Maruti Gypsy King Hard Top Ambulance'
p1619
S'https://www.cardekho.com/overview/Maruti_Gypsy/Maruti_Gypsy_King_Hard_Top_Ambulance_BSIV.htm'
p1620
sS'BMW X1 xDrive 20d M Sport'
p1621
S'https://www.cardekho.com/overview/BMW_X1/BMW_X1_xDrive_20d_M_Sport.htm'
p1622
sS'Hyundai Santa Fe 4WD AT'
p1623
S'https://www.cardekho.com/overview/Hyundai_Santa_Fe/Hyundai_Santa_Fe_4WD_AT.htm'
p1624
sS'Chevrolet Tavera Neo 3 LS 10 Seats BSIII'
p1625
S'https://www.cardekho.com/overview/Chevrolet_Tavera/Chevrolet_Tavera_Neo_3_LS_10_Seats_BSIII.htm'
p1626
sS'Mahindra Bolero mHAWK D70 SLE'
p1627
S'https://www.cardekho.com/overview/Mahindra_Bolero/Mahindra_Bolero_mHAWK_D70_SLE.htm'
p1628
sS'Force One SUV SX ABS 6 Seating'
p1629
S'https://www.cardekho.com/overview/Force_One/Force_One_SX_ABS_6_Seating.htm'
p1630
sS'Tata Sumo Gold EX BSIII'
p1631
S'https://www.cardekho.com/overview/Tata_Sumo/Tata_Sumo_Gold_EX_BSIII.htm'
p1632
sS'Chevrolet Trailblazer LTZ 4X2 AT'
p1633
S'https://www.cardekho.com/overview/Chevrolet_Trailblazer/Chevrolet_Trailblazer_LTZ_4X2_AT.htm'
p1634
sS'Mahindra Bolero mHAWK D70 SLX'
p1635
S'https://www.cardekho.com/overview/Mahindra_Bolero/Mahindra_Bolero_mHAWK_D70_SLX.htm'
p1636
sS'Mahindra XUV500 W8 1.99 mHawk'
p1637
S'https://www.cardekho.com/overview/Mahindra_XUV500/Mahindra_XUV500_W8_1.99_mHawk.htm'
p1638
sS'Renault Duster 110PS Diesel RxL AMT'
p1639
S'https://www.cardekho.com/overview/Renault_Duster/Renault_Duster_110PS_Diesel_RxL_AMT.htm'
p1640
sS'Force One SUV LX 4x4'
p1641
S'https://www.cardekho.com/overview/Force_One/Force_One_4x4.htm'
p1642
sS'Mahindra Scorpio 1.99 S4'
p1643
S'https://www.cardekho.com/overview/Mahindra_Scorpio/Mahindra_Scorpio_1.99_S4.htm'
p1644
sS'Mahindra Scorpio 1.99 S8'
p1645
S'https://www.cardekho.com/overview/Mahindra_Scorpio/Mahindra_Scorpio_1.99_S8.htm'
p1646
sS'Land Rover Range Rover Sport Autobiography'
p1647
S'https://www.cardekho.com/overview/Land_Rover_Range_Rover_Sport/Land_Rover_Range_Rover_Sport_Autobiography.htm'
p1648
sS'Audi Q5 30 TDI quattro Technology'
p1649
S'https://www.cardekho.com/overview/Audi_Q5/Audi_Q5_30_TDI_quattro_Technology.htm'
p1650
sS'Mercedes-Benz GL-Class 63 AMG'
p1651
S'https://www.cardekho.com/overview/Mercedes-Benz_GL-Class/Mercedes-Benz_GL-Class_63_AMG.htm'
p1652
sS'Conquest Evade SUV'
p1653
S'https://www.cardekho.com/overview/Conquest_Evade/Conquest_Evade_SUV.htm'
p1654
sS'Mahindra KUV100 mFALCON D75 K6 Plus'
p1655
S'https://www.cardekho.com/overview/Mahindra_KUV_100/Mahindra_KUV_100_mFALCON_D75_K6_Plus.htm'
p1656
sS'Volvo XC90 T8 Excellence'
p1657
S'https://www.cardekho.com/overview/Volvo_XC_90/Volvo_XC_90_T8_Excellence.htm'
p1658
sS'Mahindra Bolero DI NON AC BS III White'
p1659
S'https://www.cardekho.com/overview/Mahindra_Bolero/Mahindra_Bolero_DI_NON_AC_BS_III_White.htm'
p1660
sS'Hyundai Creta 1.6 CRDi AT S Plus'
p1661
S'https://www.cardekho.com/overview/Hyundai_Creta/Hyundai_Creta_1.6_CRDi_AT_S_Plus.htm'
p1662
sS'Mahindra KUV100 mFALCON D75 K6 5str'
p1663
S'https://www.cardekho.com/overview/Mahindra_KUV_100/Mahindra_KUV_100_mFALCON_D75_K6_5str.htm'
p1664
sS'Renault Duster 110PS Diesel RxZ AWD'
p1665
S'https://www.cardekho.com/overview/Renault_Duster/Renault_Duster_110PS_Diesel_RxZ_AWD.htm'
p1666
sS'Volvo XC90 D5 Momentum'
p1667
S'https://www.cardekho.com/overview/Volvo_XC_90/Volvo_XC_90_D5_Momentum.htm'
p1668
sS'Tata Safari DICOR 2.2 LX 4x2'
p1669
S'https://www.cardekho.com/overview/Tata_New_Safari/Tata_New_Safari_DICOR_2.2_LX_4x2_BS_IV.htm'
p1670
sS'Mahindra XUV500 W6'
p1671
S'https://www.cardekho.com/overview/Mahindra_XUV500/Mahindra_XUV500_W6_2WD.htm'
p1672
sS'Mahindra XUV500 W4'
p1673
S'https://www.cardekho.com/overview/Mahindra_XUV500/Mahindra_XUV500_W4.htm'
p1674
sS'Mahindra NuvoSport N4 Plus'
p1675
S'https://www.cardekho.com/overview/Mahindra_NuvoSport/Mahindra_NuvoSport_N4_Plus.htm'
p1676
sS'Nissan Terrano XL'
p1677
S'https://www.cardekho.com/overview/Nissan_Terrano/Nissan_Terrano_XL.htm'
p1678
sS'Ford Endeavour 3.2 Trend AT 4X4'
p1679
S'https://www.cardekho.com/overview/Ford_Endeavour/Ford_Endeavour_3.2_Trend_AT_4X4.htm'
p1680
sS'BMW M Series X5 M'
p1681
S'https://www.cardekho.com/overview/BMW_M_Series/BMW_M_Series_X5_M.htm'
p1682
sS'Land Rover Discovery Sport SD4 HSE Luxury 7S'
p1683
S'https://www.cardekho.com/overview/Land_Rover_Discovery_Sport/Land_Rover_Discovery_Sport_SD4_HSE_Luxury_7S.htm'
p1684
sS'Mahindra Scorpio S10 AT 2WD'
p1685
S'https://www.cardekho.com/overview/Mahindra_Scorpio/Mahindra_Scorpio_S10_AT_2WD.htm'
p1686
sS'Honda BRV i-VTEC VX MT'
p1687
S'https://www.cardekho.com/overview/Honda_BR-V/Honda_BR-V_i-VTEC_VX_MT.htm'
p1688
sS'Ford Ecosport 1.0 Ecoboost Titanium Plus BE'
p1689
S'https://www.cardekho.com/overview/Ford_Ecosport/Ford_Ecosport_1.0_Ecoboost_Titanium_Plus_BE.htm'
p1690
sS'BMW M Series M6 Gran Coupe'
p1691
S'https://www.cardekho.com/overview/BMW_M_Series/BMW_M_Series_M6_Gran_Coupe.htm'
p1692
sS'Land Rover Range Rover LWB 5.0 V8 Autobiography Black Edition'
p1693
S'https://www.cardekho.com/overview/Land_Rover_Range_Rover/Land_Rover_Range_Rover_LWB_5.0_V8_Autobiography_Black_Edition.htm'
p1694
sS'Maruti S-Cross DDiS 320 Delta'
p1695
S'https://www.cardekho.com/overview/Maruti_SX4_S_Cross/Maruti_SX4_S_Cross_DDiS_320_Delta.htm'
p1696
sS'Mahindra Scorpio 1.99 S10'
p1697
S'https://www.cardekho.com/overview/Mahindra_Scorpio/Mahindra_Scorpio_1.99_S10.htm'
p1698
sS'Mahindra TUV 300 T6'
p1699
S'https://www.cardekho.com/overview/Mahindra_TUV_300/Mahindra_TUV_300_T6.htm'
p1700
sS'Mahindra TUV 300 T4'
p1701
S'https://www.cardekho.com/overview/Mahindra_TUV_300/Mahindra_TUV_300_T4.htm'
p1702
sS'Mahindra TUV 300 T8'
p1703
S'https://www.cardekho.com/overview/Mahindra_TUV_300/Mahindra_TUV_300_T8.htm'
p1704
sS'Toyota Fortuner 4x2 Manual'
p1705
S'https://www.cardekho.com/overview/Toyota_Fortuner/Toyota_Fortuner_4x2_Manual.htm'
p1706
sS'Premier Rio Petrol GX'
p1707
S'https://www.cardekho.com/overview/Premier_Rio/Premier_Rio_Petrol_GX.htm'
p1708
sS'Porsche Cayenne Base'
p1709
S'https://www.cardekho.com/overview/Porsche_Cayenne/Porsche_Cayenne_Base.htm'
p1710
sS'Mahindra Bolero SLX 2WD BSIII'
p1711
S'https://www.cardekho.com/overview/Mahindra_Bolero/Mahindra_Bolero_SLX_2WD_BSIII.htm'
p1712
sS'Mercedes-Benz GLA 45 AMG 4MATIC'
p1713
S'https://www.cardekho.com/overview/Mercedes-Benz_GLA/Mercedes-Benz_GLA_45_AMG.htm'
p1714
sS'Ford Endeavour 2.2 Trend MT 4X4'
p1715
S'https://www.cardekho.com/overview/Ford_Endeavour/Ford_Endeavour_2.2_Trend_MT_4X4.htm'
p1716
sS'Ford Ecosport 1.5 TDCi Titanium Plus BE'
p1717
S'https://www.cardekho.com/overview/Ford_Ecosport/Ford_Ecosport_1.5_TDCi_Titanium_Plus_BE.htm'
p1718
sS'Land Rover Range Rover Evoque HSE'
p1719
S'https://www.cardekho.com/overview/Land_Rover_Range_Rover_Evoque/Land_Rover_Range_Rover_Evoque_HSE.htm'
p1720
sS'Mahindra TUV 300 T6 Plus'
p1721
S'https://www.cardekho.com/overview/Mahindra_TUV_300/Mahindra_TUV_300_T6_Plus.htm'
p1722
sS'Ford Ecosport 1.0 Ecoboost Trend Plus BE'
p1723
S'https://www.cardekho.com/overview/Ford_Ecosport/Ford_Ecosport_1.0_Ecoboost_Trend_Plus_BE.htm'
p1724
sS'Maruti S-Cross DDiS 200 Alpha'
p1725
S'https://www.cardekho.com/overview/Maruti_SX4_S_Cross/Maruti_SX4_S_Cross_DDiS_200_Alpha.htm'
p1726
sS'Honda BRV i-VTEC E MT'
p1727
S'https://www.cardekho.com/overview/Honda_BR-V/Honda_BR-V_i-VTEC_E_MT.htm'
p1728
sS'Mahindra XUV500 W10 1.99 mHawk'
p1729
S'https://www.cardekho.com/overview/Mahindra_XUV500/Mahindra_XUV500_W10_1.99_mHawk.htm'
p1730
sS'Ford Ecosport 1.5 Ti VCT MT Titanium BE'
p1731
S'https://www.cardekho.com/overview/Ford_Ecosport/Ford_Ecosport_1.5_Ti_VCT_MT_Titanium_BE.htm'
p1732
sS'Premier Rio CRDi4 LX'
p1733
S'https://www.cardekho.com/overview/Premier_Rio/Premier_Rio_CRDi4_LX.htm'
p1734
sS'Maruti Vitara Brezza ZDi'
p1735
S'https://www.cardekho.com/overview/Maruti_Vitara_Brezza/Maruti_Vitara_Brezza_ZDi.htm'
p1736
sS'Renault Duster 85PS Diesel RxZ'
p1737
S'https://www.cardekho.com/overview/Renault_Duster/Renault_Duster_85PS_Diesel_RxZ.htm'
p1738
sS'Land Rover Discovery Sport TD4 SE'
p1739
S'https://www.cardekho.com/overview/Land_Rover_Discovery_Sport/Land_Rover_Discovery_Sport_TD4_SE.htm'
p1740
sS'Tata Sumo Gold CX BSIII'
p1741
S'https://www.cardekho.com/overview/Tata_Sumo/Tata_Sumo_Gold_CX_BSIII.htm'
p1742
sS'Land Rover Range Rover Evoque HSE Dynamic'
p1743
S'https://www.cardekho.com/overview/Land_Rover_Range_Rover_Evoque/Land_Rover_Range_Rover_Evoque_HSE_Dynamic.htm'
p1744
sS'Honda CR-V 2.0L 2WD AT'
p1745
S'https://www.cardekho.com/overview/Honda_CR-V/Honda_CR-V_2.0L_2WD_AT.htm'
p1746
sS'Land Rover Discovery 4 SDV6 SE'
p1747
S'https://www.cardekho.com/overview/Land_Rover_Discovery_4/Land_Rover_Discovery_4_SDV6_SE.htm'
p1748
sS'Land Rover Discovery Sport TD4 SE 7S'
p1749
S'https://www.cardekho.com/overview/Land_Rover_Discovery_Sport/Land_Rover_Discovery_Sport_TD4_SE_7S.htm'
p1750
sS'Mahindra Bolero ZLX BSIII'
p1751
S'https://www.cardekho.com/overview/Mahindra_Bolero/Mahindra_Bolero_ZLX_BSIII.htm'
p1752
sS'Hyundai Creta 1.6 CRDi AT SX Plus'
p1753
S'https://www.cardekho.com/overview/Hyundai_Creta/Hyundai_Creta_1.6_CRDi_AT_SX_Plus.htm'
p1754
sS'Mahindra KUV100 mFALCON G80 K4 Plus'
p1755
S'https://www.cardekho.com/overview/Mahindra_KUV_100/Mahindra_KUV_100_mFALCON_G80_K4_Plus.htm'
p1756
sS'Jeep Grand Cherokee Summit 4X4'
p1757
S'https://www.cardekho.com/overview/Jeep_Grand_Cherokee/Jeep_Grand_Cherokee_Summit_4X4.htm'
p1758
sS'Mahindra Scorpio S2'
p1759
S'https://www.cardekho.com/overview/Mahindra_Scorpio/Mahindra_Scorpio_S2_7_Seater.htm'
p1760
sS'Ford Endeavour 2.2 Titanium AT 4X2'
p1761
S'https://www.cardekho.com/overview/Ford_Endeavour/Ford_Endeavour_2.2_Titanium_AT_4X2.htm'
p1762
sS'Ford Ecosport 1.5 TDCi Titanium'
p1763
S'https://www.cardekho.com/overview/Ford_Ecosport/Ford_Ecosport_1.5_TDCi_Titanium.htm'
p1764
sS'Honda BRV i-DTEC V MT'
p1765
S'https://www.cardekho.com/overview/Honda_BR-V/Honda_BR-V_i-DTEC_V_MT.htm'
p1766
sS'Mahindra Bolero LX 4WD NON AC BSIV'
p1767
S'https://www.cardekho.com/overview/Mahindra_Bolero/Mahindra_Bolero_LX_4WD_NON_AC_BSIV.htm'
p1768
sS'Hyundai Creta 1.6 VTVT E'
p1769
S'https://www.cardekho.com/overview/Hyundai_Creta/Hyundai_Creta_1.6_VTVT_E.htm'
p1770
sS'Land Rover Range Rover LWB 3.0 Vogue'
p1771
S'https://www.cardekho.com/overview/Land_Rover_Range_Rover/Land_Rover_Range_Rover_LWB_3.0_Vogue.htm'
p1772
sS'BMW X1 sDrive 20d xLine'
p1773
S'https://www.cardekho.com/overview/BMW_X1/BMW_X1_sDrive_20d_xLine.htm'
p1774
sS'Hyundai Creta 1.6 VTVT S'
p1775
S'https://www.cardekho.com/overview/Hyundai_Creta/Hyundai_Creta_1.6_VTVT_S.htm'
p1776
sS'Tata Sumo Gold EX'
p1777
S'https://www.cardekho.com/overview/Tata_Sumo/Tata_Sumo_Gold_EX.htm'
p1778
sS'Mahindra Bolero ZLX'
p1779
S'https://www.cardekho.com/overview/Mahindra_Bolero/Mahindra_Bolero_ZLX.htm'
p1780
sS'Ford Ecosport 1.0 Ecoboost Titanium Plus'
p1781
S'https://www.cardekho.com/overview/Ford_Ecosport/Ford_Ecosport_1.0_Ecoboost_Titanium_Plus.htm'
p1782
sS'Mahindra KUV100 mFALCON D75 K2 Plus'
p1783
S'https://www.cardekho.com/overview/Mahindra_KUV_100/Mahindra_KUV_100_mFALCON_D75_K2_Plus.htm'
p1784
sS'Porsche Macan 2L'
p1785
S'https://www.cardekho.com/overview/Porsche_Macan/Porsche_Macan_2L.htm'
p1786
sS'Mercedes-Benz GLA 200 SPORT'
p1787
S'https://www.cardekho.com/overview/Mercedes-Benz_GLA_Class/Mercedes-Benz_GLA_Class_200.htm'
p1788
sS'Mahindra KUV100 mFALCON D75 K4 5str'
p1789
S'https://www.cardekho.com/overview/Mahindra_KUV_100/Mahindra_KUV_100_mFALCON_D75_K4_5str.htm'
p1790
sS'Toyota Fortuner 4x4 AT'
p1791
S'https://www.cardekho.com/overview/Toyota_Fortuner/Toyota_Fortuner_4x4_AT.htm'
p1792
sS'BMW M Series M3 Sedan'
p1793
S'https://www.cardekho.com/overview/BMW_M_Series/BMW_M_Series_M3_Sedan.htm'
p1794
sS'Maruti Vitara Brezza ZDi Plus'
p1795
S'https://www.cardekho.com/overview/Maruti_Vitara_Brezza/Maruti_Vitara_Brezza_ZDi_Plus.htm'
p1796
sS'BMW M Series M5 Sedan'
p1797
S'https://www.cardekho.com/overview/BMW_M_Series/BMW_M_Series_M5_Sedan.htm'
p1798
sS'Ford Ecosport 1.5 TDCi Titanium Plus'
p1799
S'https://www.cardekho.com/overview/Ford_Ecosport/Ford_Ecosport_1.5_TDCi_Titanium_Plus.htm'
p1800
sS'Honda CR-V 2.4L 4WD AT'
p1801
S'https://www.cardekho.com/overview/Honda_CR-V/Honda_CR-V_2.4L_4WD_AT.htm'
p1802
sS'Mahindra Ssangyong Rexton RX7'
p1803
S'https://www.cardekho.com/overview/Mahindra_Ssangyong_Rexton/Mahindra_Ssangyong_Rexton_RX7.htm'
p1804
sS'Mahindra KUV100 mFALCON G80 K8 5str'
p1805
S'https://www.cardekho.com/overview/Mahindra_KUV_100/Mahindra_KUV_100_mFALCON_G80_K8_5str.htm'
p1806
sS'Toyota Land Cruiser Prado VX L'
p1807
S'https://www.cardekho.com/overview/Toyota_Land_Cruiser_Prado/Toyota_Land_Cruiser_Prado_VX_L.htm'
p1808
sS'Hyundai Creta 1.6 VTVT E Plus'
p1809
S'https://www.cardekho.com/overview/Hyundai_Creta/Hyundai_Creta_1.6_VTVT_E_Plus.htm'
p1810
sS'Mahindra XUV500 AT W8 FWD'
p1811
S'https://www.cardekho.com/overview/Mahindra_XUV500/Mahindra_XUV500_AT_W8_FWD.htm'
p1812
sS'Mahindra Thar DI 4X4'
p1813
S'https://www.cardekho.com/overview/Mahindra_Thar/Mahindra_Thar_DI_4X4.htm'
p1814
sS'Mahindra Thar DI 4X2'
p1815
S'https://www.cardekho.com/overview/Mahindra_Thar/Mahindra_Thar_DI_4X2.htm'
p1816
sS'Ford Ecosport 1.5 Ti VCT AT Titanium BE'
p1817
S'https://www.cardekho.com/overview/Ford_Ecosport/Ford_Ecosport_1.5_Ti_VCT_AT_Titanium_BE.htm'
p1818
sS'Mahindra KUV100 mFALCON G80 K6 Plus 5str'
p1819
S'https://www.cardekho.com/overview/Mahindra_KUV_100/Mahindra_KUV_100_mFALCON_G80_K6_Plus_5str.htm'
p1820
sS'Honda BRV i-DTEC VX MT'
p1821
S'https://www.cardekho.com/overview/Honda_BR-V/Honda_BR-V_i-DTEC_VX_MT.htm'
p1822
sS'Renault Duster Petrol RxE'
p1823
S'https://www.cardekho.com/overview/Renault_Duster/Renault_Duster_Petrol_RxE.htm'
p1824
sS'Mahindra Scorpio Adventure Edition 2WD'
p1825
S'https://www.cardekho.com/overview/Mahindra_Scorpio/Mahindra_Scorpio_Adventure_Edition_2WD.htm'
p1826
sS'Renault Duster Petrol RxL'
p1827
S'https://www.cardekho.com/overview/Renault_Duster/Renault_Duster_Petrol_RxL.htm'
p1828
sS'Mahindra Bolero LX 4WD NON AC BS3'
p1829
S'https://www.cardekho.com/overview/Mahindra_Bolero/Mahindra_Bolero_LX_4WD_NON_AC_BS3.htm'
p1830
sS'Mahindra Scorpio Adventure Edition 4WD'
p1831
S'https://www.cardekho.com/overview/Mahindra_Scorpio/Mahindra_Scorpio_Adventure_Edition_4WD.htm'
p1832
sS'Mahindra Bolero Plus Non AC BSIII'
p1833
S'https://www.cardekho.com/overview/Mahindra_Bolero/Mahindra_Bolero_Plus_-_Non-AC_BSIII.htm'
p1834
sS'Maruti S-Cross DDiS 320 Zeta'
p1835
S'https://www.cardekho.com/overview/Maruti_SX4_S_Cross/Maruti_SX4_S_Cross_DDiS_320_Zeta.htm'
p1836
sS'Nissan Terrano XV D Premium AMT'
p1837
S'https://www.cardekho.com/overview/Nissan_Terrano/Nissan_Terrano_XV_D_Premium_AMT.htm'
p1838
sS'Mahindra KUV100 mFALCON G80 K4 5str'
p1839
S'https://www.cardekho.com/overview/Mahindra_KUV_100/Mahindra_KUV_100_mFALCON_G80_K4_5str.htm'
p1840
sS'Mahindra TUV 300 mHAWK100 T8 Dual Tone'
p1841
S'https://www.cardekho.com/overview/Mahindra_TUV_300/Mahindra_TUV_300_mHAWK100_T8_Dual_Tone.htm'
p1842
sS'Mahindra KUV100 mFALCON D75 K8'
p1843
S'https://www.cardekho.com/overview/Mahindra_KUV_100/Mahindra_KUV_100_mFALCON_D75_K8.htm'
p1844
sS'Mahindra KUV100 mFALCON D75 K6'
p1845
S'https://www.cardekho.com/overview/Mahindra_KUV_100/Mahindra_KUV_100_mFALCON_D75_K6.htm'
p1846
sS'Mahindra KUV100 mFALCON D75 K4'
p1847
S'https://www.cardekho.com/overview/Mahindra_KUV_100/Mahindra_KUV_100_mFALCON_D75_K4.htm'
p1848
sS'Mahindra KUV100 mFALCON D75 K2'
p1849
S'https://www.cardekho.com/overview/Mahindra_KUV_100/Mahindra_KUV_100_mFALCON_D75_K2.htm'
p1850
sS'Mahindra XUV500 W8 2WD'
p1851
S'https://www.cardekho.com/overview/Mahindra_XUV500/Mahindra_XUV500_W8_2WD.htm'
p1852
sS'Mercedes-Benz GLE 350d'
p1853
S'https://www.cardekho.com/overview/Mercedes-Benz_GLE_Class/Mercedes-Benz_GLE_Class_350d.htm'
p1854
sS'Mahindra Bolero EX AC'
p1855
S'https://www.cardekho.com/overview/Mahindra_Bolero/Mahindra_Bolero_EX_AC.htm'
p1856
sS'Mahindra Bolero Plus   AC BSIII'
p1857
S'https://www.cardekho.com/overview/Mahindra_Bolero/Mahindra_Bolero_Plus_-_AC_BSIII.htm'
p1858
sS'Force One SUV SX ABS 7 Seating'
p1859
S'https://www.cardekho.com/overview/Force_One/Force_One_SX_ABS_7_Seating.htm'
p1860
sS'Mahindra Bolero DI AC BS III'
p1861
S'https://www.cardekho.com/overview/Mahindra_Bolero/Mahindra_Bolero_DI_-_AC_BS_III.htm'
p1862
sS'Mahindra Bolero mHAWK D70 ZLX'
p1863
S'https://www.cardekho.com/overview/Mahindra_Bolero/Mahindra_Bolero_mHAWK_D70_ZLX.htm'
p1864
sS'Chevrolet Tavera Neo 3 10 Seats BSIII'
p1865
S'https://www.cardekho.com/overview/Chevrolet_Tavera/Chevrolet_Tavera_Neo_3_10_Seats_BSIII.htm'
p1866
sS'Mercedes-Benz GLA 200 CDI SPORT'
p1867
S'https://www.cardekho.com/overview/Mercedes-Benz_GLA_Class/Mercedes-Benz_GLA_Class_200_CDI_SPORT.htm'
p1868
sS'Mahindra Bolero Plus Non AC'
p1869
S'https://www.cardekho.com/overview/Mahindra_Bolero/Mahindra_Bolero_Plus_Non_AC.htm'
p1870
sS'Mahindra Scorpio S8 7C Seater'
p1871
S'https://www.cardekho.com/overview/Mahindra_Scorpio/Mahindra_Scorpio_S8_7C_Seater.htm'
p1872
sS'Ford Ecosport 1.5 Ti VCT MT Ambiente'
p1873
S'https://www.cardekho.com/overview/Ford_Ecosport/Ford_Ecosport_1.5_Ti_VCT_MT_Ambiente.htm'
p1874
sS'Mercedes-Benz GLS 350d 4MATIC'
p1875
S'https://www.cardekho.com/overview/Mercedes-Benz_GLS/Mercedes-Benz_GLS_350d_4MATIC.htm'
p1876
sS'Chevrolet Tavera Neo 3 LS 7 C BSIII'
p1877
S'https://www.cardekho.com/overview/Chevrolet_Tavera/Chevrolet_Tavera_Neo_3_LS_7_C_BSIII.htm'
p1878
sS'Volvo XC60 D4 KINETIC'
p1879
S'https://www.cardekho.com/overview/Volvo_XC60/Volvo_XC60_D4_KINETIC.htm'
p1880
sS'Maruti S-Cross DDiS 320 Alpha'
p1881
S'https://www.cardekho.com/overview/Maruti_SX4_S_Cross/Maruti_SX4_S_Cross_DDiS_320_Alpha.htm'
p1882
sS'Mahindra Scorpio Intelli Hybrid S4 Plus 4WD'
p1883
S'https://www.cardekho.com/overview/Mahindra_Scorpio/Mahindra_Scorpio_Intelli_Hybrid_S4_Plus_4WD.htm'
p1884
sS'Mahindra Bolero Plus AC BSIV PS'
p1885
S'https://www.cardekho.com/overview/Mahindra_Bolero/Mahindra_Bolero_Plus_AC_BSIV_PS.htm'
p1886
sS'Land Rover Discovery Sport TD4 HSE'
p1887
S'https://www.cardekho.com/overview/Land_Rover_Discovery_Sport/Land_Rover_Discovery_Sport_TD4_HSE.htm'
p1888
sS'Mahindra Bolero LX NON AC'
p1889
S'https://www.cardekho.com/overview/Mahindra_Bolero/Mahindra_Bolero_LX_NON_AC.htm'
p1890
sS'Mahindra Bolero Plus AC'
p1891
S'https://www.cardekho.com/overview/Mahindra_Bolero/Mahindra_Bolero_Plus_AC.htm'
p1892
sS'Mahindra KUV100 mFALCON G80 K6 5str'
p1893
S'https://www.cardekho.com/overview/Mahindra_KUV_100/Mahindra_KUV_100_mFALCON_G80_K6_5str.htm'
p1894
sS'Mercedes-Benz GLA 200 CDI STYLE'
p1895
S'https://www.cardekho.com/overview/Mercedes-Benz_GLA_Class/Mercedes-Benz_GLA_Class_200_CDI.htm'
p1896
sS'Mercedes-Benz GLC 220d 4MATIC Style'
p1897
S'https://www.cardekho.com/overview/Mercedes-Benz_GLC_Class/Mercedes-Benz_GLC_Class_220d_4MATIC_Style.htm'
p1898
sS'Maruti Vitara Brezza LDi Option'
p1899
S'https://www.cardekho.com/overview/Maruti_Vitara_Brezza/Maruti_Vitara_Brezza_LDi_Option.htm'
p1900
sS'Volvo XC60 D5 Inscription'
p1901
S'https://www.cardekho.com/overview/Volvo_XC60/Volvo_XC60_D5_Inscription.htm'
p1902
sS'Premier Rio GX Beieg Interior'
p1903
S'https://www.cardekho.com/overview/Premier_Rio/Premier_Rio_GX_Beieg_Interior.htm'
p1904
sS'Mercedes-Benz GLC 220d 4MATIC Sport'
p1905
S'https://www.cardekho.com/overview/Mercedes-Benz_GLC_Class/Mercedes-Benz_GLC_Class_220d_4MATIC_Sport.htm'
p1906
sS'BMW X5 xDrive 30d Design Pure Experience 5 Seater'
p1907
S'https://www.cardekho.com/overview/BMW_X5/BMW_X5_xDrive_30d_Design_Pure_Experience_5_Seater.htm'
p1908
sS'Renault Duster Adventure Edition RXZ AWD'
p1909
S'https://www.cardekho.com/overview/Renault_Duster/Renault_Duster_Adventure_Edition_RXZ_AWD.htm'
p1910
sS'Toyota Fortuner 2.5 4x2 MT TRD Sportivo'
p1911
S'https://www.cardekho.com/overview/Toyota_Fortuner/Toyota_Fortuner_2.5_4x2_MT_TRD_Sportivo.htm'
p1912
sS'Maruti Gypsy King Soft Top MPI'
p1913
S'https://www.cardekho.com/overview/Maruti_Gypsy/Maruti_Gypsy_King_Soft_Top_MPI_BSIV.htm'
p1914
sS'Ford Ecosport 1.5 Ti VCT MT Trend'
p1915
S'https://www.cardekho.com/overview/Ford_Ecosport/Ford_Ecosport_1.5_Ti_VCT_MT_Trend.htm'
p1916
sS'Audi Q7 45 TDI Quattro Technology'
p1917
S'https://www.cardekho.com/overview/Audi_Q7/Audi_Q7_45_TDI_Quattro_Technology.htm'
p1918
sS'Maruti Vitara Brezza VDi'
p1919
S'https://www.cardekho.com/overview/Maruti_Vitara_Brezza/Maruti_Vitara_Brezza_VDi.htm'
p1920
sS'BMW M Series M4 Coupe'
p1921
S'https://www.cardekho.com/overview/BMW_M_Series/BMW_M_Series_M4_Coupe.htm'
p1922
sS'Jeep Wrangler Unlimited 4X4'
p1923
S'https://www.cardekho.com/overview/Jeep_Wrangler/Jeep_Wrangler_4X4.htm'
p1924
sS'Mahindra KUV100 mFALCON G80 K2 Plus'
p1925
S'https://www.cardekho.com/overview/Mahindra_KUV_100/Mahindra_KUV_100_mFALCON_G80_K2_Plus.htm'
p1926
sS'Hyundai Creta 1.6 CRDi Anniversary Edition'
p1927
S'https://www.cardekho.com/overview/Hyundai_Creta/Hyundai_Creta_1.6_CRDi_Anniversary_Edition.htm'
p1928
sS'Mahindra TUV 300 T6 Plus AMT'
p1929
S'https://www.cardekho.com/overview/Mahindra_TUV_300/Mahindra_TUV_300_T6_Plus_AMT.htm'
p1930
sS'Ford Ecosport 1.5 TDCi Ambiente'
p1931
S'https://www.cardekho.com/overview/Ford_Ecosport/Ford_Ecosport_1.5_TDCi_Ambiente.htm'
p1932
sS'Ford Ecosport 1.5 Ti VCT AT Signature'
p1933
S'https://www.cardekho.com/overview/Ford_Ecosport/Ford_Ecosport_1.5_Ti_VCT_AT_Signature.htm'
p1934
sS'Premier Rio DX Beige Interior'
p1935
S'https://www.cardekho.com/overview/Premier_Rio/Premier_Rio_DX_Beige_Interior.htm'
p1936
sS'Tata Sumo Gold CX PS'
p1937
S'https://www.cardekho.com/overview/Tata_Sumo/Tata_Sumo_Gold_CX_PS.htm'
p1938
sS'Jeep Grand Cherokee SRT 4X4'
p1939
S'https://www.cardekho.com/overview/Jeep_Grand_Cherokee/Jeep_Grand_Cherokee_SRT_4X4.htm'
p1940
sS'Audi Q5 45 TDI quattro Technology'
p1941
S'https://www.cardekho.com/overview/Audi_Q5/Audi_Q5_45_TDI_quattro_Technology.htm'
p1942
sS'Mahindra Bolero Plus AC BSIII PS'
p1943
S'https://www.cardekho.com/overview/Mahindra_Bolero/Mahindra_Bolero_Plus_AC_BSIII_PS.htm'
p1944
sS'Hyundai Creta 1.6 CRDi SX Plus'
p1945
S'https://www.cardekho.com/overview/Hyundai_Creta/Hyundai_Creta_1.6_CRDi_SX_Plus.htm'
p1946
sS'Mitsubishi Pajero Sport 4X2 AT'
p1947
S'https://www.cardekho.com/overview/Mitsubishi_Pajero/Mitsubishi_Pajero_Sport_4X2_AT.htm'
p1948
sS'Land Rover Range Rover LWB 4.4 SDV8 Vogue SE'
p1949
S'https://www.cardekho.com/overview/Land_Rover_Range_Rover/Land_Rover_Range_Rover_LWB_4.4_SDV8_Vogue_SE.htm'
p1950
sS'Porsche Cayenne Turbo'
p1951
S'https://www.cardekho.com/overview/Porsche_Cayenne/Porsche_Cayenne_Turbo.htm'
p1952
sS'Honda BRV i-VTEC S MT'
p1953
S'https://www.cardekho.com/overview/Honda_BR-V/Honda_BR-V_i-VTEC_S_MT.htm'
p1954
sS'BMW X1 sDrive20d Expedition'
p1955
S'https://www.cardekho.com/overview/BMW_X1/BMW_X1_sDrive20d_Expedition.htm'
p1956
sS'Audi Q5 30 TDI quattro Premium Plus'
p1957
S'https://www.cardekho.com/overview/Audi_Q5/Audi_Q5_30_TDI_quattro_Premium_Plus.htm'
p1958
sS'Mahindra Bolero LX NON AC BS3'
p1959
S'https://www.cardekho.com/overview/Mahindra_Bolero/Mahindra_Bolero_LX_NON_AC_BS3.htm'
p1960
sS'Mahindra KUV100 mFALCON D75 K4 Plus'
p1961
S'https://www.cardekho.com/overview/Mahindra_KUV_100/Mahindra_KUV_100_mFALCON_D75_K4_Plus.htm'
p1962
sS'Porsche Cayenne GTS'
p1963
S'https://www.cardekho.com/overview/Porsche_Cayenne/Porsche_Cayenne_GTS.htm'
p1964
sS'Mahindra XUV500 W10 2WD'
p1965
S'https://www.cardekho.com/overview/Mahindra_XUV500/Mahindra_XUV500_W10_2WD.htm'
p1966
sS'Land Rover Range Rover LWB 4.4 SDV8 Autobiography'
p1967
S'https://www.cardekho.com/overview/Land_Rover_Range_Rover/Land_Rover_Range_Rover_LWB_4.4_SDV8_Autobiography.htm'
p1968
sS'Premier Rio Petrol GLX'
p1969
S'https://www.cardekho.com/overview/Premier_Rio/Premier_Rio_Petrol_GLX.htm'
p1970
sS'Mahindra Bolero EX NON AC'
p1971
S'https://www.cardekho.com/overview/Mahindra_Bolero/Mahindra_Bolero_EX_NON_AC.htm'
p1972
sS'Mahindra Scorpio Getaway 4WD'
p1973
S'https://www.cardekho.com/overview/Mahindra_Scorpio/Mahindra_Scorpio_Getaway_4WD.htm'
p1974
sS'Mahindra KUV100 mFALCON G80 K8'
p1975
S'https://www.cardekho.com/overview/Mahindra_KUV_100/Mahindra_KUV_100_mFALCON_G80_K8.htm'
p1976
sS'Toyota Fortuner 4x2 AT'
p1977
S'https://www.cardekho.com/overview/Toyota_Fortuner/Toyota_Fortuner_4x2_AT.htm'
p1978
sS'Honda CR-V 2.0L 2WD MT'
p1979
S'https://www.cardekho.com/overview/Honda_CR-V/Honda_CR-V_2.0L_2WD_MT.htm'
p1980
sS'Mahindra KUV100 mFALCON G80 K2'
p1981
S'https://www.cardekho.com/overview/Mahindra_KUV_100/Mahindra_KUV_100_mFALCON_G80_K2.htm'
p1982
sS'Mahindra KUV100 mFALCON G80 K6'
p1983
S'https://www.cardekho.com/overview/Mahindra_KUV_100/Mahindra_KUV_100_mFALCON_G80_K6.htm'
p1984
sS'Mahindra KUV100 mFALCON G80 K4'
p1985
S'https://www.cardekho.com/overview/Mahindra_KUV_100/Mahindra_KUV_100_mFALCON_G80_K4.htm'
p1986
sS'Mitsubishi Pajero Sport 4X2 AT Dual Tone'
p1987
S'https://www.cardekho.com/overview/Mitsubishi_Pajero/Mitsubishi_Pajero_Sport_4X2_AT_Dual_Tone.htm'
p1988
sS'Mahindra Thar DI 4X2 PS'
p1989
S'https://www.cardekho.com/overview/Mahindra_Thar/Mahindra_Thar_DI_4X2_PS.htm'
p1990
sS'Land Rover Range Rover Sport SE'
p1991
S'https://www.cardekho.com/overview/Land_Rover_Range_Rover_Sport/Land_Rover_Range_Rover_Sport_SE.htm'
p1992
sS'Maruti Vitara Brezza LDi'
p1993
S'https://www.cardekho.com/overview/Maruti_Vitara_Brezza/Maruti_Vitara_Brezza_LDi.htm'
p1994
sS'Mercedes-Benz GLE 400 4MATIC'
p1995
S'https://www.cardekho.com/overview/Mercedes-Benz_GLE_Class/Mercedes-Benz_GLE_Class_400_4MATIC.htm'
p1996
sS'Mercedes-Benz GLE 450 AMG Coupe'
p1997
S'https://www.cardekho.com/overview/Mercedes-Benz_GLE_Class/Mercedes-Benz_GLE_Class_Coupe.htm'
p1998
sS'Land Rover Range Rover LWB 5.0 V8'
p1999
S'https://www.cardekho.com/overview/Land_Rover_Range_Rover/Land_Rover_Range_Rover_LWB_5.0_V8.htm'
p2000
sS'BMW X3 xDrive20d xLine'
p2001
S'https://www.cardekho.com/overview/BMW_X3/BMW_X3_xDrive20d_xLine.htm'
p2002
sS'Audi Q7 45 TDI Quattro Premium Plus'
p2003
S'https://www.cardekho.com/overview/Audi_Q7/Audi_Q7_45_TDI_Quattro_Premium_Plus.htm'
p2004
sS'Maruti S-Cross DDiS 200 Zeta'
p2005
S'https://www.cardekho.com/overview/Maruti_SX4_S_Cross/Maruti_SX4_S_Cross_DDiS_200_Zeta.htm'
p2006
sS'Mahindra Scorpio Intelli Hybrid S10 4WD'
p2007
S'https://www.cardekho.com/overview/Mahindra_Scorpio/Mahindra_Scorpio_Intelli_Hybrid_S10_4WD.htm'
p2008
sS'Audi Q3 30 TDI S Edition'
p2009
S'https://www.cardekho.com/overview/Audi_Q3/Audi_Q3_30_TDI_S_Edition.htm'
p2010
sS'Hyundai Creta 1.4 CRDi S'
p2011
S'https://www.cardekho.com/overview/Hyundai_Creta/Hyundai_Creta_1.4_CRDi_S.htm'
p2012
sS'Land Rover Range Rover Evoque Coupe HSE Dynamic'
p2013
S'https://www.cardekho.com/overview/Land_Rover_Range_Rover_Evoque/Land_Rover_Range_Rover_Evoque_Coupe_HSE_Dynamic.htm'
p2014
sS'Mahindra Bolero Plus - Non-AC BSIII PS'
p2015
S'https://www.cardekho.com/overview/Mahindra_Bolero/Mahindra_Bolero_Plus_-_Non-AC_BSIII_PS.htm'
p2016
sS'Premier Rio DX'
p2017
S'https://www.cardekho.com/overview/Premier_Rio/Premier_Rio_DX.htm'
p2018
sS'Mitsubishi Pajero Sport 4X4'
p2019
S'https://www.cardekho.com/overview/Mitsubishi_Pajero/Mitsubishi_Pajero_Sport_4X4.htm'
p2020
sS'Land Rover Range Rover Sport HSE'
p2021
S'https://www.cardekho.com/overview/Land_Rover_Range_Rover_Sport/Land_Rover_Range_Rover_Sport_HSE.htm'
p2022
sS'Porsche Cayenne Diesel'
p2023
S'https://www.cardekho.com/overview/Porsche_Cayenne/Porsche_Cayenne_Diesel.htm'
p2024
sS'Hyundai Creta 1.6 CRDi SX Option'
p2025
S'https://www.cardekho.com/overview/Hyundai_Creta/Hyundai_Creta_1.6_CRDi_SX_Option.htm'
p2026
sS'BMW X3 xDrive30d M Sport'
p2027
S'https://www.cardekho.com/overview/BMW_X3/BMW_X3_xDrive30d_M_Sport.htm'
p2028
sS'Chevrolet Tavera Neo 3 LS 9 Str BSIII'
p2029
S'https://www.cardekho.com/overview/Chevrolet_Tavera/Chevrolet_Tavera_Neo_3_LS_9_Str_BSIII.htm'
p2030
sS'Ford Ecosport 1.5 TDCi Trend'
p2031
S'https://www.cardekho.com/overview/Ford_Ecosport/Ford_Ecosport_1.5_TDCi_Trend.htm'
p2032
sS'Porsche Cayenne Turbo S'
p2033
S'https://www.cardekho.com/overview/Porsche_Cayenne/Porsche_Cayenne_Turbo_S.htm'
p2034
sS'Mercedes-Benz GLC 300 4MATIC Sport'
p2035
S'https://www.cardekho.com/overview/Mercedes-Benz_GLC_Class/Mercedes-Benz_GLC_Class_300_4MATIC_Sport.htm'
p2036
sS'Mahindra TUV 300 mHAWK100 T8'
p2037
S'https://www.cardekho.com/overview/Mahindra_TUV_300/Mahindra_TUV_300_mHAWK100_T8.htm'
p2038
sS'Honda BRV i-VTEC V MT'
p2039
S'https://www.cardekho.com/overview/Honda_BR-V/Honda_BR-V_i-VTEC_V_MT.htm'
p2040
sS'Toyota Fortuner 2.5 4x2 AT TRD Sportivo'
p2041
S'https://www.cardekho.com/overview/Toyota_Fortuner/Toyota_Fortuner_2.5_4x2_AT_TRD_Sportivo.htm'
p2042
sS'Maruti Vitara Brezza ZDi Plus Dual Tone'
p2043
S'https://www.cardekho.com/overview/Maruti_Vitara_Brezza/Maruti_Vitara_Brezza_ZDi_Plus_Dual_Tone.htm'
p2044
sS'Mahindra Scorpio S10 AT 4WD'
p2045
S'https://www.cardekho.com/overview/Mahindra_Scorpio/Mahindra_Scorpio_S10_AT_4WD.htm'
p2046
sS'Audi Q3 35 TDI Dynamic Edition'
p2047
S'https://www.cardekho.com/overview/Audi_Q3/Audi_Q3_35_TDI_Dynamic_Edition.htm'
p2048
sS'Mahindra Scorpio 1.99 S4 Plus 4WD'
p2049
S'https://www.cardekho.com/overview/Mahindra_Scorpio/Mahindra_Scorpio_1.99_S4_Plus_4WD.htm'
p2050
sS'Bentley Bentayga 6.0 W12'
p2051
S'https://www.cardekho.com/overview/Bentley_Bentayga/Bentley_Bentayga_6.0_W12.htm'
p2052
sS'Mahindra Scorpio 1.99 S10 4WD'
p2053
S'https://www.cardekho.com/overview/Mahindra_Scorpio/Mahindra_Scorpio_1.99_S10_4WD.htm'
p2054
sS'Land Rover Range Rover Sport SVR'
p2055
S'https://www.cardekho.com/overview/Land_Rover_Range_Rover_Sport/Land_Rover_Range_Rover_Sport_SVR.htm'
p2056
sS'BMW X3 xDrive20d Expedition'
p2057
S'https://www.cardekho.com/overview/BMW_X3/BMW_X3_xDrive20d_Expedition.htm'
p2058
sS'Honda BRV i-DTEC E MT'
p2059
S'https://www.cardekho.com/overview/Honda_BR-V/Honda_BR-V_i-DTEC_E_MT.htm'
p2060
sS'Mahindra Bolero SLX'
p2061
S'https://www.cardekho.com/overview/Mahindra_Bolero/Mahindra_Bolero_SLX.htm'
p2062
sS'Mercedes-Benz G-Class G63 AMG'
p2063
S'https://www.cardekho.com/overview/Mercedes-Benz_G_Class/Mercedes-Benz_G_Class_G63_AMG.htm'
p2064
sS'Mahindra Bolero SLE'
p2065
S'https://www.cardekho.com/overview/Mahindra_Bolero/Mahindra_Bolero_SLE.htm'
p2066
sS'Land Rover Discovery 4 SDV6 HSE'
p2067
S'https://www.cardekho.com/overview/Land_Rover_Discovery_4/Land_Rover_Discovery_4_SDV6_HSE.htm'
p2068
sS'Mercedes-Benz M-Class ML 63 AMG 4MATIC'
p2069
S'https://www.cardekho.com/overview/Mercedes-Benz_M-Class/Mercedes-Benz_M-Class_ML_63_AMG_4MATIC.htm'
p2070
sS'Nissan Terrano XL Plus 85 PS'
p2071
S'https://www.cardekho.com/overview/Nissan_Terrano/Nissan_Terrano_XL_Plus_85_PS.htm'
p2072
sS'Hyundai Santa Fe 2WD MT'
p2073
S'https://www.cardekho.com/overview/Hyundai_Santa_Fe/Hyundai_Santa_Fe_2WD_MT.htm'
p2074
sS'Mahindra NuvoSport N4'
p2075
S'https://www.cardekho.com/overview/Mahindra_NuvoSport/Mahindra_NuvoSport_N4.htm'
p2076
sS'Ford Ecosport 1.5 Ti VCT MT Signature'
p2077
S'https://www.cardekho.com/overview/Ford_Ecosport/Ford_Ecosport_1.5_Ti_VCT_MT_Signature.htm'
p2078
sS'Mahindra NuvoSport N6'
p2079
S'https://www.cardekho.com/overview/Mahindra_NuvoSport/Mahindra_NuvoSport_N6.htm'
p2080
sS'Mahindra NuvoSport N8'
p2081
S'https://www.cardekho.com/overview/Mahindra_NuvoSport/Mahindra_NuvoSport_N8.htm'
p2082
sS'Tata Sumo Gold GX'
p2083
S'https://www.cardekho.com/overview/Tata_Sumo/Tata_Sumo_Gold_GX.htm'
p2084
sS'Porsche Cayenne S'
p2085
S'https://www.cardekho.com/overview/Porsche_Cayenne/Porsche_Cayenne_S.htm'
p2086
sS'Chevrolet Tavera Neo 3 Max 10 Seats BSIII'
p2087
S'https://www.cardekho.com/overview/Chevrolet_Tavera/Chevrolet_Tavera_Neo_3_Max_10_Seats_BSIII.htm'
p2088
sS'Mahindra Scorpio Intelli Hybrid S10'
p2089
S'https://www.cardekho.com/overview/Mahindra_Scorpio/Mahindra_Scorpio_Intelli_Hybrid_S10.htm'
p2090
sS'Mahindra Scorpio Intelli Hybrid S4 Plus'
p2091
S'https://www.cardekho.com/overview/Mahindra_Scorpio/Mahindra_Scorpio_Intelli_Hybrid_S4_Plus.htm'
p2092
sS'Porsche Macan S Diesel'
p2093
S'https://www.cardekho.com/overview/Porsche_Macan/Porsche_Macan_S_Diesel.htm'
p2094
sS'Tata Safari Storme VX 4WD Varicor 400'
p2095
S'https://www.cardekho.com/overview/Tata_Safari_Storme/Tata_Safari_Storme_VX_4WD_Varicor_400.htm'
p2096
sS'Ford Ecosport 1.0 Ecoboost Trend Plus'
p2097
S'https://www.cardekho.com/overview/Ford_Ecosport/Ford_Ecosport_1.0_Ecoboost_Trend_Plus.htm'
p2098
sS'Mahindra XUV500 W10 AWD'
p2099
S'https://www.cardekho.com/overview/Mahindra_XUV500/Mahindra_XUV500_W10_AWD.htm'
p2100
sS'Renault Duster 110PS Diesel RxL'
p2101
S'https://www.cardekho.com/overview/Renault_Duster/Renault_Duster_110PS_Diesel_RxL.htm'
p2102
sS'Chevrolet Tavera Neo 3 LT 9 Seats BSIII'
p2103
S'https://www.cardekho.com/overview/Chevrolet_Tavera/Chevrolet_Tavera_Neo_3_LT_9_Seats_BSIII.htm'
p2104
sS'Mahindra Scorpio Intelli Hybrid S8'
p2105
S'https://www.cardekho.com/overview/Mahindra_Scorpio/Mahindra_Scorpio_Intelli_Hybrid_S8.htm'
p2106
sS'Renault Duster 110PS Diesel RxZ'
p2107
S'https://www.cardekho.com/overview/Renault_Duster/Renault_Duster_110PS_Diesel_RxZ.htm'
p2108
sS'Mahindra Scorpio Intelli Hybrid S4'
p2109
S'https://www.cardekho.com/overview/Mahindra_Scorpio/Mahindra_Scorpio_Intelli_Hybrid_S4.htm'
p2110
sS'Isuzu MU 7 AT Premium'
p2111
S'https://www.cardekho.com/overview/Isuzu_MU_7/Isuzu_MU_7_AT_Premium.htm'
p2112
sS'Tata Safari Storme VX Varicor 400'
p2113
S'https://www.cardekho.com/overview/Tata_Safari_Storme/Tata_Safari_Storme_VX_Varicor_400.htm'
p2114
sS'Mahindra Bolero DI NON AC BS III SILVER'
p2115
S'https://www.cardekho.com/overview/Mahindra_Bolero/Mahindra_Bolero_DI_NON_AC_BS_III_SILVER.htm'
p2116
sS'Mahindra KUV100 mFALCON D75 K6 Plus 5str'
p2117
S'https://www.cardekho.com/overview/Mahindra_KUV_100/Mahindra_KUV_100_mFALCON_D75_K6_Plus_5str.htm'
p2118
sS'Ford Ecosport 1.5 TDCi Trend Plus BE'
p2119
S'https://www.cardekho.com/overview/Ford_Ecosport/Ford_Ecosport_1.5_TDCi_Trend_Plus_BE.htm'
p2120
sS'Renault Duster 85PS Diesel RxL'
p2121
S'https://www.cardekho.com/overview/Renault_Duster/Renault_Duster_85PS_Diesel_RxL.htm'
p2122
sS'Mahindra Ssangyong Rexton RX5'
p2123
S'https://www.cardekho.com/overview/Mahindra_Ssangyong_Rexton/Mahindra_Ssangyong_Rexton_RX5.htm'
p2124
sS'Mahindra Ssangyong Rexton RX6'
p2125
S'https://www.cardekho.com/overview/Mahindra_Ssangyong_Rexton/Mahindra_Ssangyong_Rexton_RX6.htm'
p2126
sS'Renault Duster 85PS Diesel RxE'
p2127
S'https://www.cardekho.com/overview/Renault_Duster/Renault_Duster_85PS_Diesel_RxE.htm'
p2128
sS'Mercedes-Benz GLS 400 4MATIC'
p2129
S'https://www.cardekho.com/overview/Mercedes-Benz_GLS/Mercedes-Benz_GLS_400_4MATIC.htm'
p2130
sS'Land Rover Discovery Sport Si4 HSE'
p2131
S'https://www.cardekho.com/overview/Land_Rover_Discovery_Sport/Land_Rover_Discovery_Sport_Si4_HSE.htm'
p2132
sS'Force Gurkha Hard Top BS3 4WD'
p2133
S'https://www.cardekho.com/overview/Force_Gurkha/Force_Gurkha_Hard_Top_BS3_4WD.htm'
p2134
sS'Tata Sumo Gold CX PS BSIII'
p2135
S'https://www.cardekho.com/overview/Tata_Sumo/Tata_Sumo_Gold_CX_PS_BSIII.htm'
p2136
sS'BMW X5 xDrive 30d M Sport'
p2137
S'https://www.cardekho.com/overview/BMW_X5/BMW_X5_xDrive_30d_M_Sport.htm'
p2138
sS'Nissan Terrano XV Premium 110 PS'
p2139
S'https://www.cardekho.com/overview/Nissan_Terrano/Nissan_Terrano_XV_Premium_110_PS.htm'
p2140
sS'Land Rover Range Rover Evoque SE'
p2141
S'https://www.cardekho.com/overview/Land_Rover_Range_Rover_Evoque/Land_Rover_Range_Rover_Evoque_SE.htm'
p2142
sS'Hyundai Creta 1.6 CRDi SX'
p2143
S'https://www.cardekho.com/overview/Hyundai_Creta/Hyundai_Creta_1.6_CRDi_SX.htm'
p2144
sS'Renault Duster Adventure Edition 85PS RXE'
p2145
S'https://www.cardekho.com/overview/Renault_Duster/Renault_Duster_Adventure_Edition_85PS_RXE.htm'
p2146
sS'Mahindra KUV100 mFALCON D75 K4 Plus 5str'
p2147
S'https://www.cardekho.com/overview/Mahindra_KUV_100/Mahindra_KUV_100_mFALCON_D75_K4_Plus_5str.htm'
p2148
sS'Force One SUV EX'
p2149
S'https://www.cardekho.com/overview/Force_One/Force_One_EX.htm'
p2150
sS'Mahindra XUV500 W4 1.99 mHawk'
p2151
S'https://www.cardekho.com/overview/Mahindra_XUV500/Mahindra_XUV500_W4_1.99_mHawk.htm'
p2152
sS'Renault Duster Adventure Edition 85PS RXL'
p2153
S'https://www.cardekho.com/overview/Renault_Duster/Renault_Duster_Adventure_Edition_85PS_RXL.htm'
p2154
sS'Land Rover Discovery Sport SD4 HSE Luxury'
p2155
S'https://www.cardekho.com/overview/Land_Rover_Discovery_Sport/Land_Rover_Discovery_Sport_SD4_HSE_Luxury.htm'
p2156
sS'Ford Ecosport 1.5 Ti VCT AT Titanium'
p2157
S'https://www.cardekho.com/overview/Ford_Ecosport/Ford_Ecosport_1.5_Ti_VCT_AT_Titanium.htm'
p2158
sS'Mahindra Scorpio 1.99 S4 Plus'
p2159
S'https://www.cardekho.com/overview/Mahindra_Scorpio/Mahindra_Scorpio_1.99_S4_Plus.htm'
p2160
sS'Audi Q3 35 TDI Quattro Premium Plus'
p2161
S'https://www.cardekho.com/overview/Audi_Q3/Audi_Q3_35_TDI_Quattro_Premium_Plus.htm'
p2162
sS'Mahindra KUV100 mFALCON G80 K6 Plus'
p2163
S'https://www.cardekho.com/overview/Mahindra_KUV_100/Mahindra_KUV_100_mFALCON_G80_K6_Plus.htm'
p2164
sS'Nissan Terrano XE 85 PS'
p2165
S'https://www.cardekho.com/overview/Nissan_Terrano/Nissan_Terrano_XE_85_PS.htm'
p2166
sS'Mahindra XUV500 W6 1.99 mHawk'
p2167
S'https://www.cardekho.com/overview/Mahindra_XUV500/Mahindra_XUV500_W6_1.99_mHawk.htm'
p2168
sS'Mahindra XUV500 AT W10 1.99 mHawk'
p2169
S'https://www.cardekho.com/overview/Mahindra_XUV500/Mahindra_XUV500_AT_W10_1.99_mHawk.htm'
p2170
sS'Ford Ecosport 1.5 TDCi Signature'
p2171
S'https://www.cardekho.com/overview/Ford_Ecosport/Ford_Ecosport_1.5_TDCi_Signature.htm'
p2172
sS'Mercedes-Benz GLE 250d'
p2173
S'https://www.cardekho.com/overview/Mercedes-Benz_GLE_Class/Mercedes-Benz_GLE_Class_250d.htm'
p2174
sS'Tata Safari Storme EX'
p2175
S'https://www.cardekho.com/overview/Tata_Safari_Storme/Tata_Safari_Storme_EX.htm'
p2176
sS'Ford Endeavour 2.2 Trend AT 4X2'
p2177
S'https://www.cardekho.com/overview/Ford_Endeavour/Ford_Endeavour_2.2_Trend_AT_4X2.htm'
p2178
sS'Chevrolet Tavera Neo 3 Max 9 Str BSIII'
p2179
S'https://www.cardekho.com/overview/Chevrolet_Tavera/Chevrolet_Tavera_Neo_3_Max_9_Str_BSIII.htm'
p2180
sS'Tata Sumo Gold CX'
p2181
S'https://www.cardekho.com/overview/Tata_Sumo/Tata_Sumo_Gold_CX.htm'
p2182
sS'Jeep Grand Cherokee Limited 4X4'
p2183
S'https://www.cardekho.com/overview/Jeep_Grand_Cherokee/Jeep_Grand_Cherokee_Limited_4X4.htm'
p2184
sS'Hyundai Santa Fe 2WD AT'
p2185
S'https://www.cardekho.com/overview/Hyundai_Santa_Fe/Hyundai_Santa_Fe_2WD_AT.htm'
p2186
sS'Ford Ecosport 1.5 TDCi Titanium BE'
p2187
S'https://www.cardekho.com/overview/Ford_Ecosport/Ford_Ecosport_1.5_TDCi_Titanium_BE.htm'
p2188
sS'Chevrolet Tavera Neo 3 9 Str BSIII'
p2189
S'https://www.cardekho.com/overview/Chevrolet_Tavera/Chevrolet_Tavera_Neo_3_9_Str_BSIII.htm'
p2190
sS'Mitsubishi Pajero Sport 4X4 Dual Tone'
p2191
S'https://www.cardekho.com/overview/Mitsubishi_Pajero/Mitsubishi_Pajero_Sport_4X4_Dual_Tone.htm'
p2192
sS'Maruti S-Cross DDiS 200 Sigma'
p2193
S'https://www.cardekho.com/overview/Maruti_SX4_S_Cross/Maruti_SX4_S_Cross_DDiS_200_Sigma.htm'
p2194
sS'Premier Rio LX'
p2195
S'https://www.cardekho.com/overview/Premier_Rio/Premier_Rio_LX.htm'
p2196
sS'Mahindra Bolero SLE BSIII'
p2197
S'https://www.cardekho.com/overview/Mahindra_Bolero/Mahindra_Bolero_SLE_BSIII.htm'
p2198
sS'Honda BRV i-DTEC S MT'
p2199
S'https://www.cardekho.com/overview/Honda_BR-V/Honda_BR-V_i-DTEC_S_MT.htm'
p2200
sS'Mahindra XUV500 W8 AWD'
p2201
S'https://www.cardekho.com/overview/Mahindra_XUV500/Mahindra_XUV500_W8_4WD.htm'
p2202
sS'Force Gurkha Soft Top BS3 4WD'
p2203
S'https://www.cardekho.com/overview/Force_Gurkha/Force_Gurkha_Soft_Top_BS3_4WD.htm'
p2204
sS'Tata Safari Storme LX'
p2205
S'https://www.cardekho.com/overview/Tata_Safari_Storme/Tata_Safari_Storme_LX.htm'
p2206
sS'Audi Q5 30 TDI quattro Premium'
p2207
S'https://www.cardekho.com/overview/Audi_Q5/Audi_Q5_30_TDI_quattro_Premium.htm'
p2208
ssS'Pickup'
p2209
(dp2210
S'Isuzu D-Max V-Cross 4X4'
p2211
S'https://www.cardekho.com/overview/Isuzu_D-Max_V-Cross/Isuzu_D-Max_V-Cross_4X4.htm'
p2212
ssS'Luxury'
p2213
(dp2214
S'Aston Martin Rapide S V12'
p2215
S'https://www.cardekho.com/overview/Aston_Martin_Rapide/Aston_Martin_Rapide_S_V12.htm'
p2216
sS'Mercedes-Benz S-Class Maybach S600'
p2217
S'https://www.cardekho.com/overview/Mercedes-Benz_S-Class/Mercedes-Benz_S-Class_Maybach_S600.htm'
p2218
sS'Maserati Ghibli Diesel'
p2219
S'https://www.cardekho.com/overview/Maserati_Ghibli/Maserati_Ghibli_Diesel.htm'
p2220
sS'BMW 3 Series 320d Luxury Line'
p2221
S'https://www.cardekho.com/overview/BMW_3_Series/BMW_3_Series_320d_Luxury_Line.htm'
p2222
sS'BMW 3 Series 320i Prestige'
p2223
S'https://www.cardekho.com/overview/BMW_3_Series/BMW_3_Series_320i_Prestige.htm'
p2224
sS'Porsche Panamera 4'
p2225
S'https://www.cardekho.com/overview/Porsche_Panamera/Porsche_Panamera_4.htm'
p2226
sS'Mercedes-Benz E-Class E350 CDI Avantgrade'
p2227
S'https://www.cardekho.com/overview/Mercedes-Benz_E-Class/Mercedes-Benz_E-Class_E350_CDI_Avantgrade.htm'
p2228
sS'BMW M Series X6 M'
p2229
S'https://www.cardekho.com/overview/BMW_M_Series/BMW_M_Series_X6_M.htm'
p2230
sS'Maserati Quattroporte Diesel'
p2231
S'https://www.cardekho.com/overview/Maserati_Quattroporte/Maserati_Quattroporte_Diesel.htm'
p2232
sS'Porsche Panamera Turbo'
p2233
S'https://www.cardekho.com/overview/Porsche_Panamera/Porsche_Panamera_Turbo.htm'
p2234
sS'BMW 7 Series 750Li M Sport CBU'
p2235
S'https://www.cardekho.com/overview/BMW_7_Series/BMW_7_Series_750Li_M_Sport_CBU.htm'
p2236
sS'Mercedes-Benz CLS 250 CDI'
p2237
S'https://www.cardekho.com/overview/Mercedes-Benz_CLS-Class/Mercedes-Benz_CLS-Class_250_CDI.htm'
p2238
sS'Audi A8 L W12 quattro'
p2239
S'https://www.cardekho.com/overview/Audi_A8/Audi_A8_L_W12_quattro.htm'
p2240
sS'Audi S5 Sportback'
p2241
S'https://www.cardekho.com/overview/Audi_S5/Audi_S5_Sportback.htm'
p2242
sS'Audi A6 35 TFSI'
p2243
S'https://www.cardekho.com/overview/Audi_A6/Audi_A6_35_TFSI.htm'
p2244
sS'Mercedes-Benz E-Class E250 CDI Avantgarde'
p2245
S'https://www.cardekho.com/overview/Mercedes-Benz_E-Class/Mercedes-Benz_E-Class_E250_CDI_Avantgarde.htm'
p2246
sS'BMW 7 Series 730Ld Design Pure Excellence CBU'
p2247
S'https://www.cardekho.com/overview/BMW_7_Series/BMW_7_Series_730Ld_Design_Pure_Excellence_CBU.htm'
p2248
sS'Audi A8 L 60 TDI Quattro'
p2249
S'https://www.cardekho.com/overview/Audi_A8/Audi_A8_L_60_TDI_Quattro.htm'
p2250
sS'Jaguar XF 2.0 Petrol Portfolio'
p2251
S'https://www.cardekho.com/overview/Jaguar_XF/Jaguar_XF_2.0_Petrol_Portfolio.htm'
p2252
sS'Audi A8 L Security'
p2253
S'https://www.cardekho.com/overview/Audi_A8/Audi_A8_L_Security.htm'
p2254
sS'Jaguar XF 2.0 Diesel Prestige'
p2255
S'https://www.cardekho.com/overview/Jaguar_XF/Jaguar_XF_2.0_Diesel_Prestige.htm'
p2256
sS'Audi A4 30 TFSI Premium Plus'
p2257
S'https://www.cardekho.com/overview/Audi_A4/Audi_A4_30_TFSI_Premium_Plus.htm'
p2258
sS'Mercedes-Benz S-Class Maybach S500'
p2259
S'https://www.cardekho.com/overview/Mercedes-Benz_S-Class/Mercedes-Benz_S-Class_Maybach_S500.htm'
p2260
sS'Jaguar XF 2.0 Petrol Prestige'
p2261
S'https://www.cardekho.com/overview/Jaguar_XF/Jaguar_XF_2.0_Petrol_Prestige.htm'
p2262
sS'Audi A4 30 TFSI Technology'
p2263
S'https://www.cardekho.com/overview/Audi_A4/Audi_A4_30_TFSI_Technology.htm'
p2264
sS'Porsche Panamera GTS'
p2265
S'https://www.cardekho.com/overview/Porsche_Panamera/Porsche_Panamera_GTS.htm'
p2266
sS'Porsche Panamera Diesel'
p2267
S'https://www.cardekho.com/overview/Porsche_Panamera/Porsche_Panamera_Diesel.htm'
p2268
sS'Mercedes-Benz E-Class E400 Cabriolet'
p2269
S'https://www.cardekho.com/overview/Mercedes-Benz_E-Class/Mercedes-Benz_E-Class_E400_Cabriolet.htm'
p2270
sS'Volvo S60 D4 Momentum'
p2271
S'https://www.cardekho.com/overview/Volvo_S60/Volvo_S60_D4_Momentum.htm'
p2272
sS'BMW 3 Series 320i Luxury Line'
p2273
S'https://www.cardekho.com/overview/BMW_3_Series/BMW_3_Series_320i_Luxury_Line.htm'
p2274
sS'BMW 5 Series 520i Luxury Line'
p2275
S'https://www.cardekho.com/overview/BMW_5_Series/BMW_5_Series_520i_Luxury_Line.htm'
p2276
sS'BMW 5 Series 520d M Sport'
p2277
S'https://www.cardekho.com/overview/BMW_5_Series/BMW_5_Series_520d_M_Sport.htm'
p2278
sS'Volvo S60 D4 KINETIC'
p2279
S'https://www.cardekho.com/overview/Volvo_S60/Volvo_S60_D4_KINETIC.htm'
p2280
sS'Mercedes-Benz C-Class C 220 CDI Style'
p2281
S'https://www.cardekho.com/overview/Mercedes-Benz_New_C-Class/Mercedes-Benz_New_C-Class_C_220_CDI_Style.htm'
p2282
sS'BMW 7 Series 730Ld Design Pure Excellence'
p2283
S'https://www.cardekho.com/overview/BMW_7_Series/BMW_7_Series_730Ld_Design_Pure_Excellence.htm'
p2284
sS'Audi A6 35 TDI Matrix Edition'
p2285
S'https://www.cardekho.com/overview/Audi_A6/Audi_A6_35_TDI.htm'
p2286
sS'Audi A8 L 60 TFSI Quattro'
p2287
S'https://www.cardekho.com/overview/Audi_A8/Audi_A8_L_60_TFSI_Quattro.htm'
p2288
sS'Jaguar XE Prestige'
p2289
S'https://www.cardekho.com/overview/Jaguar_XE/Jaguar_XE_Prestige.htm'
p2290
sS'Mercedes-Benz E-Class E250 Edition E'
p2291
S'https://www.cardekho.com/overview/Mercedes-Benz_E-Class/Mercedes-Benz_E-Class_E250_Edition_E.htm'
p2292
sS'Bentley Flying Spur W12'
p2293
S'https://www.cardekho.com/overview/Bentley_Flying_Spur/Bentley_Flying_Spur_W12.htm'
p2294
sS'Volvo S60 Cross Country Inscription D4 AWD'
p2295
S'https://www.cardekho.com/overview/Volvo_S60_Cross_Country/Volvo_S60_Cross_Country_D4_AWD.htm'
p2296
sS'BMW 3 Series 320d Prestige'
p2297
S'https://www.cardekho.com/overview/BMW_3_Series/BMW_3_Series_320d.htm'
p2298
sS'Mercedes-Benz S-Class S400'
p2299
S'https://www.cardekho.com/overview/Mercedes-Benz_S-Class/Mercedes-Benz_S-Class_S400.htm'
p2300
sS'Rolls Royce Phantom Drophead Coupe'
p2301
S'https://www.cardekho.com/overview/Rolls-Royce_Phantom/Rolls-Royce_Phantom_Drophead_Coupe.htm'
p2302
sS'Audi RS6 Avant 4.0 TFSI'
p2303
S'https://www.cardekho.com/overview/Audi_RS6/Audi_RS6_4.0_TFSI.htm'
p2304
sS'BMW M Series M4 Coupe'
p2305
S'https://www.cardekho.com/overview/BMW_M_Series/BMW_M_Series_M4_Coupe.htm'
p2306
sS'BMW 3 Series 320d M Sport'
p2307
S'https://www.cardekho.com/overview/BMW_3_Series/BMW_3_Series_320d_M_Sport.htm'
p2308
sS'BMW 7 Series 750Li Design Pure Excellence CBU'
p2309
S'https://www.cardekho.com/overview/BMW_7_Series/BMW_7_Series_750Li_Design_Pure_Excellence_CBU.htm'
p2310
sS'Audi A8 L 50 TDI Quattro'
p2311
S'https://www.cardekho.com/overview/Audi_A8/Audi_A8_L_50_TDI_Quattro.htm'
p2312
sS'BMW 5 Series 520d Luxury Line'
p2313
S'https://www.cardekho.com/overview/BMW_5_Series/BMW_5_Series_520d_Luxury_Line.htm'
p2314
sS'Mercedes-Benz E-Class E350 Edition E'
p2315
S'https://www.cardekho.com/overview/Mercedes-Benz_E-Class/Mercedes-Benz_E-Class_E350_Edition_E.htm'
p2316
sS'BMW M Series M6 Gran Coupe'
p2317
S'https://www.cardekho.com/overview/BMW_M_Series/BMW_M_Series_M6_Gran_Coupe.htm'
p2318
sS'Rolls Royce Ghost Series II Standard'
p2319
S'https://www.cardekho.com/overview/Rolls-Royce_Ghost/Rolls-Royce_Ghost_Series_II_Standard.htm'
p2320
sS'Porsche Panamera Turbo S'
p2321
S'https://www.cardekho.com/overview/Porsche_Panamera/Porsche_Panamera_Turbo_S.htm'
p2322
sS'Rolls Royce Phantom Extended Wheelbase'
p2323
S'https://www.cardekho.com/overview/Rolls-Royce_Phantom/Rolls-Royce_Phantom_Extended_Wheelbase.htm'
p2324
sS'BMW 6 Series 640d Design Pure Experience'
p2325
S'https://www.cardekho.com/overview/BMW_6_Series/BMW_6_Series_640d_Design_Pure_Experience.htm'
p2326
sS'Volvo S80 D5'
p2327
S'https://www.cardekho.com/overview/Volvo_S_80/Volvo_S_80_D5.htm'
p2328
sS'Volvo S80 D4'
p2329
S'https://www.cardekho.com/overview/Volvo_S_80/Volvo_S_80_D4.htm'
p2330
sS'Mercedes-Benz C-Class C 200 CGI'
p2331
S'https://www.cardekho.com/overview/Mercedes-Benz_New_C-Class/Mercedes-Benz_New_C-Class_C_200_CGI.htm'
p2332
sS'Volvo S60 D5 Inscription'
p2333
S'https://www.cardekho.com/overview/Volvo_S60/Volvo_S60_D5_Inscription.htm'
p2334
sS'BMW 7 Series 730Ld M Sport'
p2335
S'https://www.cardekho.com/overview/BMW_7_Series/BMW_7_Series_730Ld_M_Sport.htm'
p2336
sS'Mercedes-Benz E-Class E 63 AMG'
p2337
S'https://www.cardekho.com/overview/Mercedes-Benz_E-Class/Mercedes-Benz_E-Class_E_63_AMG.htm'
p2338
sS'Mercedes-Benz S-Class S 350 CDI'
p2339
S'https://www.cardekho.com/overview/Mercedes-Benz_S-Class/Mercedes-Benz_S-Class_S_350_CDI.htm'
p2340
sS'Jaguar XJ 3.0L Premium Luxury'
p2341
S'https://www.cardekho.com/overview/Jaguar_XJ/Jaguar_XJ_3.0L_Premium_Luxury.htm'
p2342
sS'Porsche Panamera Diesel 250hp'
p2343
S'https://www.cardekho.com/overview/Porsche_Panamera/Porsche_Panamera_Diesel_250hp.htm'
p2344
sS'Mercedes-Benz E-Class E200 Edition E'
p2345
S'https://www.cardekho.com/overview/Mercedes-Benz_E-Class/Mercedes-Benz_E-Class_E200_Edition_E.htm'
p2346
sS'BMW 5 Series 530d M Sport'
p2347
S'https://www.cardekho.com/overview/BMW_5_Series/BMW_5_Series_530d_M_Sport.htm'
p2348
sS'Mercedes-Benz S-Class S Guard'
p2349
S'https://www.cardekho.com/overview/Mercedes-Benz_S-Class/Mercedes-Benz_S-Class_S_Guard.htm'
p2350
sS'BMW 3 Series 320d Sport Line'
p2351
S'https://www.cardekho.com/overview/BMW_3_Series/BMW_3_Series_320d_Sport.htm'
p2352
sS'Mercedes-Benz S-Class S 500 Coupe'
p2353
S'https://www.cardekho.com/overview/Mercedes-Benz_S-Class/Mercedes-Benz_S-Class_S_500_Coupe.htm'
p2354
sS'Jaguar XE Pure'
p2355
S'https://www.cardekho.com/overview/Jaguar_XE/Jaguar_XE_Pure.htm'
p2356
sS'Jaguar XF R Supercharged 5.0 Litre V8 Petrol'
p2357
S'https://www.cardekho.com/overview/Jaguar_XF/Jaguar_XF_R_Supercharged_5.0_Litre_V8_Petrol.htm'
p2358
sS'Jaguar XF 2.0 Diesel Pure'
p2359
S'https://www.cardekho.com/overview/Jaguar_XF/Jaguar_XF_2.0_Diesel_Pure.htm'
p2360
sS'BMW 5 Series 520d Prestige Plus'
p2361
S'https://www.cardekho.com/overview/BMW_5_Series/BMW_5_Series_520d_Prestige_Plus.htm'
p2362
sS'Mercedes-Benz S-Class Maybach S600 Guard'
p2363
S'https://www.cardekho.com/overview/Mercedes-Benz_S-Class/Mercedes-Benz_S-Class_Maybach_S600_Guard.htm'
p2364
sS'BMW M Series M3 Sedan'
p2365
S'https://www.cardekho.com/overview/BMW_M_Series/BMW_M_Series_M3_Sedan.htm'
p2366
sS'BMW 6 Series 640d Eminence'
p2367
S'https://www.cardekho.com/overview/BMW_6_Series/BMW_6_Series_640d_Eminence.htm'
p2368
sS'BMW M Series M5 Sedan'
p2369
S'https://www.cardekho.com/overview/BMW_M_Series/BMW_M_Series_M5_Sedan.htm'
p2370
sS'Jaguar XF 2.0 Diesel Portfolio'
p2371
S'https://www.cardekho.com/overview/Jaguar_XF/Jaguar_XF_2.0_Diesel_Portfolio.htm'
p2372
sS'Rolls Royce Phantom Series II'
p2373
S'https://www.cardekho.com/overview/Rolls-Royce_Phantom/Rolls-Royce_Phantom_Phantom.htm'
p2374
sS'Rolls Royce Ghost Series II Extended Wheelbase'
p2375
S'https://www.cardekho.com/overview/Rolls-Royce_Ghost/Rolls-Royce_Ghost_Series_II_Extended_Wheelbase.htm'
p2376
sS'Mercedes-Benz C-Class C 63 S AMG'
p2377
S'https://www.cardekho.com/overview/Mercedes-Benz_New_C-Class/Mercedes-Benz_New_C-Class_C_63_S_AMG.htm'
p2378
sS'Maserati Quattroporte GTS'
p2379
S'https://www.cardekho.com/overview/Maserati_Quattroporte/Maserati_Quattroporte_GTS.htm'
p2380
sS'Audi A8 L 50 TDI Quattro Premium Plus'
p2381
S'https://www.cardekho.com/overview/Audi_A8/Audi_A8_L_50_TDI_Quattro_Premium_Plus.htm'
p2382
sS'Audi RS7 Sportback'
p2383
S'https://www.cardekho.com/overview/Audi_RS7/Audi_RS7_Sportback.htm'
p2384
sS'Mercedes-Benz S-Class S 63 AMG'
p2385
S'https://www.cardekho.com/overview/Mercedes-Benz_S-Class/Mercedes-Benz_S-Class_S_63_AMG.htm'
p2386
sS'Mercedes-Benz C-Class C 220 CDI Avantgarde'
p2387
S'https://www.cardekho.com/overview/Mercedes-Benz_New_C-Class/Mercedes-Benz_New_C-Class_C_220_CDI_Avantgarde.htm'
p2388
sS'Audi A6 35 TFSI Matrix'
p2389
S'https://www.cardekho.com/overview/Audi_A6/Audi_A6_35_TFSI_Matrix.htm'
p2390
sS'Mercedes-Benz E-Class E 200 CGI'
p2391
S'https://www.cardekho.com/overview/Mercedes-Benz_E-Class/Mercedes-Benz_E-Class_E_200_CGI.htm'
p2392
sS'Jaguar XJ 2.0L Portfolio'
p2393
S'https://www.cardekho.com/overview/Jaguar_XJ/Jaguar_XJ_2.0L_Portfolio.htm'
p2394
sS'Volvo S60 T6'
p2395
S'https://www.cardekho.com/overview/Volvo_S60/Volvo_S60_T6.htm'
p2396
sS'Porsche Panamera Base'
p2397
S'https://www.cardekho.com/overview/Porsche_Panamera/Porsche_Panamera_Base.htm'
p2398
sS'Bentley Flying Spur V8'
p2399
S'https://www.cardekho.com/overview/Bentley_Flying_Spur/Bentley_Flying_Spur_V8.htm'
p2400
sS'Bentley Mulsanne 6.8'
p2401
S'https://www.cardekho.com/overview/Bentley_Mulsanne/Bentley_Mulsanne_6.8.htm'
p2402
sS'Jaguar XJ 3.0L Portfolio'
p2403
S'https://www.cardekho.com/overview/Jaguar_XJ/Jaguar_XJ_3.0L_Portfolio.htm'
p2404
sS'Jaguar XE Portfolio'
p2405
S'https://www.cardekho.com/overview/Jaguar_XE/Jaguar_XE_Portfolio.htm'
p2406
sS'BMW M Series X5 M'
p2407
S'https://www.cardekho.com/overview/BMW_M_Series/BMW_M_Series_X5_M.htm'
p2408
sS'Mercedes-Benz S-Class S 63 AMG Coupe'
p2409
S'https://www.cardekho.com/overview/Mercedes-Benz_S-Class/Mercedes-Benz_S-Class_S_63_AMG_Coupe.htm'
p2410
sS'Rolls Royce Phantom Coupe'
p2411
S'https://www.cardekho.com/overview/Rolls-Royce_Phantom/Rolls-Royce_Phantom_Coupe.htm'
p2412
ssS'Hatchback'
p2413
(dp2414
S'Tata Bolt Revotron XE'
p2415
S'https://www.cardekho.com/overview/Tata_Bolt/Tata_Bolt_Revotron_XE.htm'
p2416
sS'Ford Figo 1.5P Titanium AT'
p2417
S'https://www.cardekho.com/overview/Ford_Figo/Ford_Figo_1.5P_Titanium_AT.htm'
p2418
sS'Maruti Wagon R Stingray LXI'
p2419
S'https://www.cardekho.com/overview/Maruti_Wagon_R_Stingray/Maruti_Wagon_R_Stingray_LXI.htm'
p2420
sS'Datsun GO D'
p2421
S'https://www.cardekho.com/overview/Datsun_GO/Datsun_GO_D.htm'
p2422
sS'Ford Figo 1.5D Trend MT'
p2423
S'https://www.cardekho.com/overview/Ford_Figo/Ford_Figo_1.5D_Trend_MT.htm'
p2424
sS'Hyundai Grand i10 Magna'
p2425
S'https://www.cardekho.com/overview/Hyundai_Grand_i10/Hyundai_Grand_i10_Magna.htm'
p2426
sS'Maruti Baleno 1.3 Zeta'
p2427
S'https://www.cardekho.com/overview/Maruti_Baleno/Maruti_Baleno_1.3_Zeta.htm'
p2428
sS'Datsun GO A'
p2429
S'https://www.cardekho.com/overview/Datsun_GO/Datsun_GO_A.htm'
p2430
sS'Hyundai Grand i10 Magna AT'
p2431
S'https://www.cardekho.com/overview/Hyundai_Grand_i10/Hyundai_Grand_i10_Magna_AT.htm'
p2432
sS'Volkswagen Polo 1.2 MPI Trendline'
p2433
S'https://www.cardekho.com/overview/Volkswagen_Polo/Volkswagen_Polo_1.2_MPI_Trendline.htm'
p2434
sS'Tata Bolt Revotron XT'
p2435
S'https://www.cardekho.com/overview/Tata_Bolt/Tata_Bolt_Revotron_XT.htm'
p2436
sS'Hyundai Grand i10 CRDi Sportz Celebration Edition'
p2437
S'https://www.cardekho.com/overview/Hyundai_Grand_i10/Hyundai_Grand_i10_CRDi_Sportz_Celebration_Edition.htm'
p2438
sS'Maruti Celerio VDi'
p2439
S'https://www.cardekho.com/overview/Maruti_Celerio/Maruti_Celerio_VDi.htm'
p2440
sS'Tata Bolt Quadrajet XE'
p2441
S'https://www.cardekho.com/overview/Tata_Bolt/Tata_Bolt_Quadrajet_XE.htm'
p2442
sS'Datsun GO T'
p2443
S'https://www.cardekho.com/overview/Datsun_GO/Datsun_GO_T.htm'
p2444
sS'Tata Tiago 1.05 Revotorq XZ WO Alloy'
p2445
S'https://www.cardekho.com/overview/Tata_Tiago/Tata_Tiago_1.05_Revotorq_XZ_WO_Alloy.htm'
p2446
sS'Ford Figo 1.5D Titanium MT'
p2447
S'https://www.cardekho.com/overview/Ford_Figo/Ford_Figo_1.5D_Titanium_MT.htm'
p2448
sS'Chevrolet Sail Hatchback 1.3 TCDi LS ABS'
p2449
S'https://www.cardekho.com/overview/Chevrolet_Sail_Hatchback/Chevrolet_Sail_Hatchback_1.3_TCDi_LS_ABS.htm'
p2450
sS'Chevrolet Beat LT'
p2451
S'https://www.cardekho.com/overview/Chevrolet_Beat/Chevrolet_Beat_LT.htm'
p2452
sS'Honda Jazz 1.2 S AT i VTEC'
p2453
S'https://www.cardekho.com/overview/Honda_Jazz/Honda_Jazz_1.2_S_AT_i_VTEC.htm'
p2454
sS'Tata Tiago 1.2 Revotron XZ WO Alloy'
p2455
S'https://www.cardekho.com/overview/Tata_Tiago/Tata_Tiago_1.2_Revotron_XZ_WO_Alloy.htm'
p2456
sS'Hyundai Elite i20 Sportz 1.4 CRDi'
p2457
S'https://www.cardekho.com/overview/Hyundai_i20/Hyundai_i20_Sportz_1.4_CRDi.htm'
p2458
sS'Maruti Alto 800 VXI Optional'
p2459
S'https://www.cardekho.com/overview/Maruti_Alto_800/Maruti_Alto_800_VXI_Optional.htm'
p2460
sS'Fiat Avventura Power Up 1.3 Dynamic'
p2461
S'https://www.cardekho.com/overview/Fiat_Avventura/Fiat_Avventura_Power_Up_1.3_Dynamic.htm'
p2462
sS'Honda Jazz 1.5 S i DTEC'
p2463
S'https://www.cardekho.com/overview/Honda_Jazz/Honda_Jazz_1.5_S_i_DTEC.htm'
p2464
sS'Fiat Avventura Urban Cross 1.4 T-Jet Emotion'
p2465
S'https://www.cardekho.com/overview/Fiat_Avventura_Urban_Cross/Fiat_Avventura_Urban_Cross_1.4_T-Jet_Emotion.htm'
p2466
sS'Datsun Redi GO Sport'
p2467
S'https://www.cardekho.com/overview/Datsun_RediGO/Datsun_RediGO_Sport.htm'
p2468
sS'Chevrolet Sail Hatchback 1.2 LS'
p2469
S'https://www.cardekho.com/overview/Chevrolet_Sail_Hatchback/Chevrolet_Sail_Hatchback_1.2_LS.htm'
p2470
sS'Volkswagen Beetle 1.4 TSI'
p2471
S'https://www.cardekho.com/overview/Volkswagen_Beetle/Volkswagen_Beetle_1.4_TSI.htm'
p2472
sS'Hyundai i20 Active 1.2'
p2473
S'https://www.cardekho.com/overview/Hyundai_i20_Active/Hyundai_i20_Active_1.2.htm'
p2474
sS'Honda Brio 1.2 E MT'
p2475
S'https://www.cardekho.com/overview/Honda_Brio/Honda_Brio_1.2_E_MT.htm'
p2476
sS'Volkswagen CrossPolo 1.2 MPI'
p2477
S'https://www.cardekho.com/overview/Volkswagen_CrossPolo/Volkswagen_CrossPolo_1.2_MPI.htm'
p2478
sS'Toyota Etios Cross 1.2L G'
p2479
S'https://www.cardekho.com/overview/Toyota_Etios_Cross/Toyota_Etios_Cross_1.2L_G.htm'
p2480
sS'Volkswagen Polo Select 1.5 TDI Highline'
p2481
S'https://www.cardekho.com/overview/Volkswagen_Polo/Volkswagen_Polo_Select_1.5_TDI_Highline.htm'
p2482
sS'Renault KWID 1.0 RXT Optional'
p2483
S'https://www.cardekho.com/overview/Renault_KWID/Renault_KWID_1.0_RXT_Optional.htm'
p2484
sS'Maruti Wagon R AMT VXI'
p2485
S'https://www.cardekho.com/overview/Maruti_Wagon_R/Maruti_Wagon_R_AMT_VXI.htm'
p2486
sS'Toyota Etios Liva 1.2 V'
p2487
S'https://www.cardekho.com/overview/Toyota_Etios_Liva/Toyota_Etios_Liva_1.2_V.htm'
p2488
sS'Maruti Celerio ZDi'
p2489
S'https://www.cardekho.com/overview/Maruti_Celerio/Maruti_Celerio_ZDi.htm'
p2490
sS'Hyundai Elite i20 Asta Option 1.4 CRDi'
p2491
S'https://www.cardekho.com/overview/Hyundai_i20/Hyundai_i20_Asta_Option_1.4_CRDi.htm'
p2492
sS'Maruti Wagon R VXI'
p2493
S'https://www.cardekho.com/overview/Maruti_Wagon_R/Maruti_Wagon_R_VXI_BS_IV.htm'
p2494
sS'Hyundai Grand i10 CRDi Era'
p2495
S'https://www.cardekho.com/overview/Hyundai_Grand_i10/Hyundai_Grand_i10_CRDi_Era.htm'
p2496
sS'Nissan Micra XV CVT'
p2497
S'https://www.cardekho.com/overview/Nissan_Micra/Nissan_Micra_AT.htm'
p2498
sS'Maruti Alto K10 LXI CNG Optional'
p2499
S'https://www.cardekho.com/overview/Maruti_Alto_K10/Maruti_Alto_K10_LXI_CNG_Optional.htm'
p2500
sS'Nissan Micra Active XL'
p2501
S'https://www.cardekho.com/overview/Nissan_Micra_Active/Nissan_Micra_Active_XL.htm'
p2502
sS'Maruti Alto K10 LXI'
p2503
S'https://www.cardekho.com/overview/Maruti_Alto_K10/Maruti_Alto_K10_LXI.htm'
p2504
sS'Fiat Punto EVO Power UP 1.3 Emotion'
p2505
S'https://www.cardekho.com/overview/Fiat_Grande_Punto/Fiat_Grande_Punto_EVO_Power_UP_1.3_Emotion.htm'
p2506
sS'Chevrolet Spark 1.0'
p2507
S'https://www.cardekho.com/overview/Chevrolet_Spark/Chevrolet_Spark_1.0.htm'
p2508
sS'Hyundai i20 Active 1.4'
p2509
S'https://www.cardekho.com/overview/Hyundai_i20_Active/Hyundai_i20_Active_1.4.htm'
p2510
sS'Renault KWID STD'
p2511
S'https://www.cardekho.com/overview/Renault_KWID/Renault_KWID_STD.htm'
p2512
sS'Tata Tiago 1.2 Revotron XT Option'
p2513
S'https://www.cardekho.com/overview/Tata_Tiago/Tata_Tiago_1.2_Revotron_XT_Option.htm'
p2514
sS'Maruti Ritz LXi'
p2515
S'https://www.cardekho.com/overview/Maruti_Ritz/Maruti_Ritz_LXi.htm'
p2516
sS'Hyundai Elite i20 Asta Option 1.2'
p2517
S'https://www.cardekho.com/overview/Hyundai_i20/Hyundai_i20_Asta_Option_1.2.htm'
p2518
sS'Maruti Wagon R Stingray AMT VXI Optional'
p2519
S'https://www.cardekho.com/overview/Maruti_Wagon_R_Stingray/Maruti_Wagon_R_Stingray_AMT_VXI_Optional.htm'
p2520
sS'Hyundai Elite i20 Asta 1.4 CRDi'
p2521
S'https://www.cardekho.com/overview/Hyundai_i20/Hyundai_i20_Asta_1.4_CRDi.htm'
p2522
sS'Maruti Swift VDI'
p2523
S'https://www.cardekho.com/overview/Maruti_Swift/Maruti_Swift_VDI_BS_IV.htm'
p2524
sS'Datsun Redi GO D'
p2525
S'https://www.cardekho.com/overview/Datsun_RediGO/Datsun_RediGO_D.htm'
p2526
sS'Fiat Avventura Urban Cross 1.3 Multijet Active'
p2527
S'https://www.cardekho.com/overview/Fiat_Avventura_Urban_Cross/Fiat_Avventura_Urban_Cross_1.3_Multijet_Active.htm'
p2528
sS'Renault Pulse Petrol RxL'
p2529
S'https://www.cardekho.com/overview/Renault_Pulse/Renault_Pulse_Petrol_RxL.htm'
p2530
sS'Hyundai Grand i10 Sportz Celebration Edition'
p2531
S'https://www.cardekho.com/overview/Hyundai_Grand_i10/Hyundai_Grand_i10_Sportz_Celebration_Edition.htm'
p2532
sS'Honda Jazz 1.5 E i DTEC'
p2533
S'https://www.cardekho.com/overview/Honda_Jazz/Honda_Jazz_1.5_E_i_DTEC.htm'
p2534
sS'Honda Brio 1.2 VX MT'
p2535
S'https://www.cardekho.com/overview/Honda_Brio/Honda_Brio_1.2_VX_MT.htm'
p2536
sS'Maruti Swift LXI'
p2537
S'https://www.cardekho.com/overview/Maruti_Swift/Maruti_Swift_LXI.htm'
p2538
sS'Hyundai Grand i10 Asta Option AT'
p2539
S'https://www.cardekho.com/overview/Hyundai_Grand_i10/Hyundai_Grand_i10_Asta_Option_AT.htm'
p2540
sS'Maruti Ritz ZXi'
p2541
S'https://www.cardekho.com/overview/Maruti_Ritz/Maruti_Ritz_ZXi.htm'
p2542
sS'Tata Tiago 1.05 Revotorq XE Option'
p2543
S'https://www.cardekho.com/overview/Tata_Tiago/Tata_Tiago_1.05_Revotorq_XE_Option.htm'
p2544
sS'Maruti Ritz VXi'
p2545
S'https://www.cardekho.com/overview/Maruti_Ritz/Maruti_Ritz_VXi.htm'
p2546
sS'Tata Indica eV2 eLX'
p2547
S'https://www.cardekho.com/overview/Tata_Indica_V2/Tata_Indica_V2_eLX.htm'
p2548
sS'Chevrolet Beat LTZ'
p2549
S'https://www.cardekho.com/overview/Chevrolet_Beat/Chevrolet_Beat_LTZ.htm'
p2550
sS'Tata Indica eV2 DLX BSIII'
p2551
S'https://www.cardekho.com/overview/Tata_Indica_V2/Tata_Indica_V2_DLX_BSIII.htm'
p2552
sS'Chevrolet Sail Hatchback 1.3 TCDi LT ABS'
p2553
S'https://www.cardekho.com/overview/Chevrolet_Sail_Hatchback/Chevrolet_Sail_Hatchback_1.3_TCDi_LT_ABS.htm'
p2554
sS'Renault KWID 1.0 RXT'
p2555
S'https://www.cardekho.com/overview/Renault_KWID/Renault_KWID_1.0.htm'
p2556
sS'Maruti Celerio VXI AT'
p2557
S'https://www.cardekho.com/overview/Maruti_Celerio/Maruti_Celerio_VXI_AT.htm'
p2558
sS'Datsun Redi GO T Option'
p2559
S'https://www.cardekho.com/overview/Datsun_RediGO/Datsun_RediGO_T_Option.htm'
p2560
sS'Tata Tiago 1.05 Revotorq XM'
p2561
S'https://www.cardekho.com/overview/Tata_Tiago/Tata_Tiago_1.05_Revotorq_XM.htm'
p2562
sS'Honda Jazz 1.5 V i DTEC'
p2563
S'https://www.cardekho.com/overview/Honda_Jazz/Honda_Jazz_1.5_V_i_DTEC.htm'
p2564
sS'Fiat Avventura Power Up 1.3 Emotion'
p2565
S'https://www.cardekho.com/overview/Fiat_Avventura/Fiat_Avventura_Power_Up_1.3_Emotion.htm'
p2566
sS'Tata Tiago 1.05 Revotorq XE'
p2567
S'https://www.cardekho.com/overview/Tata_Tiago/Tata_Tiago_1.05_Revotorq_XE.htm'
p2568
sS'Tata Tiago 1.2 Revotron XM Option'
p2569
S'https://www.cardekho.com/overview/Tata_Tiago/Tata_Tiago_1.2_Revotron_XM_Option.htm'
p2570
sS'Maruti Wagon R Stingray LXI Optional'
p2571
S'https://www.cardekho.com/overview/Maruti_Wagon_R_Stingray/Maruti_Wagon_R_Stingray_LXI_Optional.htm'
p2572
sS'Tata Tiago 1.05 Revotorq XB'
p2573
S'https://www.cardekho.com/overview/Tata_Tiago/Tata_Tiago_1.05_Revotorq_XB.htm'
p2574
sS'Maruti Alto 800 VXI'
p2575
S'https://www.cardekho.com/overview/Maruti_Alto_800/Maruti_Alto_800_VXI.htm'
p2576
sS'Maruti Alto K10 VXI'
p2577
S'https://www.cardekho.com/overview/Maruti_Alto_K10/Maruti_Alto_K10_VXI.htm'
p2578
sS'Renault KWID RXT Driver Airbag Option'
p2579
S'https://www.cardekho.com/overview/Renault_KWID/Renault_KWID_RXT_Optional.htm'
p2580
sS'Maruti Swift VXI Glory Limited Edition'
p2581
S'https://www.cardekho.com/overview/Maruti_Swift/Maruti_Swift_VXI_Glory_Limited_Edition.htm'
p2582
sS'Volkswagen Polo 1.5 TDI Comfortline'
p2583
S'https://www.cardekho.com/overview/Volkswagen_Polo/Volkswagen_Polo_1.5_TDI_Comfortline.htm'
p2584
sS'Tata Tiago 1.05 Revotorq XZ'
p2585
S'https://www.cardekho.com/overview/Tata_Tiago/Tata_Tiago_1.05_Revotorq_XZ.htm'
p2586
sS'Fiat Punto Pure 1.3L Advanced Multi-Jet'
p2587
S'https://www.cardekho.com/overview/Fiat_Punto_Pure/Fiat_Punto_Pure_1.3L_Advanced_Multi-Jet.htm'
p2588
sS'Tata Tiago 1.05 Revotorq XT'
p2589
S'https://www.cardekho.com/overview/Tata_Tiago/Tata_Tiago_1.05_Revotorq_XT.htm'
p2590
sS'Chevrolet Beat Diesel LT'
p2591
S'https://www.cardekho.com/overview/Chevrolet_Beat/Chevrolet_Beat_Diesel_LT.htm'
p2592
sS'Nissan Micra Diesel XL Optional'
p2593
S'https://www.cardekho.com/overview/Nissan_Micra/Nissan_Micra_Diesel_XL_Optional.htm'
p2594
sS'Maruti Celerio ZDi Option'
p2595
S'https://www.cardekho.com/overview/Maruti_Celerio/Maruti_Celerio_ZDi_Option.htm'
p2596
sS'Chevrolet Beat Diesel LS'
p2597
S'https://www.cardekho.com/overview/Chevrolet_Beat/Chevrolet_Beat_Diesel_LS.htm'
p2598
sS'Hyundai Elite i20 Magna 1.4 CRDi'
p2599
S'https://www.cardekho.com/overview/Hyundai_i20/Hyundai_i20_Magna_1.4_CRDi.htm'
p2600
sS'Tata Tiago 1.05 Revotorq XT Option'
p2601
S'https://www.cardekho.com/overview/Tata_Tiago/Tata_Tiago_1.05_Revotorq_XT_Option.htm'
p2602
sS'Fiat Abarth Avventura 1.4 T-Jet'
p2603
S'https://www.cardekho.com/overview/Fiat_Abarth_Avventura/Fiat_Abarth_Avventura_1.4_T-Jet.htm'
p2604
sS'Hyundai i20 Active 1.2 S'
p2605
S'https://www.cardekho.com/overview/Hyundai_i20_Active/Hyundai_i20_Active_1.2_S.htm'
p2606
sS'Maruti Ritz VDi'
p2607
S'https://www.cardekho.com/overview/Maruti_Ritz/Maruti_Ritz_VDi.htm'
p2608
sS'Maruti Celerio LXI Optional'
p2609
S'https://www.cardekho.com/overview/Maruti_Celerio/Maruti_Celerio_LXI_Optional.htm'
p2610
sS'Volvo V40 Cross Country T4'
p2611
S'https://www.cardekho.com/overview/Volvo_V40_Cross_Country/Volvo_V40_Cross_Country_T4.htm'
p2612
sS'Maruti Ritz VXi (ABS)'
p2613
S'https://www.cardekho.com/overview/Maruti_Ritz/Maruti_Ritz_VXi_(ABS)_BS_IV.htm'
p2614
sS'Maruti Swift ZXI'
p2615
S'https://www.cardekho.com/overview/Maruti_Swift/Maruti_Swift_ZXI.htm'
p2616
sS'Nissan Micra Diesel XL'
p2617
S'https://www.cardekho.com/overview/Nissan_Micra/Nissan_Micra_Diesel_XL.htm'
p2618
sS'Hyundai EON 1.0 Kappa Magna Plus Optional'
p2619
S'https://www.cardekho.com/overview/Hyundai_EON/Hyundai_EON_1.0_Kappa_Magna_Plus_Optional.htm'
p2620
sS'Hyundai Grand i10 CRDi Magna'
p2621
S'https://www.cardekho.com/overview/Hyundai_Grand_i10/Hyundai_Grand_i10_CRDi_Magna.htm'
p2622
sS'Maruti Swift 1.3 DLX'
p2623
S'https://www.cardekho.com/overview/Maruti_Swift/Maruti_Swift_1.3_DLX.htm'
p2624
sS'Hyundai i10 Sportz 1.1L'
p2625
S'https://www.cardekho.com/overview/Hyundai_i10/Hyundai_i10_Sportz_1.1L.htm'
p2626
sS'Maruti Celerio Green VXI'
p2627
S'https://www.cardekho.com/overview/Maruti_Celerio/Maruti_Celerio_Green_VXI.htm'
p2628
sS'Maruti Baleno 1.2 CVT Zeta'
p2629
S'https://www.cardekho.com/overview/Maruti_Baleno/Maruti_Baleno_1.2_CVT_Zeta.htm'
p2630
sS'Mini 5 DOOR Cooper D'
p2631
S'https://www.cardekho.com/overview/Mini_5_DOOR/Mini_5_DOOR_Cooper_D.htm'
p2632
sS'Ford Figo 1.2P Base MT'
p2633
S'https://www.cardekho.com/overview/Ford_Figo/Ford_Figo_1.2P_Base_MT.htm'
p2634
sS'Hyundai i10 Magna 1.1L'
p2635
S'https://www.cardekho.com/overview/Hyundai_i10/Hyundai_i10_Magna_1.1L.htm'
p2636
sS'Datsun GO T Option'
p2637
S'https://www.cardekho.com/overview/Datsun_GO/Datsun_GO_T_Option.htm'
p2638
sS'Maruti Celerio ZXI Optional'
p2639
S'https://www.cardekho.com/overview/Maruti_Celerio/Maruti_Celerio_ZXI_Optional.htm'
p2640
sS'Mini 3 DOOR Cooper D'
p2641
S'https://www.cardekho.com/overview/Mini_3_DOOR/Mini_3_DOOR_Cooper_D.htm'
p2642
sS'Toyota Etios Liva 1.4 VD'
p2643
S'https://www.cardekho.com/overview/Toyota_Etios_Liva/Toyota_Etios_Liva_1.4_VD.htm'
p2644
sS'Maruti Swift VXI Deca'
p2645
S'https://www.cardekho.com/overview/Maruti_Swift/Maruti_Swift_VXI_Deca.htm'
p2646
sS'Hyundai i20 Active 1.4 SX with AVN'
p2647
S'https://www.cardekho.com/overview/Hyundai_i20_Active/Hyundai_i20_Active_1.4_SX_with_AVN.htm'
p2648
sS'Tata Bolt Quadrajet XMS'
p2649
S'https://www.cardekho.com/overview/Tata_Bolt/Tata_Bolt_Quadrajet_XMS.htm'
p2650
sS'Mini 3 DOOR Cooper S'
p2651
S'https://www.cardekho.com/overview/Mini_3_DOOR/Mini_3_DOOR_Cooper_S.htm'
p2652
sS'Maruti Swift LDI Optional'
p2653
S'https://www.cardekho.com/overview/Maruti_Swift/Maruti_Swift_LDI_Optional.htm'
p2654
sS'Chevrolet Beat PS'
p2655
S'https://www.cardekho.com/overview/Chevrolet_Beat/Chevrolet_Beat_PS.htm'
p2656
sS'Maruti Celerio LXI'
p2657
S'https://www.cardekho.com/overview/Maruti_Celerio/Maruti_Celerio_LXI.htm'
p2658
sS'Ford Figo 1.5D Titanium Plus MT'
p2659
S'https://www.cardekho.com/overview/Ford_Figo/Ford_Figo_1.5D_Titanium_Plus_MT.htm'
p2660
sS'Fiat Punto EVO Power Up 1.2 Dynamic'
p2661
S'https://www.cardekho.com/overview/Fiat_Grande_Punto/Fiat_Grande_Punto_EVO_Power_Up_1.2_Dynamic.htm'
p2662
sS'Chevrolet Sail Hatchback 1.3 TCDi LS'
p2663
S'https://www.cardekho.com/overview/Chevrolet_Sail_Hatchback/Chevrolet_Sail_Hatchback_1.3_TCDi_LS.htm'
p2664
sS'Hyundai Grand i10 Asta Option'
p2665
S'https://www.cardekho.com/overview/Hyundai_Grand_i10/Hyundai_Grand_i10_Asta_Option.htm'
p2666
sS'Maruti Baleno 1.2 CVT Delta'
p2667
S'https://www.cardekho.com/overview/Maruti_Baleno/Maruti_Baleno_1.2_CVT_Delta.htm'
p2668
sS'Tata Tiago 1.2 Revotron XE'
p2669
S'https://www.cardekho.com/overview/Tata_Tiago/Tata_Tiago_1.2_Revotron_XE.htm'
p2670
sS'Tata Tiago 1.2 Revotron XB'
p2671
S'https://www.cardekho.com/overview/Tata_Tiago/Tata_Tiago_1.2_Revotron_XB.htm'
p2672
sS'Toyota Etios Cross 1.5L V'
p2673
S'https://www.cardekho.com/overview/Toyota_Etios_Cross/Toyota_Etios_Cross_1.5L_V.htm'
p2674
sS'Volkswagen CrossPolo 1.5 TDI'
p2675
S'https://www.cardekho.com/overview/Volkswagen_CrossPolo/Volkswagen_CrossPolo_1.5_TDI.htm'
p2676
sS'Maruti Celerio ZXI AT'
p2677
S'https://www.cardekho.com/overview/Maruti_Celerio/Maruti_Celerio_ZXI_AT.htm'
p2678
sS'Honda Brio 1.2 S MT'
p2679
S'https://www.cardekho.com/overview/Honda_Brio/Honda_Brio_1.2_S_MT.htm'
p2680
sS'Tata Tiago 1.2 Revotron XM'
p2681
S'https://www.cardekho.com/overview/Tata_Tiago/Tata_Tiago_1.2_Revotron_XM.htm'
p2682
sS'Renault Pulse RxZ'
p2683
S'https://www.cardekho.com/overview/Renault_Pulse/Renault_Pulse_RxZ.htm'
p2684
sS'Tata Bolt Revotron XMS'
p2685
S'https://www.cardekho.com/overview/Tata_Bolt/Tata_Bolt_Revotron_XMS.htm'
p2686
sS'Maruti Swift LDI'
p2687
S'https://www.cardekho.com/overview/Maruti_Swift/Maruti_Swift_LDI_BSIV.htm'
p2688
sS'Tata Tiago 1.2 Revotron XT'
p2689
S'https://www.cardekho.com/overview/Tata_Tiago/Tata_Tiago_1.2_Revotron_XT.htm'
p2690
sS'Hyundai Elite i20 Sportz 1.2'
p2691
S'https://www.cardekho.com/overview/Hyundai_i20/Hyundai_i20_Sportz_1.2.htm'
p2692
sS'Maruti Swift ZDi'
p2693
S'https://www.cardekho.com/overview/Maruti_Swift/Maruti_Swift_ZDi.htm'
p2694
sS'Hyundai Elite i20 Era 1.4 CRDi'
p2695
S'https://www.cardekho.com/overview/Hyundai_i20/Hyundai_i20_Era_1.4_CRDi.htm'
p2696
sS'Fiat Abarth Punto EVO 1.4 T-Jet'
p2697
S'https://www.cardekho.com/overview/Fiat_Punto_Abarth/Fiat_Punto_Abarth_1.4_T-Jet.htm'
p2698
sS'Mercedes-Benz A-Class A200 D Sport'
p2699
S'https://www.cardekho.com/overview/Mercedes-Benz_A_Class/Mercedes-Benz_A_Class_A200_D_Sport.htm'
p2700
sS'Hyundai EON Sportz'
p2701
S'https://www.cardekho.com/overview/Hyundai_EON/Hyundai_EON_Sportz.htm'
p2702
sS'Volvo V40 D3 R-Design'
p2703
S'https://www.cardekho.com/overview/Volvo_V40/Volvo_V40_D3_R_Design.htm'
p2704
sS'Tata Tiago 1.2 Revotron XZ'
p2705
S'https://www.cardekho.com/overview/Tata_Tiago/Tata_Tiago_1.2_Revotron_XZ.htm'
p2706
sS'Hyundai Grand i10 CRDi Asta Option'
p2707
S'https://www.cardekho.com/overview/Hyundai_Grand_i10/Hyundai_Grand_i10_CRDi_Asta_Option.htm'
p2708
sS'Hyundai Grand i10 Era'
p2709
S'https://www.cardekho.com/overview/Hyundai_Grand_i10/Hyundai_Grand_i10_Era.htm'
p2710
sS'Hyundai Elite i20 Magna AT 1.4'
p2711
S'https://www.cardekho.com/overview/Hyundai_i20/Hyundai_i20_Magna_AT_1.4.htm'
p2712
sS'Toyota Etios Liva 1.2 GX'
p2713
S'https://www.cardekho.com/overview/Toyota_Etios_Liva/Toyota_Etios_Liva_1.2_G.htm'
p2714
sS'Chevrolet Beat LS'
p2715
S'https://www.cardekho.com/overview/Chevrolet_Beat/Chevrolet_Beat_LS.htm'
p2716
sS'Mahindra e2o T2'
p2717
S'https://www.cardekho.com/overview/Mahindra_e2o/Mahindra_e2o_T2.htm'
p2718
sS'Hyundai i10 Era'
p2719
S'https://www.cardekho.com/overview/Hyundai_i10/Hyundai_i10_Era.htm'
p2720
sS'Maruti Swift VXI'
p2721
S'https://www.cardekho.com/overview/Maruti_Swift/Maruti_Swift_VXI.htm'
p2722
sS'Hyundai EON D Lite'
p2723
S'https://www.cardekho.com/overview/Hyundai_EON/Hyundai_EON_D_Lite.htm'
p2724
sS'Volkswagen Polo 1.2 MPI Comfortline'
p2725
S'https://www.cardekho.com/overview/Volkswagen_Polo/Volkswagen_Polo_1.2_MPI_Comfortline.htm'
p2726
sS'Maruti Ritz LDi'
p2727
S'https://www.cardekho.com/overview/Maruti_Ritz/Maruti_Ritz_LDi.htm'
p2728
sS'Tata Nano CNG XM'
p2729
S'https://www.cardekho.com/overview/Tata_Nano/Tata_Nano_CNG_XM.htm'
p2730
sS'Hyundai EON 1.0 Magna Plus Option O'
p2731
S'https://www.cardekho.com/overview/Hyundai_EON/Hyundai_EON_1.0_Magna_Plus_Option_O.htm'
p2732
sS'Honda Jazz 1.2 VX i VTEC'
p2733
S'https://www.cardekho.com/overview/Honda_Jazz/Honda_Jazz_1.2_VX_i_VTEC.htm'
p2734
sS'Volkswagen Polo GT TSI'
p2735
S'https://www.cardekho.com/overview/Volkswagen_Polo/Volkswagen_Polo_GT_TSI.htm'
p2736
sS'Hyundai i20 Active 1.4 S'
p2737
S'https://www.cardekho.com/overview/Hyundai_i20_Active/Hyundai_i20_Active_1.4_S.htm'
p2738
sS'Hyundai EON Magna Plus Option'
p2739
S'https://www.cardekho.com/overview/Hyundai_EON/Hyundai_EON_Magna_Plus_Option.htm'
p2740
sS'Maruti Alto 800 LXI'
p2741
S'https://www.cardekho.com/overview/Maruti_Alto_800/Maruti_Alto_800_LXI.htm'
p2742
sS'Honda Jazz 1.5 VX i DTEC'
p2743
S'https://www.cardekho.com/overview/Honda_Jazz/Honda_Jazz_1.5_VX_i_DTEC.htm'
p2744
sS'Honda Brio 1.2 VX AT'
p2745
S'https://www.cardekho.com/overview/Honda_Brio/Honda_Brio_1.2_VX_AT.htm'
p2746
sS'Toyota Etios Cross 1.4L VD'
p2747
S'https://www.cardekho.com/overview/Toyota_Etios_Cross/Toyota_Etios_Cross_1.4L_VD.htm'
p2748
sS'Hyundai Elite i20 Magna 1.2'
p2749
S'https://www.cardekho.com/overview/Hyundai_i20/Hyundai_i20_Magna_1.2.htm'
p2750
sS'Honda Jazz 1.2 E i VTEC'
p2751
S'https://www.cardekho.com/overview/Honda_Jazz/Honda_Jazz_1.2_E_i_VTEC.htm'
p2752
sS'Datsun GO A EPS'
p2753
S'https://www.cardekho.com/overview/Datsun_GO/Datsun_GO_A_EPS.htm'
p2754
sS'Tata Tiago 1.05 Revotorq XM Option'
p2755
S'https://www.cardekho.com/overview/Tata_Tiago/Tata_Tiago_1.05_Revotorq_XM_Option.htm'
p2756
sS'Fiat Avventura Power Up 1.3 Active'
p2757
S'https://www.cardekho.com/overview/Fiat_Avventura/Fiat_Avventura_Power_Up_1.3_Active.htm'
p2758
sS'Maruti Alto K10 VXI AGS'
p2759
S'https://www.cardekho.com/overview/Maruti_Alto_K10/Maruti_Alto_K10_VXI_AMT.htm'
p2760
sS'Maruti Alto 800 CNG LXI'
p2761
S'https://www.cardekho.com/overview/Maruti_Alto_800/Maruti_Alto_800_CNG_LXI.htm'
p2762
sS'Tata Nano XMA'
p2763
S'https://www.cardekho.com/overview/Tata_Nano/Tata_Nano_XMA.htm'
p2764
sS'Maruti Wagon R Stingray VXI'
p2765
S'https://www.cardekho.com/overview/Maruti_Wagon_R_Stingray/Maruti_Wagon_R_Stingray_VXI.htm'
p2766
sS'Maruti Swift VDI Glory Limited Edition'
p2767
S'https://www.cardekho.com/overview/Maruti_Swift/Maruti_Swift_VDI_Glory_Limited_Edition.htm'
p2768
sS'Hyundai EON LPG Era Plus'
p2769
S'https://www.cardekho.com/overview/Hyundai_EON/Hyundai_EON_LPG_Era_Plus.htm'
p2770
sS'Nissan Micra XL CVT'
p2771
S'https://www.cardekho.com/overview/Nissan_Micra/Nissan_Micra_XL_CVT.htm'
p2772
sS'Honda Jazz 1.5 SV i DTEC'
p2773
S'https://www.cardekho.com/overview/Honda_Jazz/Honda_Jazz_1.5_SV_i_DTEC.htm'
p2774
sS'Maruti Celerio VDI Optional'
p2775
S'https://www.cardekho.com/overview/Maruti_Celerio/Maruti_Celerio_VDI_Optional.htm'
p2776
sS'Honda Jazz 1.2 V AT i VTEC'
p2777
S'https://www.cardekho.com/overview/Honda_Jazz/Honda_Jazz_1.2_V_AT_i_VTEC.htm'
p2778
sS'Maruti Baleno 1.2 Sigma'
p2779
S'https://www.cardekho.com/overview/Maruti_Baleno/Maruti_Baleno_1.2_Sigma.htm'
p2780
sS'Chevrolet Sail Hatchback 1.2 LS ABS'
p2781
S'https://www.cardekho.com/overview/Chevrolet_Sail_Hatchback/Chevrolet_Sail_Hatchback_1.2_LS_ABS.htm'
p2782
sS'Maruti Baleno 1.3 Alpha'
p2783
S'https://www.cardekho.com/overview/Maruti_Baleno/Maruti_Baleno_1.3_Alpha.htm'
p2784
sS'Tata Tiago 1.2 Revotron XE Option'
p2785
S'https://www.cardekho.com/overview/Tata_Tiago/Tata_Tiago_1.2_Revotron_XE_Option.htm'
p2786
sS'Nissan Micra Active XV'
p2787
S'https://www.cardekho.com/overview/Nissan_Micra_Active/Nissan_Micra_Active_XV.htm'
p2788
sS'Maruti Swift VDI Deca'
p2789
S'https://www.cardekho.com/overview/Maruti_Swift/Maruti_Swift_VDI_Deca.htm'
p2790
sS'Maruti Alto K10 LX'
p2791
S'https://www.cardekho.com/overview/Maruti_Alto_K10/Maruti_Alto_K10_LX.htm'
p2792
sS'Maruti Alto K10 LXI Optional'
p2793
S'https://www.cardekho.com/overview/Maruti_Alto_K10/Maruti_Alto_K10_LXI_Optional.htm'
p2794
sS'Fiat Punto Pure 1.2L FIRE'
p2795
S'https://www.cardekho.com/overview/Fiat_Punto_Pure/Fiat_Punto_Pure_1.2L_FIRE.htm'
p2796
sS'Maruti Alto 800 LX Optional'
p2797
S'https://www.cardekho.com/overview/Maruti_Alto_800/Maruti_Alto_800_LX_Optional.htm'
p2798
sS'Maruti Swift LXI Option'
p2799
S'https://www.cardekho.com/overview/Maruti_Swift/Maruti_Swift_LXI_Option.htm'
p2800
sS'Toyota Etios Liva 1.4 GXD'
p2801
S'https://www.cardekho.com/overview/Toyota_Etios_Liva/Toyota_Etios_Liva_1.4_GD.htm'
p2802
sS'Ford Figo 1.5D Ambiente MT'
p2803
S'https://www.cardekho.com/overview/Ford_Figo/Ford_Figo_1.5D_Ambiente_MT.htm'
p2804
sS'Maruti Celerio VXI Optional'
p2805
S'https://www.cardekho.com/overview/Maruti_Celerio/Maruti_Celerio_VXI_Optional.htm'
p2806
sS'Maruti Baleno 1.2 Zeta'
p2807
S'https://www.cardekho.com/overview/Maruti_Baleno/Maruti_Baleno_1.2_Zeta.htm'
p2808
sS'Tata Indica eV2 eLS'
p2809
S'https://www.cardekho.com/overview/Tata_Indica_V2/Tata_Indica_V2_eLS.htm'
p2810
sS'Maruti Wagon R AMT VXI Option'
p2811
S'https://www.cardekho.com/overview/Maruti_Wagon_R/Maruti_Wagon_R_AMT_VXI_Option.htm'
p2812
sS'Hyundai Elite i20 Era 1.2'
p2813
S'https://www.cardekho.com/overview/Hyundai_i20/Hyundai_i20_Era_1.2.htm'
p2814
sS'Maruti Celerio ZXI AT Optional'
p2815
S'https://www.cardekho.com/overview/Maruti_Celerio/Maruti_Celerio_ZXI_AT_Optional.htm'
p2816
sS'Hyundai EON Era Plus Option'
p2817
S'https://www.cardekho.com/overview/Hyundai_EON/Hyundai_EON_Era_Plus_Option.htm'
p2818
sS'Volkswagen Polo Select 1.2 MPI Highline'
p2819
S'https://www.cardekho.com/overview/Volkswagen_Polo/Volkswagen_Polo_Select_1.2_MPI_Highline.htm'
p2820
sS'Hyundai EON Era Plus'
p2821
S'https://www.cardekho.com/overview/Hyundai_EON/Hyundai_EON_Era_Plus.htm'
p2822
sS'Toyota Etios Cross 1.4L GD'
p2823
S'https://www.cardekho.com/overview/Toyota_Etios_Cross/Toyota_Etios_Cross_1.4L_GD.htm'
p2824
sS'Toyota Etios Liva 1.4 VXD'
p2825
S'https://www.cardekho.com/overview/Toyota_Etios_Liva/Toyota_Etios_Liva_1.4_VXD.htm'
p2826
sS'Toyota Etios Liva 1.2 VX'
p2827
S'https://www.cardekho.com/overview/Toyota_Etios_Liva/Toyota_Etios_Liva_1.2_VX.htm'
p2828
sS'Ford Figo 1.2P Titanium MT'
p2829
S'https://www.cardekho.com/overview/Ford_Figo/Ford_Figo_1.2P_Titanium_MT.htm'
p2830
sS'Volkswagen Polo 1.5 TDI Highline'
p2831
S'https://www.cardekho.com/overview/Volkswagen_Polo/Volkswagen_Polo_1.5_TDI_Highline.htm'
p2832
sS'Ford Figo 1.2P Titanium Plus MT'
p2833
S'https://www.cardekho.com/overview/Ford_Figo/Ford_Figo_1.2P_Titanium_Plus_MT.htm'
p2834
sS'Honda Jazz 1.2 SV i VTEC'
p2835
S'https://www.cardekho.com/overview/Honda_Jazz/Honda_Jazz_1.2_SV_i_VTEC.htm'
p2836
sS'Tata Nano XTA'
p2837
S'https://www.cardekho.com/overview/Tata_Nano/Tata_Nano_XTA.htm'
p2838
sS'Maruti Celerio ZXI'
p2839
S'https://www.cardekho.com/overview/Maruti_Celerio/Maruti_Celerio_ZXI.htm'
p2840
sS'Mini Countryman Cooper D'
p2841
S'https://www.cardekho.com/overview/Mini_Cooper_Countryman/Mini_Cooper_Countryman_Cooper_D.htm'
p2842
sS'Maruti Alto K10 LXI CNG'
p2843
S'https://www.cardekho.com/overview/Maruti_Alto_K10/Maruti_Alto_K10_LXI_CNG.htm'
p2844
sS'Chevrolet Beat Diesel PS'
p2845
S'https://www.cardekho.com/overview/Chevrolet_Beat/Chevrolet_Beat_Diesel_PS.htm'
p2846
sS'Chevrolet Sail Hatchback 1.3 TCDi'
p2847
S'https://www.cardekho.com/overview/Chevrolet_Sail_Hatchback/Chevrolet_Sail_Hatchback_1.3_TCDi.htm'
p2848
sS'Renault Pulse RxL ABS'
p2849
S'https://www.cardekho.com/overview/Renault_Pulse/Renault_Pulse_RxL_Optional.htm'
p2850
sS'Tata Bolt Revotron XM'
p2851
S'https://www.cardekho.com/overview/Tata_Bolt/Tata_Bolt_Revotron_XM.htm'
p2852
sS'Tata Nano XM'
p2853
S'https://www.cardekho.com/overview/Tata_Nano/Tata_Nano_XM.htm'
p2854
sS'Volkswagen Polo 1.2 MPI Highline'
p2855
S'https://www.cardekho.com/overview/Volkswagen_Polo/Volkswagen_Polo_1.2_MPI_Highline.htm'
p2856
sS'Hyundai Grand i10 Sportz'
p2857
S'https://www.cardekho.com/overview/Hyundai_Grand_i10/Hyundai_Grand_i10_Sportz.htm'
p2858
sS'Fiat Avventura Urban Cross 1.3 Multijet Dynamic'
p2859
S'https://www.cardekho.com/overview/Fiat_Avventura_Urban_Cross/Fiat_Avventura_Urban_Cross_1.3_Multijet_Dynamic.htm'
p2860
sS'Tata Indica eV2 LS BSIII'
p2861
S'https://www.cardekho.com/overview/Tata_Indica_V2/Tata_Indica_V2_DLS_BSIII.htm'
p2862
sS'Maruti Celerio VXI AT Optional'
p2863
S'https://www.cardekho.com/overview/Maruti_Celerio/Maruti_Celerio_VXI_AT_Optional.htm'
p2864
sS'Tata Nano XE'
p2865
S'https://www.cardekho.com/overview/Tata_Nano/Tata_Nano_XE.htm'
p2866
sS'Maruti Alto 800 CNG LXI Optional'
p2867
S'https://www.cardekho.com/overview/Maruti_Alto_800/Maruti_Alto_800_CNG_LXI_Optional.htm'
p2868
sS'Ford Figo 1.5D Base MT'
p2869
S'https://www.cardekho.com/overview/Ford_Figo/Ford_Figo_1.5D_Base_MT.htm'
p2870
sS'Maruti Wagon R VXI Optional'
p2871
S'https://www.cardekho.com/overview/Maruti_Wagon_R/Maruti_Wagon_R_VXI_Optional.htm'
p2872
sS'Maruti Wagon R Stingray AMT VXI'
p2873
S'https://www.cardekho.com/overview/Maruti_Wagon_R_Stingray/Maruti_Wagon_R_Stingray_AMT_VXI.htm'
p2874
sS'Maruti Ritz ZDi'
p2875
S'https://www.cardekho.com/overview/Maruti_Ritz/Maruti_Ritz_ZDi.htm'
p2876
sS'Mercedes-Benz A-Class A180 Sport'
p2877
S'https://www.cardekho.com/overview/Mercedes-Benz_A_Class/Mercedes-Benz_A_Class_A180_Sport.htm'
p2878
sS'Maruti Ritz AT'
p2879
S'https://www.cardekho.com/overview/Maruti_Ritz/Maruti_Ritz_AT.htm'
p2880
sS'Maruti Swift 1.2 DLX'
p2881
S'https://www.cardekho.com/overview/Maruti_Swift/Maruti_Swift_1.2_DLX.htm'
p2882
sS'Hyundai Grand i10 CRDi Sportz'
p2883
S'https://www.cardekho.com/overview/Hyundai_Grand_i10/Hyundai_Grand_i10_CRDi_Sportz.htm'
p2884
sS'Tata Nano XT'
p2885
S'https://www.cardekho.com/overview/Tata_Nano/Tata_Nano_XT.htm'
p2886
sS'Chevrolet Beat Diesel LTZ'
p2887
S'https://www.cardekho.com/overview/Chevrolet_Beat/Chevrolet_Beat_Diesel_LTZ.htm'
p2888
sS'Maruti Wagon R LXI'
p2889
S'https://www.cardekho.com/overview/Maruti_Wagon_R/Maruti_Wagon_R_LXI_BS_IV.htm'
p2890
sS'Maruti Swift LXI Optional-O'
p2891
S'https://www.cardekho.com/overview/Maruti_Swift/Maruti_Swift_LXI_Optional-O.htm'
p2892
sS'Maruti Alto K10 VXI AGS Optional'
p2893
S'https://www.cardekho.com/overview/Maruti_Alto_K10/Maruti_Alto_K10_VXI_AGS_Optional.htm'
p2894
sS'Hyundai EON LPG Era Plus Option'
p2895
S'https://www.cardekho.com/overview/Hyundai_EON/Hyundai_EON_LPG_Era_Plus_Option.htm'
p2896
sS'Hyundai i10 Sportz 1.1L LPG'
p2897
S'https://www.cardekho.com/overview/Hyundai_i10/Hyundai_i10_Sportz_1.1L_LPG.htm'
p2898
sS'Volkswagen Polo GT 1.5 TDI'
p2899
S'https://www.cardekho.com/overview/Volkswagen_Polo/Volkswagen_Polo_GT_1.5_TDI.htm'
p2900
sS'Chevrolet Sail Hatchback 1.2 LT ABS'
p2901
S'https://www.cardekho.com/overview/Chevrolet_Sail_Hatchback/Chevrolet_Sail_Hatchback_1.2_LT_ABS.htm'
p2902
sS'Chevrolet Sail Hatchback 1.2'
p2903
S'https://www.cardekho.com/overview/Chevrolet_Sail_Hatchback/Chevrolet_Sail_Hatchback_1.2.htm'
p2904
sS'Datsun Redi GO T'
p2905
S'https://www.cardekho.com/overview/Datsun_RediGO/Datsun_RediGO_T.htm'
p2906
sS'Datsun Redi GO S'
p2907
S'https://www.cardekho.com/overview/Datsun_RediGO/Datsun_RediGO_S.htm'
p2908
sS'Fiat 500 Abarth 595 Competizione'
p2909
S'https://www.cardekho.com/overview/Fiat_500/Fiat_500_Abarth_595_Competizione.htm'
p2910
sS'Maruti Baleno 1.3 Sigma'
p2911
S'https://www.cardekho.com/overview/Maruti_Baleno/Maruti_Baleno_1.3_Sigma.htm'
p2912
sS'Tata Bolt Quadrajet XT'
p2913
S'https://www.cardekho.com/overview/Tata_Bolt/Tata_Bolt_Quadrajet_XT.htm'
p2914
sS'Maruti Wagon R LXI CNG'
p2915
S'https://www.cardekho.com/overview/Maruti_Wagon_R/Maruti_Wagon_R_LXI_CNG.htm'
p2916
sS'Renault KWID RXE'
p2917
S'https://www.cardekho.com/overview/Renault_KWID/Renault_KWID_RXE.htm'
p2918
sS'Maruti Alto K10 LX Optional'
p2919
S'https://www.cardekho.com/overview/Maruti_Alto_K10/Maruti_Alto_K10_LX_Optional.htm'
p2920
sS'Maruti Celerio LXI AT Optional'
p2921
S'https://www.cardekho.com/overview/Maruti_Celerio/Maruti_Celerio_LXI_AT_Optional.htm'
p2922
sS'Renault KWID RXL'
p2923
S'https://www.cardekho.com/overview/Renault_KWID/Renault_KWID_RXL.htm'
p2924
sS'Hyundai EON LPG Magna Plus'
p2925
S'https://www.cardekho.com/overview/Hyundai_EON/Hyundai_EON_LPG_Magna_Plus.htm'
p2926
sS'Datsun Redi GO A'
p2927
S'https://www.cardekho.com/overview/Datsun_RediGO/Datsun_RediGO_A.htm'
p2928
sS'Hyundai EON D Lite Plus'
p2929
S'https://www.cardekho.com/overview/Hyundai_EON/Hyundai_EON_D_Lite_Plus.htm'
p2930
sS'Maruti Alto K10 VXI Option'
p2931
S'https://www.cardekho.com/overview/Maruti_Alto_K10/Maruti_Alto_K10_VXI_Airbag.htm'
p2932
sS'Maruti Alto 800 LXI Optional'
p2933
S'https://www.cardekho.com/overview/Maruti_Alto_800/Maruti_Alto_800_LXI_Optional.htm'
p2934
sS'Maruti Baleno 1.3 Delta'
p2935
S'https://www.cardekho.com/overview/Maruti_Baleno/Maruti_Baleno_1.3_Delta.htm'
p2936
sS'Datsun GO Style'
p2937
S'https://www.cardekho.com/overview/Datsun_GO/Datsun_GO_Style.htm'
p2938
sS'Hyundai i20 Active 1.2 SX with AVN'
p2939
S'https://www.cardekho.com/overview/Hyundai_i20_Active/Hyundai_i20_Active_1.2_SX_with_AVN.htm'
p2940
sS'Nissan Micra Active XV S'
p2941
S'https://www.cardekho.com/overview/Nissan_Micra_Active/Nissan_Micra_Active_XV_S.htm'
p2942
sS'BMW 1 Series 118d Sport Line'
p2943
S'https://www.cardekho.com/overview/BMW_1_Series/BMW_1_Series_118d_Sport_Line.htm'
p2944
sS'Hyundai EON Magna Plus'
p2945
S'https://www.cardekho.com/overview/Hyundai_EON/Hyundai_EON_Magna_Plus.htm'
p2946
sS'Maruti Ritz VDI (ABS)'
p2947
S'https://www.cardekho.com/overview/Maruti_Ritz/Maruti_Ritz_VDI_(ABS)_BS_IV.htm'
p2948
sS'Honda Jazz 1.2 S i VTEC'
p2949
S'https://www.cardekho.com/overview/Honda_Jazz/Honda_Jazz_1.2_S_i_VTEC.htm'
p2950
sS'Maruti Alto 800 STD Optional'
p2951
S'https://www.cardekho.com/overview/Maruti_Alto_800/Maruti_Alto_800_Std_Optional.htm'
p2952
sS'Maruti Alto 800 LX'
p2953
S'https://www.cardekho.com/overview/Maruti_Alto_800/Maruti_Alto_800_LX.htm'
p2954
sS'Maruti Baleno 1.2 Delta'
p2955
S'https://www.cardekho.com/overview/Maruti_Baleno/Maruti_Baleno_1.2_Delta.htm'
p2956
sS'Fiat Punto EVO Power UP 1.3 Active'
p2957
S'https://www.cardekho.com/overview/Fiat_Grande_Punto/Fiat_Grande_Punto_EVO_Power_UP_1.3_Active.htm'
p2958
sS'Volvo V40 D3 Kinetic'
p2959
S'https://www.cardekho.com/overview/Volvo_V40/Volvo_V40_D3.htm'
p2960
sS'Renault KWID RXT'
p2961
S'https://www.cardekho.com/overview/Renault_KWID/Renault_KWID_RXT.htm'
p2962
sS'Chevrolet Spark 1.0 LT'
p2963
S'https://www.cardekho.com/overview/Chevrolet_Spark/Chevrolet_Spark_1.0_LT.htm'
p2964
sS'Maruti Celerio LDI Optional'
p2965
S'https://www.cardekho.com/overview/Maruti_Celerio/Maruti_Celerio_LDI_Optional.htm'
p2966
sS'Chevrolet Spark 1.0 LS'
p2967
S'https://www.cardekho.com/overview/Chevrolet_Spark/Chevrolet_Spark_1.0_LS.htm'
p2968
sS'Maruti Celerio LDi'
p2969
S'https://www.cardekho.com/overview/Maruti_Celerio/Maruti_Celerio_LDi.htm'
p2970
sS'Hyundai EON D Lite Plus Option'
p2971
S'https://www.cardekho.com/overview/Hyundai_EON/Hyundai_EON_D_Lite_Plus_Option.htm'
p2972
sS'Maruti Celerio Green VXI Optional'
p2973
S'https://www.cardekho.com/overview/Maruti_Celerio/Maruti_Celerio_Green_VXI_Optional.htm'
p2974
sS'Mahindra Verito Vibe 1.5 dCi D2'
p2975
S'https://www.cardekho.com/overview/Mahindra_Verito_Vibe/Mahindra_Verito_Vibe_1.5_dCi_D2.htm'
p2976
sS'Maruti Alto 800 STD'
p2977
S'https://www.cardekho.com/overview/Maruti_Alto_800/Maruti_Alto_800_STD.htm'
p2978
sS'Fiat Punto EVO Power UP 1.3 Dynamic'
p2979
S'https://www.cardekho.com/overview/Fiat_Grande_Punto/Fiat_Grande_Punto_EVO_Power_UP_1.3_Dynamic.htm'
p2980
sS'Mahindra Verito Vibe 1.5 dCi D6'
p2981
S'https://www.cardekho.com/overview/Mahindra_Verito_Vibe/Mahindra_Verito_Vibe_1.5_dCi_D6.htm'
p2982
sS'Tata Bolt Quadrajet XM'
p2983
S'https://www.cardekho.com/overview/Tata_Bolt/Tata_Bolt_Quadrajet_XM.htm'
p2984
sS'Maruti Swift VDI Optional'
p2985
S'https://www.cardekho.com/overview/Maruti_Swift/Maruti_Swift_VDI_Optional.htm'
p2986
sS'Maruti Wagon R Stingray VXI Optional'
p2987
S'https://www.cardekho.com/overview/Maruti_Wagon_R_Stingray/Maruti_Wagon_R_Stingray_VXI_Optional.htm'
p2988
sS'Maruti Wagon R LXI Optional'
p2989
S'https://www.cardekho.com/overview/Maruti_Wagon_R/Maruti_Wagon_R_LXI_Optional.htm'
p2990
sS'Maruti Celerio VXI'
p2991
S'https://www.cardekho.com/overview/Maruti_Celerio/Maruti_Celerio_VXI.htm'
p2992
sS'Maruti Baleno 1.2 Alpha'
p2993
S'https://www.cardekho.com/overview/Maruti_Baleno/Maruti_Baleno_1.2_Alpha.htm'
p2994
sS'Volkswagen Polo 1.5 TDI Trendline'
p2995
S'https://www.cardekho.com/overview/Volkswagen_Polo/Volkswagen_Polo_1.5_TDI_Trendline.htm'
p2996
sS'Maruti Wagon R LXI CNG Optional'
p2997
S'https://www.cardekho.com/overview/Maruti_Wagon_R/Maruti_Wagon_R_LXI_CNG_Optional.htm'
p2998
sS'Mahindra Verito Vibe 1.5 dCi D4'
p2999
S'https://www.cardekho.com/overview/Mahindra_Verito_Vibe/Mahindra_Verito_Vibe_1.5_dCi_D4.htm'
p3000
sS'Honda Jazz 1.2 V i VTEC'
p3001
S'https://www.cardekho.com/overview/Honda_Jazz/Honda_Jazz_1.2_V_i_VTEC.htm'
p3002
sS'Maruti Celerio LXI AT'
p3003
S'https://www.cardekho.com/overview/Maruti_Celerio/Maruti_Celerio_LXI_AT.htm'
p3004
sS'Maruti Swift VXI Optional'
p3005
S'https://www.cardekho.com/overview/Maruti_Swift/Maruti_Swift_VXI_Optional.htm'
p3006
sS'Hyundai Elite i20 Asta 1.2'
p3007
S'https://www.cardekho.com/overview/Hyundai_i20/Hyundai_i20_Asta_1.2.htm'
p3008
sS'Ford Figo 1.2P Trend MT'
p3009
S'https://www.cardekho.com/overview/Ford_Figo/Ford_Figo_1.2P_Trend_MT.htm'
p3010
sS'Ford Figo 1.2P Ambiente MT'
p3011
S'https://www.cardekho.com/overview/Ford_Figo/Ford_Figo_1.2P_Ambiente_MT.htm'
p3012
ssa.