(dp0
S'Maserati Gran Turismo'
p1
(dp2
S'Capacity'
p3
(lp4
(dp5
S'Kerb Weight'
p6
S'True'
p7
sS'Width'
p8
g7
sS'Front Tread'
p9
g7
sS'No of Floors'
p10
S'-'
p11
sS'Ground Clearance'
p12
g7
sS'Seating Capacity'
p13
S'4'
p14
sS'Front Legroom'
p15
g11
sS'Tyre Type'
p16
S'Tubeless,Radial'
p17
sS'Gross Weight'
p18
g11
sS'No of Doors'
p19
S'2'
p20
sS'Rear Headroom'
p21
g11
sS'Fuel Tank Capacity (Liters)'
p22
S'86'
p23
sS'Wheel Base'
p24
g7
sS'Alloy Wheel Size'
p25
S'19 Inch'
p26
sS'Length'
p27
g7
sS'Front Headroom'
p28
g11
sS'Rear Legroom'
p29
g11
sS'Wheel Size'
p30
g11
sS'Rear Tread'
p31
g7
sS'Cargo Volume'
p32
S'260-litres'
p33
sS'Height'
p34
g7
sS'Tyre Size'
p35
S'245/40 R19,285/40 R19'
p36
sasS'Comfort'
p37
(lp38
(dp39
S'Leather Seats'
p40
g7
sS'Vanity Mirror'
p41
g7
sS'DVD Player'
p42
g7
sS'Audio System Remote Control'
p43
S'False'
p44
sS'Cup Holders-Rear'
p45
g7
sS'Front Suspension'
p46
S'Double Wishbone'
p47
sS'Air Conditioner'
p48
g7
sS'Rear Seat Headrest'
p49
g7
sS'Multi-function Steering Wheel'
p50
g7
sS'Fabric Upholstery'
p51
g44
sS'Remote Trunk Opener'
p52
g7
sS'Touch Screen'
p53
g7
sS'Rear Seat Center Arm Rest'
p54
g7
sS'CD Changer'
p55
g44
sS'Rear Suspension'
p56
S'Five-Arm Multilink'
p57
sS'Air Quality Control'
p58
g7
sS'Heated Seats - Rear'
p59
g44
sS'Transmission Type'
p60
S'Automatic'
p61
sS'Rear A/C Vents'
p62
g7
sS'Navigation System'
p63
g7
sS'Seat Lumbar Support'
p64
g7
sS'Cruise Control'
p65
g7
sS'Rear Reading Lamp'
p66
g44
sS'Cup Holders-Front'
p67
g7
sS'Glove Box Cooling'
p68
g44
sS'Integrated 2DIN Audio'
p69
g7
sS'Bottle Holder'
p70
g7
sS'CD Player'
p71
g7
sS'Speakers Front'
p72
g7
sS'Remote Fuel Lid Opener'
p73
g7
sS'Power Steering'
p74
g7
sS'Voice Control'
p75
g44
sS'Bluetooth Connectivity'
p76
g7
sS'Cassette Player'
p77
g44
sS'Automatic Climate Control'
p78
g7
sS'Accessory Power Outlet'
p79
g7
sS'FM/AM/Radio'
p80
g7
sS'Shock Absorbers Type'
p81
g11
sS'Foldable Rear Seat'
p82
g44
sS'Speakers Rear'
p83
g7
sS'Adjustable Seats'
p84
g7
sS'USB & Auxiliary input'
p85
g7
sS'Engine Start/Stop Button'
p86
g7
sS'Trunk Light'
p87
g7
sS'Heated Seats - Front'
p88
g44
sS'Low Fuel Warning Light'
p89
g7
sasS'Safety'
p90
(lp91
(dp92
S'Parking Sensors'
p93
g7
sS'Height Adjustable Front Seat Belts'
p94
g44
sS'Front Brake Type'
p95
S'Ventilated Disc'
p96
sS'Brake Assist'
p97
g7
sS'Child Safety Locks'
p98
g44
sS'Door Ajar Warning'
p99
g7
sS'Rear Seat Belts'
p100
g7
sS'Passenger Airbag'
p101
g7
sS'Follow Me Home Headlamps'
p102
g44
sS'Traction Control'
p103
g7
sS'Braking Time'
p104
S''
p105
sS'Anti-Theft Alarm'
p106
g44
sS'Rear Camera'
p107
g7
sS'Smart Access Card Entry'
p108
g44
sS'Day & Night Rear View Mirror'
p109
g7
sS'Crash Sensor'
p110
g7
sS'Engine Immobilizer'
p111
g7
sS'Driver Airbag'
p112
g7
sS'Side Airbag-Front'
p113
g7
sS'Seat Belt Warning'
p114
g7
sS'Side Airbag-Rear'
p115
g44
sS'Centrally Mounted Fuel Tank'
p116
g7
sS'Front Impact Beams'
p117
g7
sS'Passenger Side Rear View Mirror'
p118
g7
sS'Rear Brake Type'
p119
g96
sS'Central Locking'
p120
g7
sS'Drag Coefficient'
p121
g11
sS'Power Door Locks'
p122
g7
sS'Anti-Lock Braking System'
p123
g7
sS'Automatic Headlamps'
p124
g7
sS'Side Impact Beams'
p125
g7
sasS'Others'
p126
(lp127
(dp128
S'Warranty Distance'
p129
S'Unlimited Kms'
p130
sS'Clutch Type'
p131
g11
sS'Bore x Stroke'
p132
S'94 X 84.5 mm'
p133
sS'Emission Norm Compliance'
p134
S'Euro V'
p135
sS'Warranty Time'
p136
S'3 Years'
p137
sS'Country of Manufacture'
p138
S'Italian'
p139
sS'Synchronizers'
p140
g11
sS'Country of Assembly'
p141
g139
sS'Emission Control System'
p142
g11
sasS'Performance'
p143
(lp144
(dp145
S'No. of Cylinders'
p146
S'8'
p147
sS'Super Charger'
p148
S'Yes'
p149
sS'Maximum Power'
p150
S'405bhp@7100rpm'
p151
sS'Valves Per Cylinder'
p152
g14
sS'Engine Description'
p153
S'4.2-litre 405bhp 32V V-Type Petrol Engine'
p154
sS'Engine Displacement(cc)'
p155
S'4224'
p156
sS'Turning Radius'
p157
S'5.35 metres'
p158
sS'Fuel Supply System'
p159
S'Direct Injection'
p160
sS'Acceleration (0-100 kmph)'
p161
S'5.2 Seconds'
p162
sS'Drive Type'
p163
S'RWD'
p164
sS'Steering Gear Type'
p165
S'Rack & Pinion'
p166
sS'Compression Ratio'
p167
S'11.0:1'
p168
sS'Gear box'
p169
S'6 Speed'
p170
sS'Top Speed'
p171
S'285 Kmph'
p172
sS'Maximum Torque'
p173
S'460Nm@4750rpm'
p174
sS'Turbo Charger'
p175
S'No'
p176
sasS'Key Specs'
p177
(lp178
(dp179
S'Torque'
p180
g174
sS'Ex-showroom Price New Delhi'
p181
S'` 1,78,60,233 Finance Quotes'
p182
sS'Fuel Type'
p183
S'Petrol'
p184
sS'BHP'
p185
g151
sS'Engine Displacement'
p186
S'4224 cc'
p187
sS'City / Highway Mileage'
p188
S'4.65 kmpl / 10.0 kmpl'
p189
sass.