(dp0
S'https://www.cardekho.com/overview/Ferrari_458_Speciale/Ferrari_458_Speciale_V8.htm'
p1
I40700000
sS'https://www.cardekho.com/overview/Bentley_Continental/Bentley_Continental_GTC.htm'
p2
I39100000
sS'https://www.cardekho.com/overview/BMW_M_Series/BMW_M_Series_M6_Gran_Coupe.htm'
p3
I17700000
sS'https://www.cardekho.com/overview/Mercedes-Benz_AMG_GT/Mercedes-Benz_AMG_GT_S.htm'
p4
I24500000
sS'https://www.cardekho.com/overview/Land_Rover_Range_Rover_Evoque/Land_Rover_Range_Rover_Evoque_HSE.htm'
p5
I5873000
sS'https://www.cardekho.com/overview/Mercedes-Benz_S-Class/Mercedes-Benz_S-Class_S_63_AMG_Coupe.htm'
p6
I26700000
sS'https://www.cardekho.com/overview/Lamborghini_Huracan/Lamborghini_Huracan_LP_610_4.htm'
p7
I34300000
sS'https://www.cardekho.com/overview/Mercedes-Benz_S-Class/Mercedes-Benz_S-Class_S_Guard.htm'
p8
I90600000
sS'https://www.cardekho.com/overview/Jaguar_F_Type/Jaguar_F_Type_5.0_V8_S.htm'
p9
I18400000
sS'https://www.cardekho.com/overview/Lamborghini_Huracan/Lamborghini_Huracan_LP_580_2.htm'
p10
I29900000
sS'https://www.cardekho.com/overview/Lamborghini_Huracan/Lamborghini_Huracan_LP_610_4_Spyder.htm'
p11
I38900000
sS'https://www.cardekho.com/overview/Porsche_911/Porsche_911_Turbo_S.htm'
p12
I26600000
sS'https://www.cardekho.com/overview/Mercedes-Benz_GLE_Class/Mercedes-Benz_GLE_Class_Coupe.htm'
p13
I8956000
sS'https://www.cardekho.com/overview/Bentley_Continental/Bentley_Continental_GT_V8.htm'
p14
I32900000
sS'https://www.cardekho.com/overview/Aston_Martin_Vanquish/Aston_Martin_Vanquish_V12.htm'
p15
I38500000
sS'https://www.cardekho.com/overview/Mercedes-Benz_GLE_Class/Mercedes-Benz_GLE_Class_350d.htm'
p16
I7420000
sS'https://www.cardekho.com/overview/Jaguar_F_Type/Jaguar_F_Type_S_Coupe.htm'
p17
I14100000
sS'https://www.cardekho.com/overview/Porsche_Cayman/Porsche_Cayman_GT4.htm'
p18
I13100000
sS'https://www.cardekho.com/overview/Bentley_Continental/Bentley_Continental_GT.htm'
p19
I35800000
sS'https://www.cardekho.com/overview/Ferrari_488_GTB/Ferrari_488_GTB_V8.htm'
p20
I38800000
sS'https://www.cardekho.com/overview/Ferrari_F12berlinetta/Ferrari_F12berlinetta_V12.htm'
p21
I47100000
sS'https://www.cardekho.com/overview/DC_Avanti/DC_Avanti_2.0_L.htm'
p22
I3593000
sS'https://www.cardekho.com/overview/Mercedes-Benz_GLE_Class/Mercedes-Benz_GLE_Class_250d.htm'
p23
I6300000
sS'https://www.cardekho.com/overview/Audi_R8/Audi_R8_V10_Plus.htm'
p24
I22300000
sS'https://www.cardekho.com/overview/Bentley_Continental/Bentley_Continental_GT_Speed_Convertible.htm'
p25
I44300000
sS'https://www.cardekho.com/overview/Jaguar_F_Type/Jaguar_F_Type_Coupe.htm'
p26
I12800000
sS'https://www.cardekho.com/overview/Mercedes-Benz_S-Class/Mercedes-Benz_S-Class_Maybach_S600.htm'
p27
I26500000
sS'https://www.cardekho.com/overview/Porsche_Cayman/Porsche_Cayman_S_Tiptronic.htm'
p28
I10700000
sS'https://www.cardekho.com/overview/Porsche_Cayman/Porsche_Cayman_GTS.htm'
p29
I11800000
sS'https://www.cardekho.com/overview/Bentley_Continental/Bentley_Continental_GT_V8_Convertible.htm'
p30
I36400000
sS'https://www.cardekho.com/overview/Land_Rover_Range_Rover_Evoque/Land_Rover_Range_Rover_Evoque_SE.htm'
p31
I5384000
sS'https://www.cardekho.com/overview/Maserati_Gran_Turismo/Maserati_Gran_Turismo_4.2_V8.htm'
p32
I17900000
sS'https://www.cardekho.com/overview/Porsche_911/Porsche_911_Carrera.htm'
p33
I14200000
sS'https://www.cardekho.com/overview/Rolls-Royce_Phantom/Rolls-Royce_Phantom_Phantom.htm'
p34
I80000000
sS'https://www.cardekho.com/overview/Rolls-Royce_Wraith/Rolls-Royce_Wraith_Coupe.htm'
p35
I55000000
sS'https://www.cardekho.com/overview/Mercedes-Benz_S-Class/Mercedes-Benz_S-Class_Maybach_S500.htm'
p36
I17300000
sS'https://www.cardekho.com/overview/Jaguar_F_Type/Jaguar_F_Type_3.0_V6_S.htm'
p37
I15600000
sS'https://www.cardekho.com/overview/Porsche_911/Porsche_911_Carrera_S_Cabriolet.htm'
p38
I17600000
sS'https://www.cardekho.com/overview/Rolls-Royce_Phantom/Rolls-Royce_Phantom_Drophead_Coupe.htm'
p39
I40000000
sS'https://www.cardekho.com/overview/Jaguar_F_Type/Jaguar_F_Type_R_Coupe.htm'
p40
I19200000
sS'https://www.cardekho.com/overview/Land_Rover_Range_Rover_Evoque/Land_Rover_Range_Rover_Evoque_Coupe_HSE_Dynamic.htm'
p41
I5290000
sS'https://www.cardekho.com/overview/Porsche_911/Porsche_911_Carrera_S.htm'
p42
I16299999
sS'https://www.cardekho.com/overview/Mercedes-Benz_S-Class/Mercedes-Benz_S-Class_S_350_CDI.htm'
p43
I11900000
sS'https://www.cardekho.com/overview/Lamborghini_Huracan/Lamborghini_Huracan_AVIO.htm'
p44
I37100000
sS'https://www.cardekho.com/overview/Aston_Martin_Vantage/Aston_Martin_Vantage_V8_4.7L.htm'
p45
I25500000
sS'https://www.cardekho.com/overview/Bentley_Continental/Bentley_Continental_GT_V8_S.htm'
p46
I35600000
sS'https://www.cardekho.com/overview/Bentley_Continental/Bentley_Continental_GT_V8_S_Convertible.htm'
p47
I39200000
sS'https://www.cardekho.com/overview/Porsche_911/Porsche_911_Turbo_Cabriolet.htm'
p48
I23900000
sS'https://www.cardekho.com/overview/BMW_M_Series/BMW_M_Series_M3_Sedan.htm'
p49
I12600000
sS'https://www.cardekho.com/overview/Bentley_Continental/Bentley_Continental_GT_Speed.htm'
p50
I40400000
sS'https://www.cardekho.com/overview/Lamborghini_Aventador/Lamborghini_Aventador_LP700_4.htm'
p51
I36900000
sS'https://www.cardekho.com/overview/Land_Rover_Range_Rover_Evoque/Land_Rover_Range_Rover_Evoque_Pure.htm'
p52
I4794000
sS'https://www.cardekho.com/overview/Porsche_911/Porsche_911_Carrera_Cabriolet.htm'
p53
I15600000
sS'https://www.cardekho.com/overview/Aston_Martin_Vantage/Aston_Martin_Vantage_V8_Roadster.htm'
p54
I27500000
sS'https://www.cardekho.com/overview/Aston_Martin_Vantage/Aston_Martin_Vantage_V12_6.0L.htm'
p55
I35000000
sS'https://www.cardekho.com/overview/Rolls-Royce_Phantom/Rolls-Royce_Phantom_Extended_Wheelbase.htm'
p56
I82500000
sS'https://www.cardekho.com/overview/Audi_TT/Audi_TT_45_TFSI.htm'
p57
I6170000
sS'https://www.cardekho.com/overview/Mercedes-Benz_S-Class/Mercedes-Benz_S-Class_S400.htm'
p58
I13100000
sS'https://www.cardekho.com/overview/Land_Rover_Range_Rover_Evoque/Land_Rover_Range_Rover_Evoque_HSE_Dynamic.htm'
p59
I6431999
sS'https://www.cardekho.com/overview/BMW_M_Series/BMW_M_Series_M4_Coupe.htm'
p60
I12800000
sS'https://www.cardekho.com/overview/Rolls-Royce_Phantom/Rolls-Royce_Phantom_Coupe.htm'
p61
I40000000
sS'https://www.cardekho.com/overview/Aston_Martin_DB11/Aston_Martin_DB11_V12.htm'
p62
I39700000
sS'https://www.cardekho.com/overview/Mercedes-Benz_GLE_Class/Mercedes-Benz_GLE_Class_400_4MATIC.htm'
p63
I7490000
sS'https://www.cardekho.com/overview/Aston_Martin_Vantage/Aston_Martin_Vantage_V8_Sport.htm'
p64
I13500000
sS'https://www.cardekho.com/overview/BMW_M_Series/BMW_M_Series_M5_Sedan.htm'
p65
I13600000
sS'https://www.cardekho.com/overview/Mercedes-Benz_S-Class/Mercedes-Benz_S-Class_S_500_Coupe.htm'
p66
I20900000
sS'https://www.cardekho.com/overview/Mercedes-Benz_S-Class/Mercedes-Benz_S-Class_S_63_AMG.htm'
p67
I25200000
sS'https://www.cardekho.com/overview/Porsche_911/Porsche_911_Turbo.htm'
p68
I22599999
sS'https://www.cardekho.com/overview/Ferrari_FF/Ferrari_FF_GT.htm'
p69
I45599999
sS'https://www.cardekho.com/overview/BMW_M_Series/BMW_M_Series_X5_M.htm'
p70
I16200000
sS'https://www.cardekho.com/overview/Mercedes-Benz_S-Class/Mercedes-Benz_S-Class_Maybach_S600_Guard.htm'
p71
I112500000
sS'https://www.cardekho.com/overview/BMW_M_Series/BMW_M_Series_X6_M.htm'
p72
I16600000
sS'https://www.cardekho.com/overview/Lamborghini_Aventador/Lamborghini_Aventador_Roadster_LP_700_4.htm'
p73
I47800000
sS'https://www.cardekho.com/overview/Porsche_911/Porsche_911_Turbo_S_Cabriolet.htm'
p74
I28200000
s.