(dp0
S'https://www.cardekho.com/overview/Ferrari_458_Speciale/Ferrari_458_Speciale_V8.htm'
p1
V4.07 Cr
p2
sS'https://www.cardekho.com/overview/Bentley_Continental/Bentley_Continental_GTC.htm'
p3
V3.91 Cr
p4
sS'https://www.cardekho.com/overview/BMW_M_Series/BMW_M_Series_M6_Gran_Coupe.htm'
p5
V1.77 Cr
p6
sS'https://www.cardekho.com/overview/Mercedes-Benz_AMG_GT/Mercedes-Benz_AMG_GT_S.htm'
p7
V2.45 Cr
p8
sS'https://www.cardekho.com/overview/Land_Rover_Range_Rover_Evoque/Land_Rover_Range_Rover_Evoque_HSE.htm'
p9
V58.73 Lakh
p10
sS'https://www.cardekho.com/overview/Mercedes-Benz_S-Class/Mercedes-Benz_S-Class_S_63_AMG_Coupe.htm'
p11
V2.67 Cr
p12
sS'https://www.cardekho.com/overview/Lamborghini_Huracan/Lamborghini_Huracan_LP_610_4.htm'
p13
V3.43 Cr
p14
sS'https://www.cardekho.com/overview/Mercedes-Benz_S-Class/Mercedes-Benz_S-Class_S_Guard.htm'
p15
V9.06 Cr
p16
sS'https://www.cardekho.com/overview/Bentley_Continental/Bentley_Continental_GT_V8_S.htm'
p17
V3.56 Cr
p18
sS'https://www.cardekho.com/overview/Lamborghini_Huracan/Lamborghini_Huracan_LP_580_2.htm'
p19
V2.99 Cr
p20
sS'https://www.cardekho.com/overview/Lamborghini_Huracan/Lamborghini_Huracan_LP_610_4_Spyder.htm'
p21
V3.89 Cr
p22
sS'https://www.cardekho.com/overview/Porsche_Cayman/Porsche_Cayman_S_Tiptronic.htm'
p23
V1.07 Cr
p24
sS'https://www.cardekho.com/overview/Porsche_Cayman/Porsche_Cayman_GTS.htm'
p25
V1.18 Cr
p26
sS'https://www.cardekho.com/overview/Mercedes-Benz_GLE_Class/Mercedes-Benz_GLE_Class_Coupe.htm'
p27
V89.56 Lakh
p28
sS'https://www.cardekho.com/overview/Bentley_Continental/Bentley_Continental_GT_V8.htm'
p29
V3.29 Cr
p30
sS'https://www.cardekho.com/overview/Aston_Martin_Vanquish/Aston_Martin_Vanquish_V12.htm'
p31
V3.85 Cr
p32
sS'https://www.cardekho.com/overview/Mercedes-Benz_GLE_Class/Mercedes-Benz_GLE_Class_350d.htm'
p33
V74.2 Lakh
p34
sS'https://www.cardekho.com/overview/Jaguar_F_Type/Jaguar_F_Type_S_Coupe.htm'
p35
V1.41 Cr
p36
sS'https://www.cardekho.com/overview/Porsche_Cayman/Porsche_Cayman_GT4.htm'
p37
V1.31 Cr
p38
sS'https://www.cardekho.com/overview/Bentley_Continental/Bentley_Continental_GT.htm'
p39
V3.58 Cr
p40
sS'https://www.cardekho.com/overview/Ferrari_488_GTB/Ferrari_488_GTB_V8.htm'
p41
V3.88 Cr
p42
sS'https://www.cardekho.com/overview/DC_Avanti/DC_Avanti_2.0_L.htm'
p43
V35.93 Lakh
p44
sS'https://www.cardekho.com/overview/Mercedes-Benz_GLE_Class/Mercedes-Benz_GLE_Class_250d.htm'
p45
V63.0 Lakh
p46
sS'https://www.cardekho.com/overview/Jaguar_F_Type/Jaguar_F_Type_5.0_V8_S.htm'
p47
V1.84 Cr
p48
sS'https://www.cardekho.com/overview/Bentley_Continental/Bentley_Continental_GT_Speed_Convertible.htm'
p49
V4.43 Cr
p50
sS'https://www.cardekho.com/overview/Jaguar_F_Type/Jaguar_F_Type_Coupe.htm'
p51
V1.28 Cr
p52
sS'https://www.cardekho.com/overview/Mercedes-Benz_S-Class/Mercedes-Benz_S-Class_Maybach_S600.htm'
p53
V2.65 Cr
p54
sS'https://www.cardekho.com/overview/Porsche_911/Porsche_911_Carrera.htm'
p55
V1.42 Cr
p56
sS'https://www.cardekho.com/overview/Bentley_Continental/Bentley_Continental_GT_V8_Convertible.htm'
p57
V3.64 Cr
p58
sS'https://www.cardekho.com/overview/Land_Rover_Range_Rover_Evoque/Land_Rover_Range_Rover_Evoque_SE.htm'
p59
V53.84 Lakh
p60
sS'https://www.cardekho.com/overview/Maserati_Gran_Turismo/Maserati_Gran_Turismo_4.2_V8.htm'
p61
V1.79 Cr
p62
sS'https://www.cardekho.com/overview/BMW_M_Series/BMW_M_Series_X6_M.htm'
p63
V1.66 Cr
p64
sS'https://www.cardekho.com/overview/Rolls-Royce_Phantom/Rolls-Royce_Phantom_Phantom.htm'
p65
V8.0 Cr
p66
sS'https://www.cardekho.com/overview/Audi_TT/Audi_TT_45_TFSI.htm'
p67
V61.7 Lakh
p68
sS'https://www.cardekho.com/overview/Mercedes-Benz_S-Class/Mercedes-Benz_S-Class_Maybach_S500.htm'
p69
V1.73 Cr
p70
sS'https://www.cardekho.com/overview/Jaguar_F_Type/Jaguar_F_Type_3.0_V6_S.htm'
p71
V1.56 Cr
p72
sS'https://www.cardekho.com/overview/Porsche_911/Porsche_911_Carrera_S_Cabriolet.htm'
p73
V1.76 Cr
p74
sS'https://www.cardekho.com/overview/Rolls-Royce_Phantom/Rolls-Royce_Phantom_Drophead_Coupe.htm'
p75
V4.0 Cr
p76
sS'https://www.cardekho.com/overview/Jaguar_F_Type/Jaguar_F_Type_R_Coupe.htm'
p77
V1.92 Cr
p78
sS'https://www.cardekho.com/overview/Land_Rover_Range_Rover_Evoque/Land_Rover_Range_Rover_Evoque_Coupe_HSE_Dynamic.htm'
p79
V52.9 Lakh
p80
sS'https://www.cardekho.com/overview/Porsche_911/Porsche_911_Carrera_S.htm'
p81
V1.63 Cr
p82
sS'https://www.cardekho.com/overview/Mercedes-Benz_S-Class/Mercedes-Benz_S-Class_S_350_CDI.htm'
p83
V1.19 Cr
p84
sS'https://www.cardekho.com/overview/Lamborghini_Huracan/Lamborghini_Huracan_AVIO.htm'
p85
V3.71 Cr
p86
sS'https://www.cardekho.com/overview/Aston_Martin_Vantage/Aston_Martin_Vantage_V8_4.7L.htm'
p87
V2.55 Cr
p88
sS'https://www.cardekho.com/overview/Porsche_911/Porsche_911_Turbo_S.htm'
p89
V2.66 Cr
p90
sS'https://www.cardekho.com/overview/Bentley_Continental/Bentley_Continental_GT_V8_S_Convertible.htm'
p91
V3.92 Cr
p92
sS'https://www.cardekho.com/overview/Lamborghini_Aventador/Lamborghini_Aventador_Roadster_LP_700_4.htm'
p93
V4.78 Cr
p94
sS'https://www.cardekho.com/overview/BMW_M_Series/BMW_M_Series_M3_Sedan.htm'
p95
V1.26 Cr
p96
sS'https://www.cardekho.com/overview/Bentley_Continental/Bentley_Continental_GT_Speed.htm'
p97
V4.04 Cr
p98
sS'https://www.cardekho.com/overview/Lamborghini_Aventador/Lamborghini_Aventador_LP700_4.htm'
p99
V3.69 Cr
p100
sS'https://www.cardekho.com/overview/BMW_M_Series/BMW_M_Series_X5_M.htm'
p101
V1.62 Cr
p102
sS'https://www.cardekho.com/overview/Porsche_911/Porsche_911_Carrera_Cabriolet.htm'
p103
V1.56 Cr
p104
sS'https://www.cardekho.com/overview/Audi_R8/Audi_R8_V10_Plus.htm'
p105
V2.23 Cr
p106
sS'https://www.cardekho.com/overview/Aston_Martin_Vantage/Aston_Martin_Vantage_V8_Roadster.htm'
p107
V2.75 Cr
p108
sS'https://www.cardekho.com/overview/Porsche_911/Porsche_911_Turbo_Cabriolet.htm'
p109
V2.39 Cr
p110
sS'https://www.cardekho.com/overview/Aston_Martin_Vantage/Aston_Martin_Vantage_V12_6.0L.htm'
p111
V3.5 Cr
p112
sS'https://www.cardekho.com/overview/Rolls-Royce_Phantom/Rolls-Royce_Phantom_Extended_Wheelbase.htm'
p113
V8.25 Cr
p114
sS'https://www.cardekho.com/overview/Rolls-Royce_Wraith/Rolls-Royce_Wraith_Coupe.htm'
p115
V5.5 Cr
p116
sS'https://www.cardekho.com/overview/Mercedes-Benz_S-Class/Mercedes-Benz_S-Class_S400.htm'
p117
V1.31 Cr
p118
sS'https://www.cardekho.com/overview/Land_Rover_Range_Rover_Evoque/Land_Rover_Range_Rover_Evoque_HSE_Dynamic.htm'
p119
V64.32 Lakh
p120
sS'https://www.cardekho.com/overview/BMW_M_Series/BMW_M_Series_M4_Coupe.htm'
p121
V1.28 Cr
p122
sS'https://www.cardekho.com/overview/Aston_Martin_DB11/Aston_Martin_DB11_V12.htm'
p123
V3.97 Cr
p124
sS'https://www.cardekho.com/overview/Mercedes-Benz_GLE_Class/Mercedes-Benz_GLE_Class_400_4MATIC.htm'
p125
V74.9 Lakh
p126
sS'https://www.cardekho.com/overview/Aston_Martin_Vantage/Aston_Martin_Vantage_V8_Sport.htm'
p127
V1.35 Cr
p128
sS'https://www.cardekho.com/overview/Land_Rover_Range_Rover_Evoque/Land_Rover_Range_Rover_Evoque_Pure.htm'
p129
V47.94 Lakh
p130
sS'https://www.cardekho.com/overview/Mercedes-Benz_S-Class/Mercedes-Benz_S-Class_Maybach_S600_Guard.htm'
p131
V11.25 Cr
p132
sS'https://www.cardekho.com/overview/Mercedes-Benz_S-Class/Mercedes-Benz_S-Class_S_500_Coupe.htm'
p133
V2.09 Cr
p134
sS'https://www.cardekho.com/overview/Mercedes-Benz_S-Class/Mercedes-Benz_S-Class_S_63_AMG.htm'
p135
V2.52 Cr
p136
sS'https://www.cardekho.com/overview/Porsche_911/Porsche_911_Turbo.htm'
p137
V2.26 Cr
p138
sS'https://www.cardekho.com/overview/Ferrari_FF/Ferrari_FF_GT.htm'
p139
V4.56 Cr
p140
sS'https://www.cardekho.com/overview/Rolls-Royce_Phantom/Rolls-Royce_Phantom_Coupe.htm'
p141
V4.0 Cr
p142
sS'https://www.cardekho.com/overview/Ferrari_F12berlinetta/Ferrari_F12berlinetta_V12.htm'
p143
V4.71 Cr
p144
sS'https://www.cardekho.com/overview/BMW_M_Series/BMW_M_Series_M5_Sedan.htm'
p145
V1.36 Cr
p146
sS'https://www.cardekho.com/overview/Porsche_911/Porsche_911_Turbo_S_Cabriolet.htm'
p147
V2.82 Cr
p148
s.