(dp0
S'https://www.cardekho.com/overview/Maserati_Gran_Cabrio/Maserati_Gran_Cabrio_4.7_V8.htm'
p1
V2.06 Cr
p2
sS'https://www.cardekho.com/overview/Bentley_Continental/Bentley_Continental_GTC.htm'
p3
V3.91 Cr
p4
sS'https://www.cardekho.com/overview/Audi_A3_cabriolet/Audi_A3_cabriolet_40_TFSI_Premium_Plus.htm'
p5
V53.14 Lakh
p6
sS'https://www.cardekho.com/overview/Mercedes-Benz_E-Class/Mercedes-Benz_E-Class_E400_Cabriolet.htm'
p7
V81.68 Lakh
p8
sS'https://www.cardekho.com/overview/Mercedes-Benz_E-Class/Mercedes-Benz_E-Class_E250_Edition_E.htm'
p9
V54.19 Lakh
p10
sS'https://www.cardekho.com/overview/Porsche_911/Porsche_911_Turbo_S.htm'
p11
V2.66 Cr
p12
sS'https://www.cardekho.com/overview/Bentley_Continental/Bentley_Continental_GT_V8_S.htm'
p13
V3.56 Cr
p14
sS'https://www.cardekho.com/overview/Bentley_Continental/Bentley_Continental_GT_V8.htm'
p15
V3.29 Cr
p16
sS'https://www.cardekho.com/overview/Ferrari_California/Ferrari_California_T.htm'
p17
V3.29 Cr
p18
sS'https://www.cardekho.com/overview/Jaguar_F_Type/Jaguar_F_Type_S_Coupe.htm'
p19
V1.41 Cr
p20
sS'https://www.cardekho.com/overview/Bentley_Continental/Bentley_Continental_GT.htm'
p21
V3.58 Cr
p22
sS'https://www.cardekho.com/overview/Jaguar_F_Type/Jaguar_F_Type_R_Coupe.htm'
p23
V1.92 Cr
p24
sS'https://www.cardekho.com/overview/Mercedes-Benz_E-Class/Mercedes-Benz_E-Class_E_200_CGI.htm'
p25
V51.88 Lakh
p26
sS'https://www.cardekho.com/overview/Bentley_Continental/Bentley_Continental_GT_Speed_Convertible.htm'
p27
V4.43 Cr
p28
sS'https://www.cardekho.com/overview/Lamborghini_Aventador/Lamborghini_Aventador_LP700_4.htm'
p29
V3.69 Cr
p30
sS'https://www.cardekho.com/overview/Jaguar_F_Type/Jaguar_F_Type_Coupe.htm'
p31
V1.28 Cr
p32
sS'https://www.cardekho.com/overview/Bentley_Continental/Bentley_Continental_GT_V8_Convertible.htm'
p33
V3.64 Cr
p34
sS'https://www.cardekho.com/overview/Rolls-Royce_Phantom/Rolls-Royce_Phantom_Phantom.htm'
p35
V8.0 Cr
p36
sS'https://www.cardekho.com/overview/Mercedes-Benz_E-Class/Mercedes-Benz_E-Class_E350_CDI_Avantgrade.htm'
p37
V60.96 Lakh
p38
sS'https://www.cardekho.com/overview/Jaguar_F_Type/Jaguar_F_Type_3.0_V6_S.htm'
p39
V1.56 Cr
p40
sS'https://www.cardekho.com/overview/Porsche_911/Porsche_911_Carrera_S_Cabriolet.htm'
p41
V1.76 Cr
p42
sS'https://www.cardekho.com/overview/Rolls-Royce_Dawn/Rolls-Royce_Dawn_Convertible.htm'
p43
V6.25 Cr
p44
sS'https://www.cardekho.com/overview/Porsche_Boxster/Porsche_Boxster_GTS.htm'
p45
V92.02 Lakh
p46
sS'https://www.cardekho.com/overview/Porsche_911/Porsche_911_Carrera_S.htm'
p47
V1.63 Cr
p48
sS'https://www.cardekho.com/overview/BMW_Z4/BMW_Z4_35i.htm'
p49
V77.5 Lakh
p50
sS'https://www.cardekho.com/overview/Bentley_Continental/Bentley_Continental_GT_V8_S_Convertible.htm'
p51
V3.92 Cr
p52
sS'https://www.cardekho.com/overview/Lamborghini_Aventador/Lamborghini_Aventador_Roadster_LP_700_4.htm'
p53
V4.78 Cr
p54
sS'https://www.cardekho.com/overview/Mercedes-Benz_SLC/Mercedes-Benz_SLC_43_AMG.htm'
p55
V77.5 Lakh
p56
sS'https://www.cardekho.com/overview/Bugatti_Veyron/Bugatti_Veyron_16.4_Grand_Sport.htm'
p57
V12.0 Cr
p58
sS'https://www.cardekho.com/overview/Rolls-Royce_Phantom/Rolls-Royce_Phantom_Drophead_Coupe.htm'
p59
V4.0 Cr
p60
sS'https://www.cardekho.com/overview/Porsche_911/Porsche_911_Carrera_Cabriolet.htm'
p61
V1.56 Cr
p62
sS'https://www.cardekho.com/overview/Mercedes-Benz_E-Class/Mercedes-Benz_E-Class_E250_CDI_Avantgarde.htm'
p63
V52.08 Lakh
p64
sS'https://www.cardekho.com/overview/Porsche_911/Porsche_911_Turbo_Cabriolet.htm'
p65
V2.39 Cr
p66
sS'https://www.cardekho.com/overview/Mercedes-Benz_E-Class/Mercedes-Benz_E-Class_E200_Edition_E.htm'
p67
V51.88 Lakh
p68
sS'https://www.cardekho.com/overview/Mercedes-Benz_E-Class/Mercedes-Benz_E-Class_E350_Edition_E.htm'
p69
V64.7 Lakh
p70
sS'https://www.cardekho.com/overview/Rolls-Royce_Phantom/Rolls-Royce_Phantom_Extended_Wheelbase.htm'
p71
V8.25 Cr
p72
sS'https://www.cardekho.com/overview/Porsche_Boxster/Porsche_Boxster_S.htm'
p73
V92.02 Lakh
p74
sS'https://www.cardekho.com/overview/Rolls-Royce_Phantom/Rolls-Royce_Phantom_Coupe.htm'
p75
V4.0 Cr
p76
sS'https://www.cardekho.com/overview/Bentley_Continental/Bentley_Continental_GT_Speed.htm'
p77
V4.04 Cr
p78
sS'https://www.cardekho.com/overview/Jaguar_F_Type/Jaguar_F_Type_5.0_V8_S.htm'
p79
V1.84 Cr
p80
sS'https://www.cardekho.com/overview/BMW_Z4/BMW_Z4_35i_DPT.htm'
p81
V78.5 Lakh
p82
sS'https://www.cardekho.com/overview/Porsche_911/Porsche_911_Turbo.htm'
p83
V2.26 Cr
p84
sS'https://www.cardekho.com/overview/Porsche_911/Porsche_911_Carrera.htm'
p85
V1.42 Cr
p86
sS'https://www.cardekho.com/overview/Mercedes-Benz_E-Class/Mercedes-Benz_E-Class_E_63_AMG.htm'
p87
V1.31 Cr
p88
sS'https://www.cardekho.com/overview/Mini_Cooper_Convertible/Mini_Cooper_Convertible_S.htm'
p89
V33.9 Lakh
p90
sS'https://www.cardekho.com/overview/Porsche_911/Porsche_911_Turbo_S_Cabriolet.htm'
p91
V2.82 Cr
p92
s.