(dp0
S'Mahindra NuvoSport N6 AMT'
p1
S'Mahindra NuvoSport'
p2
sS'Nissan Sunny XE'
p3
S'Nissan Sunny'
p4
sS'Mercedes-Benz GL-Class 350 CDI Blue Efficiency'
p5
S'Mercedes-Benz GL-Class'
p6
sS'Mahindra KUV 100 mFALCON G80 K4 5str'
p7
S'Mahindra KUV100'
p8
sS'BMW M Series X6 M'
p9
S'BMW M Series'
p10
sS'Honda Mobilio V i-VTEC'
p11
S'Honda Mobilio'
p12
sS'Nissan Micra Active XV S'
p13
S'Nissan Micra Active'
p14
sS'Hyundai Grand i10 Magna AT'
p15
S'Hyundai Grand i10'
p16
sS'Renault Duster 110PS Diesel RxL AMT'
p17
S'Renault Duster'
p18
sS'Ford Ecosport 1.0 Ecoboost Trend Plus BE'
p19
S'Ford EcoSport'
p20
sS'Mahindra TUV 300 T4 Plus'
p21
S'Mahindra TUV 300'
p22
sS'Hyundai Grand i10 CRDi Magna'
p23
g16
sS'Mahindra KUV 100 mFALCON D75 K8'
p24
g8
sS'Datsun GO T'
p25
S'Datsun GO'
p26
sS'Mahindra KUV 100 mFALCON D75 K6'
p27
g8
sS'Mahindra XUV500 AT W10 FWD'
p28
S'Mahindra XUV500'
p29
sS'Mahindra KUV 100 mFALCON D75 K4'
p30
g8
sS'Volkswagen Vento Celeste 1.2 TSI Highline AT'
p31
S'Volkswagen Vento'
p32
sS'Mahindra KUV 100 mFALCON D75 K2'
p33
g8
sS'Honda BR-V i-VTEC V CVT'
p34
S'Honda BRV'
p35
sS'Maruti Ciaz VDi Option SHVS'
p36
S'Maruti Ciaz'
p37
sS'Chevrolet Tavera Neo 3 LS 7 Seats BSIII'
p38
S'Chevrolet Tavera'
p39
sS'Mahindra Xylo D2 BS IV'
p40
S'Mahindra Xylo'
p41
sS'Mahindra Xylo D2 Maxx BSIV'
p42
g41
sS'Toyota Innova 2.5 GX (Diesel) 7 Seater BS IV'
p43
S'Toyota Innova'
p44
sS'BMW X6 xDrive 40d M Sport'
p45
S'BMW X6'
p46
sS'Maruti Ritz VXi (ABS) BS IV'
p47
S'Maruti Ritz'
p48
sS'ICML Extreme LD DI PS AC 9Seater BSIII'
p49
S'ICML Extreme'
p50
sS'Maruti Ertiga ZXI'
p51
S'Maruti Ertiga'
p52
sS'Mahindra TUV 300 T8 AMT'
p53
g22
sS'Renault Duster 110PS Diesel RxZ AMT'
p54
g18
sS'Land Rover Range Rover Sport S'
p55
S'Land Rover Range Rover Sport'
p56
sS'Maruti Eeco Ambulance Petrol AC Plus HTR'
p57
S'Maruti Eeco'
p58
sS'Volvo XC60 D4 Momentum'
p59
S'Volvo XC60'
p60
sS'Mahindra Xylo D4'
p61
g41
sS'BMW X1 xDrive 20d xLine'
p62
S'BMW X1'
p63
sS'Hyundai Creta 1.6 VTVT Anniversary Edition'
p64
S'Hyundai Creta'
p65
sS'Maruti Ritz AT'
p66
g48
sS'Audi A8 L W12 quattro'
p67
S'Audi A8'
p68
sS'Maruti Wagon R AMT VXI'
p69
S'Maruti Wagon R'
p70
sS'Maruti Celerio ZXI AT Optional'
p71
S'Maruti Celerio'
p72
sS'Toyota Land Cruiser VX'
p73
S'Toyota Land Cruiser'
p74
sS'Volkswagen Vento 1.5 TDI Highline AT'
p75
g32
sS'Hyundai Grand i10 CRDi Era'
p76
g16
sS'Hyundai EON Era Plus Option'
p77
S'Hyundai EON'
p78
sS'Datsun GO A'
p79
g26
sS'Tata Bolt Quadrajet XM'
p80
S'Tata Bolt'
p81
sS'Maruti Vitara Brezza VDi Option'
p82
S'Maruti Vitara Brezza'
p83
sS'ICML Extreme VD CRDFi 7Seater BSIII'
p84
g50
sS'Chevrolet Cruze LTZ'
p85
S'Chevrolet Cruze'
p86
sS'Chevrolet Spark 1.0'
p87
S'Chevrolet Spark'
p88
sS'Ford Figo Aspire 1.5 TDCi Titanium Plus'
p89
S'Ford Figo'
p90
sS'Tata Bolt Quadrajet XE'
p91
g81
sS'Fiat Linea Power Up 1.3 Emotion'
p92
S'Fiat Linea'
p93
sS'Skoda Rapid 1.6 MPI AT Style'
p94
S'Skoda Rapid'
p95
sS'Hyundai i20 Active 1.2'
p96
S'Hyundai Elite i20'
p97
sS'Jaguar XF 2.0 Diesel Prestige'
p98
S'Jaguar XF'
p99
sS'Porsche Macan Turbo'
p100
S'Porsche Macan'
p101
sS'Fiat Avventura Urban Cross 1.3 Multijet Active'
p102
S'Fiat Avventura'
p103
sS'Bentley Continental GTC'
p104
S'Bentley Continental'
p105
sS'Honda Jazz 1.5 E i DTEC'
p106
S'Honda Jazz'
p107
sS'Volkswagen Ameo 1.5 TDI Comfortline'
p108
S'Volkswagen Ameo'
p109
sS'Honda City i VTEC CVT SV'
p110
S'Honda City'
p111
sS'Force Gurkha Soft Top BS3 2WD'
p112
S'Force Gurkha'
p113
sS'Mahindra XUV500 AT W6 2WD'
p114
g29
sS'Skoda Rapid 1.6 MPI AT Style Plus'
p115
g95
sS'Tata Zest Quadrajet 1.3 XTA'
p116
S'Tata Zest'
p117
sS'Mahindra Scorpio 1.99 S6 Plus'
p118
S'Mahindra Scorpio'
p119
sS'Hyundai Creta 1.6 Gamma SX Plus'
p120
g65
sS'Hyundai Verna 1.6 VTVT S'
p121
S'Hyundai Verna'
p122
sS'Skoda Rapid 1.6 MPI Style Plus'
p123
g95
sS'Land Rover Discovery Sport TD4 HSE 7S'
p124
S'Land Rover Discovery Sport'
p125
sS'Mahindra XUV500 AT W6 1.99 mHawk'
p126
g29
sS'Toyota Innova Crysta 2.7 GX MT'
p127
g44
sS'Mahindra Verito 1.5 D4 BSIV'
p128
S'Mahindra Verito'
p129
sS'Mahindra NuvoSport N8 AMT'
p130
g2
sS'Jaguar XF 2.0 Petrol Prestige'
p131
g99
sS'Jaguar F Type Coupe'
p132
S'Jaguar F-Type'
p133
sS'Tata Indigo CS LX (TDI) BS-III'
p134
S'Tata Indigo eCS'
p135
sS'Hyundai Verna 1.6 VTVT AT S'
p136
g122
sS'Mahindra XUV500 AT W10 AWD'
p137
g29
sS'Maruti Ciaz AT VXi Plus'
p138
g37
sS'Honda BR-V i-VTEC S MT'
p139
g35
sS'Porsche Panamera GTS'
p140
S'Porsche Panamera'
p141
sS'Honda Brio 1.2 S MT'
p142
S'Honda Brio'
p143
sS'Volkswagen Polo 1.5 TDI Comfortline'
p144
S'Volkswagen Polo'
p145
sS'Chevrolet Enjoy 1.4 LT 8'
p146
S'Chevrolet Enjoy'
p147
sS'Mahindra Thar CRDe'
p148
S'Mahindra Thar'
p149
sS'Volvo S60 D4 Momentum'
p150
S'Volvo S60'
p151
sS'Chevrolet Enjoy 1.4 LT 7'
p152
g147
sS'Volkswagen Ameo 1.2 MPI Highline'
p153
g109
sS'Mahindra KUV 100 mFALCON G80 K6 5str'
p154
g8
sS'Chevrolet Sail Hatchback 1.2 LT ABS'
p155
S'Chevrolet Sail'
p156
sS'Toyota Innova Crysta 2.4 VX MT 8S'
p157
g44
sS'Nissan Sunny Diesel XL'
p158
g4
sS'Mercedes-Benz GL-Class 63 AMG'
p159
g6
sS'Mahindra TUV 300 mHAWK100 T8 AMT'
p160
g22
sS'Premier Rio CRDi4 DX'
p161
S'Premier Rio'
p162
sS'Hyundai Creta 1.4 CRDi S Plus'
p163
g65
sS'BMW 3 Series 320d Luxury Line'
p164
S'BMW 3 Series'
p165
sS'Maruti Celerio ZXI'
p166
g72
sS'Audi A3 35 TDI Technology'
p167
S'Audi A3'
p168
sS'Honda BR-V i-DTEC V MT'
p169
g35
sS'Mini 5 DOOR Cooper D'
p170
S'Mini 5 DOOR'
p171
sS'Mahindra Supro VX 5 Str'
p172
S'Mahindra Supro'
p173
sS'Mahindra Bolero Plus AC'
p174
S'Mahindra Bolero'
p175
sS'Ford Ecosport 1.5 Ti VCT MT Titanium'
p176
g20
sS'BMW 5 Series 520d Prestige Plus'
p177
S'BMW 5 Series'
p178
sS'Tata Indigo CS LS (TDI) BS-III'
p179
g135
sS'Maruti Celerio ZXI Optional'
p180
g72
sS'Mahindra Scorpio Getaway'
p181
g119
sS'Toyota Corolla Altis D-4D GL'
p182
S'Toyota Corolla Altis'
p183
sS'Toyota Fortuner 4x4 MT'
p184
S'Toyota Fortuner'
p185
sS'Mahindra Bolero SLE'
p186
g175
sS'Lamborghini Huracan AVIO'
p187
S'Lamborghini Huracan'
p188
sS'Chevrolet Sail 1.2 Base'
p189
g156
sS'Tata Bolt Quadrajet XMS'
p190
g81
sS'BMW 7 Series 750Li Design Pure Excellence CBU'
p191
S'BMW 7 Series'
p192
sS'BMW 5 Series 520d Luxury Line'
p193
g178
sS'Mercedes-Benz S-Class Maybach S600 Guard'
p194
S'Mercedes-Benz S-Class'
p195
sS'Mercedes-Benz New C-Class C 200 CGI'
p196
S'Mercedes-Benz C-Class'
p197
sS'Fiat Avventura Power Up 1.3 Active'
p198
g103
sS'Toyota Innova Crysta 2.8 GX AT 8S'
p199
g44
sS'Porsche Cayenne S Hybrid'
p200
S'Porsche Cayenne'
p201
sS'Chevrolet Enjoy 1.3 TCDi LTZ 8'
p202
g147
sS'Maruti Baleno 1.2 CVT Delta'
p203
S'Maruti Baleno'
p204
sS'Maruti SX4 S Cross DDiS 200 Alpha'
p205
S'Maruti S-Cross'
p206
sS'Toyota Etios Liva 1.4 VXD'
p207
S'Toyota Etios'
p208
sS'Mahindra Supro VX 8 Str'
p209
g173
sS'Honda Jazz 1.2 SV i VTEC'
p210
g107
sS'Lamborghini Aventador LP700 4'
p211
S'Lamborghini Aventador'
p212
sS'Mercedes-Benz New C-Class C 220 CDI Style'
p213
g197
sS'Chevrolet Enjoy 1.3 TCDi LTZ 7'
p214
g147
sS'Premier Rio Petrol GLX'
p215
g162
sS'Honda Amaze S Option CVT i-VTEC'
p216
S'Honda Amaze'
p217
sS'Maruti Ritz LXi'
p218
g48
sS'Mini 3 DOOR Cooper S'
p219
S'Mini 3 DOOR'
p220
sS'BMW 3 Series 320d M Sport'
p221
g165
sS'Datsun GO D'
p222
g26
sS'Mahindra Xylo H4 ABS'
p223
g41
sS'Audi Q3 35 TDI Quattro Premium'
p224
S'Audi Q3'
p225
sS'Mahindra Bolero Special Edition'
p226
g175
sS'Volkswagen Vento 1.6 Trendline'
p227
g32
sS'Mercedes-Benz E-Class E350 Edition E'
p228
S'Mercedes-Benz E-Class'
p229
sS'Skoda Octavia Ambition 2.0 TDI AT'
p230
S'Skoda Octavia'
p231
sS'Mahindra KUV 100 mFALCON G80 K2 Plus'
p232
g8
sS'Nissan Micra AT'
p233
S'Nissan Micra'
p234
sS'Tata Zest Revotron 1.2T XE'
p235
g117
sS'Skoda Rapid 1.5 TDI Ambition'
p236
g95
sS'Ferrari 488 GTB V8'
p237
S'Ferrari 488'
p238
sS'Volkswagen Polo 1.2 MPI Comfortline'
p239
g145
sS'Mahindra Scorpio Intelli Hybrid S6 Plus'
p240
g119
sS'Hyundai Elantra 1.6 SX'
p241
S'Hyundai Elantra'
p242
sS'Tata Zest Revotron 1.2T XM'
p243
g117
sS'Maruti Celerio LDI Optional'
p244
g72
sS'Volvo XC 90 D5 Momentum'
p245
S'Volvo XC90'
p246
sS'Hyundai Xcent 1.2 Kappa SX Option'
p247
S'Hyundai Xcent'
p248
sS'Datsun RediGO Sport'
p249
S'Datsun Redi GO'
p250
sS'Mercedes-Benz A Class A180 Sport'
p251
S'Mercedes-Benz A-Class'
p252
sS'Hyundai Creta 1.6 VTVT AT SX Plus'
p253
g65
sS'Tata Sumo Gold CX PS BSIII'
p254
S'Tata Sumo'
p255
sS'Toyota Etios Cross 1.4L VD'
p256
g208
sS'Maruti Omni MPI STD BSIV'
p257
S'Maruti Omni'
p258
sS'Ford Endeavour 3.2 Titanium AT 4X4'
p259
S'Ford Endeavour'
p260
sS'Mahindra Quanto C8'
p261
S'Mahindra Quanto'
p262
sS'Renault Pulse RxZ'
p263
S'Renault Pulse'
p264
sS'Mahindra Quanto C4'
p265
g262
sS'Aston Martin Vantage V12 6.0L'
p266
S'Aston Martin Vantage'
p267
sS'Mahindra Quanto C6'
p268
g262
sS'Skoda Yeti Style 4X4'
p269
S'Skoda Yeti'
p270
sS'Tata Nano XMA'
p271
S'Tata Nano'
p272
sS'Mahindra Quanto C2'
p273
g262
sS'Land Rover Range Rover LWB 4.4 SDV8 Autobiography Black Edition'
p274
S'Land Rover Range Rover'
p275
sS'Toyota Innova Crysta 2.4 ZX MT'
p276
g44
sS'Chevrolet Sail 1.2 LT ABS'
p277
g156
sS'Toyota Corolla Altis D-4D JS'
p278
g183
sS'Ferrari 458 Speciale V8'
p279
S'Ferrari 458 Speciale'
p280
sS'Fiat Abarth Avventura 1.4 T-Jet'
p281
S'Fiat Abarth Avventura'
p282
sS'Nissan Sunny Diesel XV'
p283
g4
sS'BMW X1 xDrive 20d M Sport'
p284
g63
sS'Skoda Superb LK 2.0 TDI AT'
p285
S'Skoda Superb'
p286
sS'Mahindra KUV 100 mFALCON D75 K4 Plus 5str'
p287
g8
sS'Hyundai Santa Fe 4WD AT'
p288
S'Hyundai Santa Fe'
p289
sS'Maruti Ertiga SHVS LDI Option'
p290
g52
sS'Skoda Rapid 1.6 MPI Active'
p291
g95
sS'Chevrolet Tavera Neo 3 LS 10 Seats BSIII'
p292
g39
sS'Toyota Innova Crysta 2.8 GX AT'
p293
g44
sS'Fiat Punto Pure 1.2L FIRE'
p294
S'Fiat Punto Pure'
p295
sS'Jaguar XJ 3.0L Portfolio'
p296
S'Jaguar XJ'
p297
sS'Maruti Ertiga LXI Option'
p298
g52
sS'Renault KWID RXT Optional'
p299
S'Renault KWID'
p300
sS'Tata Sumo Gold EX BSIII'
p301
g255
sS'Chevrolet Sail 1.2 LS'
p302
g156
sS'Fiat Linea Power Up 1.3 Active'
p303
g93
sS'Mahindra Bolero mHAWK D70 SLX'
p304
g175
sS'Mahindra XUV500 W8 1.99 mHawk'
p305
g29
sS'Mahindra KUV 100 mFALCON D75 K4 Plus'
p306
g8
sS'Honda CR-V 2.0L 2WD AT'
p307
S'Honda CR-V'
p308
sS'Hyundai Verna 1.6 CRDi AT S'
p309
g122
sS'Mahindra Scorpio Adventure Edition 4WD'
p310
g119
sS'Renault Duster 85PS Diesel RxE'
p311
g18
sS'Jaguar XF R Supercharged 5.0 Litre V8 Petrol'
p312
g99
sS'Mercedes-Benz S-Class S 350 CDI'
p313
g195
sS'Mahindra Scorpio 1.99 S4'
p314
g119
sS'Tata Indigo CS eLX BS IV'
p315
g135
sS'Mahindra Scorpio 1.99 S8'
p316
g119
sS'Audi R8 V10 Plus'
p317
S'Audi R8'
p318
sS'Land Rover Range Rover Sport Autobiography'
p319
g56
sS'Audi Q5 30 TDI quattro Technology'
p320
S'Audi Q5'
p321
sS'Hyundai Verna 1.6 VTVT AT SX'
p322
g122
sS'Honda Mobilio RS i-DTEC'
p323
g12
sS'Toyota Etios Liva 1.2 VX'
p324
g208
sS'Conquest Evade SUV'
p325
S'Conquest Evade'
p326
sS'Skoda Superb Style 2.0 TDI AT'
p327
g286
sS'Maruti Ciaz VXi'
p328
g37
sS'Tata Nano XTA'
p329
g272
sS'Maruti Celerio ZXI AT'
p330
g72
sS'BMW 6 Series 640d Eminence'
p331
S'BMW 6 Series'
p332
sS'Maruti Swift Dzire ZXI'
p333
S'Maruti Swift'
p334
sS'Chevrolet Beat Diesel PS'
p335
S'Chevrolet Beat'
p336
sS'Mahindra KUV 100 mFALCON G80 K8'
p337
g8
sS'Mahindra Scorpio S2 7 Seater'
p338
g119
sS'Mahindra KUV 100 mFALCON G80 K2'
p339
g8
sS'Mahindra Bolero DI - AC BS III'
p340
g175
sS'Mahindra KUV 100 mFALCON G80 K6'
p341
g8
sS'Mahindra KUV 100 mFALCON G80 K4'
p342
g8
sS'ICML Extreme LD CRDFi PS AC 9Seater BSIII'
p343
g50
sS'Toyota Camry Hybrid'
p344
S'Toyota Camry'
p345
sS'Ford Figo 1.5D Base MT'
p346
g90
sS'Maruti Wagon R VXI Optional'
p347
g70
sS'Maserati Quattroporte GTS'
p348
S'Maserati Quattroporte'
p349
sS'Audi A8 L 50 TDI Quattro Premium Plus'
p350
g68
sS'Honda Mobilio V i-DTEC'
p351
g12
sS'Maruti Ciaz VXi Plus'
p352
g37
sS'Maruti Gypsy King Soft Top MPI BSIV'
p353
S'Maruti Gypsy'
p354
sS'ICML Extreme Ambulance DI Non AC BSIII'
p355
g50
sS'Maruti Alto K10 VXI AGS Optional'
p356
S'Maruti Alto K10'
p357
sS'Mercedes-Benz S-Class S 63 AMG'
p358
g195
sS'Hyundai Elantra 2.0 SX Option AT'
p359
g242
sS'Renault Lodgy 85PS Std'
p360
S'Renault Lodgy'
p361
sS'Nissan Micra Diesel XL'
p362
g234
sS'Hyundai Creta 1.6 CRDi AT S Plus'
p363
g65
sS'Fiat Linea Classic Plus With Alloy 1.3 Multijet'
p364
g93
sS'Ford Ecosport 1.5 Ti VCT AT Titanium'
p365
g20
sS'Land Rover Range Rover Sport SE'
p366
g56
sS'Tata Bolt Quadrajet XT'
p367
g81
sS'Jaguar XJ 3.0L Premium Luxury'
p368
g297
sS'Maruti Alto K10 LX Optional'
p369
g357
sS'BMW X5 xDrive 30d Design Pure Experience 7 Seater'
p370
S'BMW X5'
p371
sS'Hyundai i20 Asta 1.4 CRDi'
p372
g97
sS'Renault Duster 110PS Diesel RxZ AWD'
p373
g18
sS'Maruti Ertiga SHVS ZDI Plus'
p374
g52
sS'Maruti Alto 800 LXI Optional'
p375
S'Maruti Alto 800'
p376
sS'Toyota Etios 1.4 VXD'
p377
g208
sS'Renault Duster 85PS Diesel STD'
p378
g18
sS'Maruti Ertiga VXI CNG'
p379
g52
sS'Maruti Gypsy King Hard Top Ambulance BSIV'
p380
g354
sS'Porsche Panamera 4'
p381
g141
sS'Mahindra XUV500 W4'
p382
g29
sS'Toyota Etios 1.4 VD'
p383
g208
sS'Maruti Ertiga ZXI Plus'
p384
g52
sS'Mahindra NuvoSport N4 Plus'
p385
g2
sS'Nissan Terrano XL'
p386
S'Nissan Terrano'
p387
sS'Audi A8 L 50 TDI Quattro'
p388
g68
sS'Chevrolet Sail 1.2 LS ABS'
p389
g156
sS'Volvo S60 D5 Inscription'
p390
g151
sS'Ford Endeavour 3.2 Trend AT 4X4'
p391
g260
sS'Toyota Corolla Altis D-4D J'
p392
g183
sS'Toyota Corolla Altis D-4D G'
p393
g183
sS'Maserati Gran Cabrio 4.7 V8'
p394
S'Maserati Gran Cabrio'
p395
sS'Maruti Swift 1.2 DLX'
p396
g334
sS'Porsche Cayman S Tiptronic'
p397
S'Porsche Cayman'
p398
sS'Chevrolet Sail Hatchback 1.2'
p399
g156
sS'ICML Extreme VD CRDFi 7Seater BSIV'
p400
g50
sS'ICML Extreme Ambulance DI AC BSIII'
p401
g50
sS'Maruti Swift Dzire LDI'
p402
g334
sS'BMW M Series X5 M'
p403
g10
sS'Hyundai Xcent 1.1 CRDi SX Option'
p404
g248
sS'Toyota Innova 2.5 VX (Diesel) 8 Seater BS IV'
p405
g44
sS'Mercedes-Benz S-Class S 63 AMG Coupe'
p406
g195
sS'Maruti Celerio LXI AT'
p407
g72
sS'Bentley Continental GT V8 S'
p408
g105
sS'Lamborghini Huracan LP 610 4'
p409
g188
sS'Tata Bolt Revotron XE'
p410
g81
sS'Land Rover Discovery Sport SD4 HSE Luxury 7S'
p411
g125
sS'Aston Martin Rapide S V12'
p412
S'Aston Martin Rapide'
p413
sS'Tata Bolt Revotron XM'
p414
g81
sS'Mahindra Scorpio S10 AT 2WD'
p415
g119
sS'Hyundai Grand i10 Magna'
p416
g16
sS'Chevrolet Sail Hatchback 1.3 TCDi LS ABS'
p417
g156
sS'Chevrolet Beat LS'
p418
g336
sS'Volvo S 80 D5'
p419
S'Volvo S80'
p420
sS'Hyundai i20 Active 1.4'
p421
g97
sS'Mahindra e2o T2'
p422
S'Mahindra e2o'
p423
sS'Toyota Corolla Altis VL AT'
p424
g183
sS'Honda BR-V i-DTEC E MT'
p425
g35
sS'Maruti Alto K10 VXI'
p426
g357
sS'Skoda Rapid 1.5 TDI AT Style Plus'
p427
g95
sS'Toyota Innova 2.5 ZX Diesel 7 Seater'
p428
g44
sS'Ford Ecosport 1.5 TDCi Titanium'
p429
g20
sS'BMW 3 Series 320i Prestige'
p430
g165
sS'Ford Ecosport 1.0 Ecoboost Titanium Plus BE'
p431
g20
sS'Tata Tiago 1.2 Revotron XZ WO Alloy'
p432
S'Tata Tiago'
p433
sS'Fiat Linea Power Up 1.3 Dynamic'
p434
g93
sS'Mercedes-Benz GLA Class 200 CDI SPORT'
p435
S'Mercedes-Benz GLA Class'
p436
sS'BMW M Series M6 Gran Coupe'
p437
g10
sS'Fiat Avventura Urban Cross 1.4 T-Jet Emotion'
p438
g103
sS'Mahindra Bolero SLE BSIII'
p439
g175
sS'Maruti Swift ZDi'
p440
g334
sS'Hyundai Elantra 2.0 SX AT'
p441
g242
sS'Volvo V40 D3'
p442
S'Volvo V40'
p443
sS'Land Rover Range Rover LWB 5.0 V8 Autobiography Black Edition'
p444
g275
sS'Ford Ecosport 1.5 TDCi Trend Plus'
p445
g20
sS'Honda Brio 1.2 E MT'
p446
g143
sS'Tata Zest Revotron 1.2T XMS'
p447
g117
sS'Maruti Omni E MPI STD BSIV'
p448
g258
sS'Mahindra Bolero mHAWK D70 SLE'
p449
g175
sS'Honda City i DTec VX'
p450
g111
sS'Ford Figo Aspire 1.2 Ti-VCT Titanium Plus'
p451
g90
sS'Toyota Etios Cross 1.2L G'
p452
g208
sS'Mahindra Scorpio 1.99 S10'
p453
g119
sS'Hyundai Elantra 1.6 SX Option'
p454
g242
sS'Mahindra TUV 300 T6'
p455
g22
sS'Mahindra TUV 300 T4'
p456
g22
sS'Hyundai i20 Active 1.2 SX with AVN'
p457
g97
sS'Mercedes-Benz GLE Class 400 4MATIC'
p458
S'Mercedes-Benz GLE'
p459
sS'Ferrari California T'
p460
g460
sS'Audi A6 35 TFSI'
p461
S'Audi A6'
p462
sS'Mercedes-Benz E-Class E250 CDI Avantgarde'
p463
g229
sS'Maruti Alto K10 LXI CNG Optional'
p464
g357
sS'Premier Rio Petrol GX'
p465
g162
sS'Porsche Cayenne Base'
p466
g201
sS'Jaguar XF 2.0 Petrol Portfolio'
p467
g99
sS'Maruti Eeco CNG HTR 5-STR'
p468
g58
sS'Mahindra Bolero SLX 2WD BSIII'
p469
g175
sS'Maruti Alto K10 LXI'
p470
g357
sS'Maruti Celerio LXI AT Optional'
p471
g72
sS'Renault Pulse Petrol RxL'
p472
g264
sS'Maruti Swift VDI BS IV'
p473
g334
sS'Ford Endeavour 2.2 Trend MT 4X4'
p474
g260
sS'Ford Ecosport 1.5 TDCi Titanium Plus BE'
p475
g20
sS'Land Rover Range Rover Evoque HSE'
p476
S'Land Rover Range Rover Evoque'
p477
sS'Maruti Swift LXI'
p478
g334
sS'Maruti Ciaz VDI SHVS'
p479
g37
sS'Skoda Octavia Ambition Plus 2.0 TDI AT'
p480
g231
sS'Nissan Micra Diesel XL Optional'
p481
g234
sS'Tata Tiago 1.05 Revotorq XE Option'
p482
g433
sS'Tata Zest Quadrajet 1.3 75PS XM'
p483
g117
sS'Chevrolet Beat LTZ'
p484
g336
sS'Mahindra TUV 300 T6 Plus'
p485
g22
sS'ICML Extreme SD CRDFi 9Seater BSIV'
p486
g50
sS'Tata Indigo CS eVX'
p487
g135
sS'Tata Zest Quadrajet 1.3 75PS XE'
p488
g117
sS'Maruti SX4 S Cross DDiS 200 Sigma'
p489
g206
sS'Mahindra Scorpio Intelli Hybrid S8'
p490
g119
sS'Tata Tiago 1.05 Revotorq XM'
p491
g433
sS'Maruti Swift VXI'
p492
g334
sS'Fiat Avventura Power Up 1.3 Emotion'
p493
g103
sS'Rolls-Royce Phantom Drophead Coupe'
p494
S'Rolls-Royce Phantom'
p495
sS'Tata Tiago 1.05 Revotorq XE'
p496
g433
sS'Tata Tiago 1.2 Revotron XM Option'
p497
g433
sS'Maruti SX4 S Cross DDiS 200 Zeta'
p498
g206
sS'Maruti Wagon R Stingray LXI Optional'
p499
S'Maruti Wagon R Stingray'
p500
sS'Tata Tiago 1.05 Revotorq XB'
p501
g433
sS'Hyundai EON Magna Plus Option'
p502
g78
sS'Mahindra XUV500 W10 1.99 mHawk'
p503
g29
sS'Bentley Continental GT V8 S Convertible'
p504
g105
sS'Tata Tiago 1.05 Revotorq XZ'
p505
g433
sS'Tata Tiago 1.05 Revotorq XT'
p506
g433
sS'Chevrolet Beat Diesel LT'
p507
g336
sS'Maruti Gypsy King Hard Top MPI BSIV'
p508
g354
sS'Maruti Alto 800 LXI'
p509
g376
sS'Tata Tiago 1.05 Revotorq XT Option'
p510
g433
sS'Skoda Rapid 1.5 TDI Style Plus'
p511
g95
sS'Porsche Panamera Turbo'
p512
g141
sS'Volvo V40 Cross Country T4'
p513
S'Volvo V40 Cross Country'
p514
sS'Maruti Omni MPI CARGO BSIV'
p515
g258
sS'Renault Scala RxL'
p516
S'Renault Scala'
p517
sS'BMW 5 Series 520d M Sport'
p518
g178
sS'Aston Martin Vantage V8 Roadster'
p519
g267
sS'Maruti Swift 1.3 DLX'
p520
g334
sS'Premier Rio CRDi4 LX'
p521
g162
sS'Maruti Vitara Brezza ZDi'
p522
g83
sS'Volvo XC 90 T8 Excellence'
p523
g246
sS'Fiat Grande Punto EVO Power UP 1.3 Dynamic'
p524
S'Fiat Punto EVO'
p525
sS'Maruti Baleno 1.2 CVT Zeta'
p526
g204
sS'Honda Amaze E Option i-DTEC'
p527
g217
sS'Volkswagen Jetta 1.4 TSI Comfortline'
p528
S'Volkswagen Jetta'
p529
sS'Chevrolet Tavera Neo 3 Max 10 Seats BSIII'
p530
g39
sS'Hyundai Verna 1.6 CRDi SX'
p531
g122
sS'Maserati Gran Turismo 4.2 V8'
p532
S'Maserati Gran Turismo'
p533
sS'Mini 3 DOOR Cooper D'
p534
g220
sS'Audi A3 35 TDI Premium'
p535
g168
sS'Mercedes-Benz GLA Class 200'
p536
g436
sS'Honda BR-V i-VTEC E MT'
p537
g35
sS'BMW X5 xDrive 30d Expedition'
p538
g371
sS'Mercedes-Benz New C-Class C 220 CDI Avantgarde'
p539
g197
sS'Hyundai Xcent 1.2 Kappa SX Option AT'
p540
g248
sS'Toyota Innova Crysta 2.4 G MT 8S'
p541
g44
sS'Ford Figo Aspire 1.5 TDCi Ambiente'
p542
g90
sS'Nissan Sunny XL'
p543
g4
sS'Mercedes-Benz E-Class E250 Edition E'
p544
g229
sS'Maruti Ritz VDI (ABS) BS IV'
p545
g48
sS'Fiat Grande Punto EVO Power UP 1.3 Emotion'
p546
g525
sS'Porsche Panamera Base'
p547
g141
sS'BMW 1 Series 118d Sport Line'
p548
S'BMW 1 Series'
p549
sS'Chevrolet Sail Hatchback 1.3 TCDi LS'
p550
g156
sS'Aston Martin DB11 V12'
p551
S'Aston Martin DB9'
p552
sS'Land Rover Range Rover Evoque HSE Dynamic'
p553
g477
sS'Honda Amaze VX CVT i-VTEC'
p554
g217
sS'Tata Tiago 1.2 Revotron XE'
p555
g433
sS'Tata Tiago 1.2 Revotron XB'
p556
g433
sS'Toyota Etios Cross 1.5L V'
p557
g208
sS'Maruti Swift Dzire LXI'
p558
g334
sS'Audi A3 35 TDI Premium Plus'
p559
g168
sS'Tata Tiago 1.2 Revotron XM'
p560
g433
sS'Land Rover Discovery 4 SDV6 SE'
p561
S'Land Rover Discovery 4'
p562
sS'Fiat Linea Classic Plus 1.3 Multijet'
p563
g93
sS'Land Rover Discovery Sport TD4 SE 7S'
p564
g125
sS'Tata Tiago 1.2 Revotron XT'
p565
g433
sS'Mahindra Bolero ZLX BSIII'
p566
g175
sS'Maruti Ertiga SHVS ZDI'
p567
g52
sS'Bentley Flying Spur V8'
p568
S'Bentley Flying Spur'
p569
sS'Tata Tiago 1.2 Revotron XZ'
p570
g433
sS'Hyundai Creta 1.6 CRDi AT SX Plus'
p571
g65
sS'Maruti Ciaz AT ZXi'
p572
g37
sS'Honda Mobilio S i-DTEC'
p573
g12
sS'Hyundai Elantra 2.0 SX'
p574
g242
sS'Jaguar F Type S Coupe'
p575
g133
sS'Mercedes-Benz AMG GT S'
p576
S'Mercedes-Benz AMG GT'
p577
sS'Datsun RediGO T'
p578
g250
sS'Volkswagen Polo Select 1.5 TDI Highline'
p579
g145
sS'Ford Endeavour 2.2 Titanium AT 4X2'
p580
g260
sS'Datsun RediGO S'
p581
g250
sS'Hyundai EON 1.0 Magna Plus Option O'
p582
g78
sS'Porsche Panamera Turbo S'
p583
g141
sS'Audi A3 40 TFSI Premium'
p584
g168
sS'Volkswagen Polo GT TSI'
p585
g145
sS'Mahindra Scorpio Intelli Hybrid S4 Plus 4WD'
p586
g119
sS'BMW 6 Series 640d Design Pure Experience'
p587
g332
sS'Tata Indica V2 DLS BSIII'
p588
S'Tata Indica eV2'
p589
sS'Maruti Celerio VXI AT Optional'
p590
g72
sS'Datsun RediGO D'
p591
g250
sS'Toyota Innova Crysta 2.4 GX MT'
p592
g44
sS'Datsun RediGO A'
p593
g250
sS'Honda City i DTec VX Option'
p594
g111
sS'Honda Jazz 1.2 E i VTEC'
p595
g107
sS'Volkswagen Vento 1.6 Highline'
p596
g32
sS'Tata Aria Pride 4x4'
p597
S'Tata Aria'
p598
sS'BMW 7 Series 730Ld M Sport'
p599
g192
sS'Mahindra KUV 100 mFALCON D75 K6 Plus 5str'
p600
g8
sS'Hyundai Creta 1.6 VTVT E'
p601
g65
sS'Toyota Innova 2.5 G (Diesel) 7 Seater BS IV'
p602
g44
sS'Ferrari FF GT'
p603
S'Ferrari FF'
p604
sS'Land Rover Range Rover LWB 3.0 Vogue'
p605
g275
sS'Honda Jazz 1.5 SV i DTEC'
p606
g107
sS'BMW X1 sDrive 20d xLine'
p607
g63
sS'Hyundai Creta 1.6 VTVT S'
p608
g65
sS'Honda City i DTec VX Option BL'
p609
g111
sS'Skoda Rapid 1.5 TDI Style Plus Black Package'
p610
g95
sS'Nissan Sunny XV D Premium Safety'
p611
g4
sS'Tata Tiago 1.2 Revotron XE Option'
p612
g433
sS'Datsun GO Plus Style'
p613
g26
sS'Porsche 911 Carrera Cabriolet'
p614
S'Porsche 911'
p615
sS'BMW 5 Series 530d M Sport'
p616
g178
sS'Maruti Alto K10 LX'
p617
g357
sS'Mercedes-Benz GLE Class 250d'
p618
g459
sS'Maruti Wagon R LXI BS IV'
p619
g70
sS'Mahindra Bolero ZLX'
p620
g175
sS'Maruti Alto 800 LX Optional'
p621
g376
sS'Ford Ecosport 1.0 Ecoboost Titanium Plus'
p622
g20
sS'Honda Amaze S Option i-VTEC'
p623
g217
sS'Ford Figo 1.5D Ambiente MT'
p624
g90
sS'Maruti Celerio VXI Optional'
p625
g72
sS'Tata Zest Quadrajet 1.3 XT'
p626
g117
sS'Toyota Camry 2.5 G'
p627
g345
sS'Rolls-Royce Phantom Extended Wheelbase'
p628
g495
sS'Skoda Octavia Ambition Plus 2.0 TDI MT'
p629
g231
sS'Ford Ecosport 1.5 Ti VCT AT Signature'
p630
g20
sS'Porsche Macan 2L'
p631
g101
sS'Tata Indica V2 DLX BSIII'
p632
g589
sS'Jaguar XF 2.0 Diesel Pure'
p633
g99
sS'Volvo V40 D3 R Design'
p634
g443
sS'Bentley Continental GT'
p635
g105
sS'Aston Martin Vantage V8 4.7L'
p636
g267
sS'Volvo XC 90 D5 Inscription'
p637
g246
sS'Toyota Etios Cross 1.4L GD'
p638
g208
sS'Maruti Ciaz ZXi'
p639
g37
sS'Toyota Innova 2.5 VX (Diesel) 7 Seater BS IV'
p640
g44
sS'Toyota Fortuner 4x4 AT'
p641
g185
sS'Ford Figo 1.2P Titanium Plus MT'
p642
g90
sS'BMW M Series M3 Sedan'
p643
g10
sS'Maruti Vitara Brezza ZDi Plus'
p644
g83
sS'Rolls-Royce Ghost Series II Extended Wheelbase'
p645
S'Rolls-Royce Ghost'
p646
sS'Maruti Alto K10 LXI CNG'
p647
g357
sS'Honda Jazz 1.5 S i DTEC'
p648
g107
sS'Mahindra Ssangyong Rexton RX6'
p649
S'Mahindra Ssangyong Rexton'
p650
sS'BMW M Series M5 Sedan'
p651
g10
sS'Premier Rio DX Beige Interior'
p652
g162
sS'Maruti Wagon R Stingray VXI Optional'
p653
g500
sS'Hyundai Grand i10 Sportz'
p654
g16
sS'Hyundai Elantra 1.6 SX Option AT'
p655
g242
sS'Volkswagen Vento 1.5 TDI Highline'
p656
g32
sS'Maruti Eeco CNG 5 Seater AC'
p657
g58
sS'Mahindra KUV 100 mFALCON G80 K6 Plus'
p658
g8
sS'Mahindra NuvoSport N4'
p659
g2
sS'Mahindra XUV500 AT W8 1.99 mHawk'
p660
g29
sS'Hyundai Verna 1.6 CRDi S'
p661
g122
sS'Rolls-Royce Wraith Coupe'
p662
S'Rolls-Royce Wraith'
p663
sS'Audi RS7 Sportback'
p664
S'Audi RS7'
p665
sS'Honda CR-V 2.4L 4WD AT'
p666
g308
sS'Renault Lodgy World Edition 85PS'
p667
g361
sS'Jaguar XE Portfolio'
p668
S'Jaguar XE'
p669
sS'Toyota Corolla Altis G MT'
p670
g183
sS'Skoda Rapid 1.5 TDI Active'
p671
g95
sS'Renault KWID RXT'
p672
g300
sS'Hyundai EON LPG Era Plus Option'
p673
g78
sS'Toyota Land Cruiser Prado VX L'
p674
S'Toyota Land Cruiser Prado'
p675
sS'Maruti Celerio ZDi Option'
p676
g72
sS'Mahindra XUV500 AT W8 FWD'
p677
g29
sS'Maruti Eeco 5 Seater AC'
p678
g58
sS'Volkswagen Vento 1.5 TDI Trendline'
p679
g32
sS'Renault KWID RXE'
p680
g300
sS'Mahindra Thar DI 4X4'
p681
g149
sS'Fiat Linea 125S'
p682
g93
sS'Renault KWID RXL'
p683
g300
sS'Volkswagen Ameo 1.5 TDI Comfortline AT'
p684
g109
sS'Mahindra Thar DI 4X2'
p685
g149
sS'Maruti Ertiga LXI'
p686
g52
sS'Honda BR-V i-DTEC S MT'
p687
g35
sS'Ford Ecosport 1.5 Ti VCT AT Titanium BE'
p688
g20
sS'Datsun GO Plus T'
p689
g26
sS'Jaguar XJ 2.0L Portfolio'
p690
g297
sS'Tata Sumo Gold EX'
p691
g255
sS'Renault KWID 1.0'
p692
g300
sS'Mahindra NuvoSport N6'
p693
g2
sS'Datsun GO Plus A'
p694
g26
sS'Maruti Alto 800 LX'
p695
g376
sS'Datsun GO Plus D'
p696
g26
sS'Maruti Ertiga VXI AT'
p697
g52
sS'Ford Ecosport 1.0 Ecoboost Trend Plus'
p698
g20
sS'Chevrolet Spark 1.0 LT'
p699
g88
sS'Mercedes-Benz S-Class S Guard'
p700
g195
sS'Chevrolet Spark 1.0 LS'
p701
g88
sS'Mahindra Scorpio Adventure Edition 2WD'
p702
g119
sS'Renault Duster Petrol RxL'
p703
g18
sS'Mercedes-Benz CLS-Class 250 CDI'
p704
S'Mercedes-Benz CLS'
p705
sS'Mahindra Bolero LX 4WD NON AC BS3'
p706
g175
sS'Maruti Swift VXI Optional'
p707
g334
sS'Skoda Superb LK 1.8 TSI AT'
p708
g286
sS'Tata Xenon XT EX 4X2'
p709
S'Tata Xenon XT'
p710
sS'Mercedes-Benz A Class A200 D Sport'
p711
g252
sS'Skoda Superb Style 1.8 TSI AT'
p712
g286
sS'BMW 3 Series 320d Sport'
p713
g165
sS'Maruti Swift VDI Optional'
p714
g334
sS'Bentley Mulsanne 6.8'
p715
S'Bentley Mulsanne'
p716
sS'Force One SX ABS 7 Seating'
p717
S'Force One SUV'
p718
sS'Fiat Grande Punto EVO Power Up 1.2 Dynamic'
p719
g525
sS'Maruti Celerio VXI'
p720
g72
sS'Maruti Baleno 1.2 Alpha'
p721
g204
sS'Hyundai Xcent 1.2 Kappa SX'
p722
g248
sS'Mercedes-Benz S-Class S 500 Coupe'
p723
g195
sS'Nissan Terrano XV D Premium AMT'
p724
g387
sS'Hyundai Xcent 1.2 Kappa S'
p725
g248
sS'Honda Jazz 1.2 V i VTEC'
p726
g107
sS'Honda Amaze E Option i-VTEC'
p727
g217
sS'ICML Extreme SD DI 9Seater BSIII'
p728
g50
sS'Honda Amaze VX i DTEC'
p729
g217
sS'Mahindra XUV500 W8 4WD'
p730
g29
sS'Audi A6 35 TDI'
p731
g462
sS'Hyundai EON LPG Era Plus'
p732
g78
sS'Aston Martin Vanquish V12'
p733
S'Aston Martin Vanquish'
p734
sS'Maruti Celerio VDI Optional'
p735
g72
sS'Mini Cooper Countryman Cooper D'
p736
S'Mini Countryman'
p737
sS'Honda Amaze S i-DTEC'
p738
g217
sS'Mahindra Xylo H8'
p739
g41
sS'Maserati Ghibli Diesel'
p740
S'Maserati Ghibli'
p741
sS'Volkswagen Polo 1.2 MPI Trendline'
p742
g145
sS'Hyundai Xcent 1.1 CRDi Base'
p743
g248
sS'Mahindra TUV 300 mHAWK100 T8 Dual Tone'
p744
g22
sS'Audi RS6 4.0 TFSI'
p745
S'Audi RS6 Avant'
p746
sS'Land Rover Discovery Sport TD4 S'
p747
g125
sS'Renault Lodgy World Edition 110PS'
p748
g361
sS'Maruti Baleno 1.3 Zeta'
p749
g204
sS'ICML Extreme Van BSIII Non AC'
p750
g50
sS'Honda Jazz 1.2 S AT i VTEC'
p751
g107
sS'Tata Sumo Gold CX BSIII'
p752
g255
sS'Jaguar F Type 3.0 V6 S'
p753
g133
sS'Mercedes-Benz E-Class E350 CDI Avantgrade'
p754
g229
sS'Volkswagen Jetta 2.0L TDI Comfortline'
p755
g529
sS'Maruti SX4 S Cross DDiS 320 Delta'
p756
g206
sS'Volkswagen Vento 1.2 TSI Highline AT'
p757
g32
sS'Mahindra XUV500 W8 2WD'
p758
g29
sS'Chevrolet Sail 1.3 Base'
p759
g156
sS'Maserati Quattroporte Diesel'
p760
g349
sS'Chevrolet Sail Hatchback 1.2 LS'
p761
g156
sS'ICML Extreme LD CRDFi AC M Stg 9Seater BSIV'
p762
g50
sS'Mahindra Bolero EX AC'
p763
g175
sS'BMW 7 Series 750Li M Sport CBU'
p764
g192
sS'Datsun GO Plus A EPS'
p765
g26
sS'Maruti Ciaz VXi Option'
p766
g37
sS'Volkswagen CrossPolo 1.2 MPI'
p767
S'Volkswagen CrossPolo'
p768
sS'Porsche Cayenne S Diesel'
p769
g201
sS'Honda Amaze S Option i-DTEC'
p770
g217
sS'Honda City i DTec E'
p771
g111
sS'Honda Amaze S i-VTEC'
p772
g217
sS'Renault KWID 1.0 RXT Optional'
p773
g300
sS'Chevrolet Beat Diesel LTZ'
p774
g336
sS'Mahindra KUV 100 mFALCON G80 K4 Plus 5str'
p775
g8
sS'Honda BR-V i-DTEC VX MT'
p776
g35
sS'Maruti Ciaz ZDi SHVS'
p777
g37
sS'Mahindra Bolero mHAWK D70 ZLX'
p778
g175
sS'Honda Mobilio E i-VTEC'
p779
g12
sS'BMW 7 Series 730Ld Design Pure Excellence CBU'
p780
g192
sS'Rolls-Royce Ghost Series II Standard'
p781
g646
sS'Chevrolet Tavera Neo 3 10 Seats BSIII'
p782
g39
sS'Mahindra Bolero Plus Non AC'
p783
g175
sS'Tata Tiago 1.2 Revotron XT Option'
p784
g433
sS'Mahindra Scorpio S8 7C Seater'
p785
g119
sS'Mahindra KUV 100 mFALCON D75 K8 5str'
p786
g8
sS'Hyundai i20 Era 1.2'
p787
g97
sS'Ford Figo Aspire 1.5 Ti-VCT Titanium'
p788
g90
sS'Mercedes-Benz GLS 350d 4MATIC'
p789
S'Mercedes-Benz GLS'
p790
sS'Tata Bolt Revotron XT'
p791
g81
sS'Chevrolet Tavera Neo 3 LS 7 C BSIII'
p792
g39
sS'ICML Extreme LD CRDFi PS AC 9Seater BSIV'
p793
g50
sS'Volvo XC60 D4 KINETIC'
p794
g60
sS'Volkswagen Polo GT 1.5 TDI'
p795
g145
sS'Maruti Swift LDI BSIV'
p796
g334
sS'Hyundai Elantra 2.0 SX Option'
p797
g242
sS'Tata Zest Quadrajet 1.3 XMA'
p798
g117
sS'Nissan Terrano XV Premium 110 PS'
p799
g387
sS'Maruti Celerio VXI AT'
p800
g72
sS'Tata Aria Pleasure 4x2'
p801
g598
sS'Audi A4 30 TFSI Premium Plus'
p802
S'Audi A4'
p803
sS'Nissan Sunny XV CVT'
p804
g4
sS'Honda City i VTEC V'
p805
g111
sS'Bugatti Veyron 16.4 Grand Sport'
p806
S'Bugatti Veyron'
p807
sS'Honda City i VTEC S'
p808
g111
sS'Maruti Swift Dzire LDI Optional'
p809
g334
sS'Land Rover Discovery Sport TD4 HSE'
p810
g125
sS'Audi A8 L 60 TFSI Quattro'
p811
g68
sS'Mahindra Supro LX 8 Str'
p812
g173
sS'Audi A4 30 TFSI Technology'
p813
g803
sS'Maruti Wagon R AMT VXI Option'
p814
g70
sS'Toyota Innova 2.5 GX (Diesel) 8 Seater BS IV'
p815
g44
sS'Honda City i VTEC E'
p816
g111
sS'Volkswagen Jetta 1.4 TSI Trendline'
p817
g529
sS'Porsche Panamera Diesel'
p818
g141
sS'Maruti Ertiga SHVS LDI'
p819
g52
sS'Fiat Punto Pure 1.3L Advanced Multi-Jet'
p820
g295
sS'Volkswagen Ameo 1.5 TDI Trendline'
p821
g109
sS'Mahindra Bolero LX 4WD NON AC BSIV'
p822
g175
sS'Hyundai Creta 1.6 VTVT E Plus'
p823
g65
sS'Honda City i DTec V'
p824
g111
sS'Chevrolet Cruze LT'
p825
g86
sS'Porsche 911 Turbo'
p826
g615
sS'Porsche Cayenne Turbo S'
p827
g201
sS'Rolls-Royce Phantom Phantom'
p828
g495
sS'Maruti Celerio LXI Optional'
p829
g72
sS'BMW 5 Series 520i Luxury Line'
p830
g178
sS'Mercedes-Benz GLS 400 4MATIC'
p831
g790
sS'Mercedes-Benz GLA Class 200 CDI'
p832
g436
sS'Toyota Innova Crysta 2.4 G MT'
p833
g44
sS'Toyota Innova Crysta 2.4 GX MT 8S'
p834
g44
sS'Volkswagen Jetta 2.0L TDI Trendline'
p835
g529
sS'Hyundai i10 Sportz 1.1L'
p836
S'Hyundai i10'
p837
sS'Toyota Corolla Altis G AT'
p838
g183
sS'Honda Amaze SX i DTEC'
p839
g217
sS'Volvo S 80 D4'
p840
g420
sS'Renault Duster Adventure Edition 85PS RXE'
p841
g18
sS'Ford Figo 1.2P Base MT'
p842
g90
sS'Maruti Swift VXI Deca'
p843
g334
sS'Hyundai i10 Magna 1.1L'
p844
g837
sS'Maruti SX4 S Cross DDiS 320 Zeta'
p845
g206
sS'BMW 7 Series 730Ld Design Pure Excellence'
p846
g192
sS'Volvo XC60 D5 Inscription'
p847
g60
sS'Premier Rio GX Beieg Interior'
p848
g162
sS'Honda City i DTec S'
p849
g111
sS'Toyota Etios Liva 1.4 VD'
p850
g208
sS'BMW X5 xDrive 30d Design Pure Experience 5 Seater'
p851
g371
sS'Hyundai i20 Asta Option 1.2'
p852
g97
sS'Renault Duster Adventure Edition RXZ AWD'
p853
g18
sS'Maruti Alto K10 VXI AMT'
p854
g357
sS'Jaguar F Type 5.0 V8 S'
p855
g133
sS'Jaguar F Type R Coupe'
p856
g133
sS'Audi Q7 45 TDI Quattro Technology'
p857
S'Audi Q7'
p858
sS'Hyundai i20 Era 1.4 CRDi'
p859
g97
sS'BMW Z4 35i DPT'
p860
S'BMW Z4'
p861
sS'Jaguar XE Prestige'
p862
g669
sS'Toyota Innova 2.5 G (Diesel) 8 Seater BS IV'
p863
g44
sS'Chevrolet Cruze LTZ AT'
p864
g86
sS'Bentley Flying Spur W12'
p865
g569
sS'Maruti Celerio LXI'
p866
g72
sS'Ford Ecosport 1.5 Ti VCT MT Trend'
p867
g20
sS'Maruti Alto 800 VXI Optional'
p868
g376
sS'Maruti Ciaz ZXi Plus'
p869
g37
sS'Toyota Fortuner 2.5 4x2 MT TRD Sportivo'
p870
g185
sS'Lamborghini Aventador Roadster LP 700 4'
p871
g212
sS'Aston Martin Vantage V8 Sport'
p872
g267
sS'Hyundai Elantra 2.0 S'
p873
g242
sS'Tata Indigo CS eLS BS IV'
p874
g135
sS'Mercedes-Benz S-Class S400'
p875
g195
sS'Maruti Vitara Brezza VDi'
p876
g83
sS'Volvo S60 Cross Country D4 AWD'
p877
g151
sS'BMW M Series M4 Coupe'
p878
g10
sS'Tata Zest Quadrajet 1.3 75PS XMS'
p879
g117
sS'Rolls-Royce Phantom Coupe'
p880
g495
sS'Hyundai EON Sportz'
p881
g78
sS'Toyota Etios 1.4 GD'
p882
g208
sS'Maruti Eeco Flexi Green'
p883
g58
sS'Honda Amaze E i-VTEC'
p884
g217
sS'Honda Jazz 1.2 S i VTEC'
p885
g107
sS'Volkswagen Ameo 1.5 TDI Highline'
p886
g109
sS'Ford Mustang V8'
p887
S'Ford Mustang'
p888
sS'Maruti Swift Dzire VDI Optional'
p889
g334
sS'Ford Ecosport 1.5 TDCi Titanium Plus'
p890
g20
sS'Volkswagen Vento 1.5 TDI Comfortline AT'
p891
g32
sS'Hyundai i20 Magna AT 1.4'
p892
g97
sS'Maruti Ritz LDi'
p893
g48
sS'Honda Mobilio V Option i-VTEC'
p894
g12
sS'Hyundai Creta 1.6 CRDi Anniversary Edition'
p895
g65
sS'Toyota Etios 1.5 G'
p896
g208
sS'Mahindra TUV 300 T6 Plus AMT'
p897
g22
sS'Volkswagen Ameo 1.2 MPI Trendline'
p898
g109
sS'Toyota Etios 1.5 V'
p899
g208
sS'Ford Ecosport 1.5 TDCi Ambiente'
p900
g20
sS'Chevrolet Enjoy 1.4 LS 7'
p901
g147
sS'Datsun GO A EPS'
p902
g26
sS'Chevrolet Enjoy 1.4 LS 8'
p903
g147
sS'Porsche 911 Turbo S Cabriolet'
p904
g615
sS'Porsche 911 Turbo S'
p905
g615
sS'Maruti Alto 800 CNG LXI'
p906
g376
sS'Mercedes-Benz E-Class E 63 AMG'
p907
g229
sS'Maruti Wagon R Stingray VXI'
p908
g500
sS'Mercedes-Benz GLA 45 AMG'
p909
g909
sS'Datsun RediGO T Option'
p910
g250
sS'Honda Jazz 1.2 VX i VTEC'
p911
g107
sS'Nissan Micra XL CVT'
p912
g234
sS'Chevrolet Sail LT ABS'
p913
g156
sS'Mahindra Xylo D4 BS III'
p914
g41
sS'Volkswagen Ameo 1.5 TDI Highline AT'
p915
g109
sS'Tata Sumo Gold CX PS'
p916
g255
sS'Mahindra Scorpio 1.99 S4 Plus'
p917
g119
sS'Audi Q5 45 TDI quattro Technology'
p918
g321
sS'Lamborghini Huracan LP 580 2'
p919
g188
sS'Mahindra Bolero Plus AC BSIII PS'
p920
g175
sS'Datsun GO Plus T Option'
p921
g26
sS'Honda Brio 1.2 VX MT'
p922
g143
sS'Maruti Omni MPI Ambulance BSIV'
p923
g258
sS'Mercedes-Benz GLE Class 350d'
p924
g459
sS'Hyundai i20 Asta Option 1.4 CRDi'
p925
g97
sS'Mitsubishi Pajero Sport 4X2 AT'
p926
S'Mitsubishi Pajero Sport'
p927
sS'Land Rover Range Rover LWB 4.4 SDV8 Vogue SE'
p928
g275
sS'ICML Extreme LD CRDFi Non-AC 9Seater BSIV'
p929
g50
sS'Volkswagen Vento Celeste 1.6 Highline'
p930
g32
sS'Honda Mobilio RS Option i-DTEC'
p931
g12
sS'Porsche Cayenne Turbo'
p932
g201
sS'Skoda Octavia Style Plus 1.8 TSI AT'
p933
g231
sS'BMW X1 sDrive20d Expedition'
p934
g63
sS'Chevrolet Enjoy 1.3 TCDi LT 7'
p935
g147
sS'Maruti Baleno 1.2 Zeta'
p936
g204
sS'Jaguar XE Pure'
p937
g669
sS'Chevrolet Enjoy 1.3 TCDi LT 8'
p938
g147
sS'Audi Q5 30 TDI quattro Premium Plus'
p939
g321
sS'Mahindra Bolero LX NON AC BS3'
p940
g175
sS'Mercedes-Benz New C-Class C 63 S AMG'
p941
g197
sS'Honda Mobilio E i-DTEC'
p942
g12
sS'Porsche Cayenne GTS'
p943
g201
sS'Mercedes-Benz B Class B180 Sport'
p944
S'Mercedes-Benz B-Class'
p945
sS'Volkswagen Polo Select 1.2 MPI Highline'
p946
g145
sS'Mahindra XUV500 W10 2WD'
p947
g29
sS'Volkswagen Beetle 1.4 TSI'
p948
S'Volkswagen Beetle'
p949
sS'Land Rover Range Rover LWB 4.4 SDV8 Autobiography'
p950
g275
sS'Porsche Boxster GTS'
p951
S'Porsche Boxster'
p952
sS'Honda Amaze SX i VTEC'
p953
g217
sS'Mahindra Xylo H4'
p954
g41
sS'Tata Indigo CS eGLS BS IV'
p955
g135
sS'Hyundai Verna 1.4 VTVT'
p956
g122
sS'Mahindra KUV 100 mFALCON D75 K6 Plus'
p957
g8
sS'Toyota Innova Crysta 2.7 GX AT 8S'
p958
g44
sS'Toyota Innova Crysta 2.7 ZX AT'
p959
g44
sS'Mahindra Bolero EX NON AC'
p960
g175
sS'Mahindra Scorpio Getaway 4WD'
p961
g119
sS'Toyota Fortuner 4x2 AT'
p962
g185
sS'Tata Nano XM'
p963
g272
sS'Honda CR-V 2.0L 2WD MT'
p964
g308
sS'Honda City i VTEC VX Option BL'
p965
g111
sS'Volkswagen Vento 1.6 Comfortline'
p966
g32
sS'Tata Nano XE'
p967
g272
sS'Mahindra XUV500 W10 AWD'
p968
g29
sS'Mitsubishi Pajero Sport 4X2 AT Dual Tone'
p969
g927
sS'Mahindra Verito 1.5 D2 BSIV'
p970
g129
sS'Maruti Wagon R Stingray AMT VXI'
p971
g500
sS'ICML Extreme SD CRDFi 9Seater BSIII'
p972
g50
sS'Renault Lodgy 85PS RxE'
p973
g361
sS'Mahindra Thar DI 4X2 PS'
p974
g149
sS'Toyota Etios 1.5 VX'
p975
g208
sS'Hyundai Grand i10 CRDi Sportz'
p976
g16
sS'Renault Lodgy 85PS RxL'
p977
g361
sS'Porsche 911 Carrera S'
p978
g615
sS'Maruti Vitara Brezza LDi'
p979
g83
sS'Mahindra Bolero Plus Non AC BSIV PS'
p980
g175
sS'Ford Figo Aspire 1.2 Ti-VCT Trend'
p981
g90
sS'Ford Figo 1.5D Trend MT'
p982
g90
sS'Honda Jazz 1.5 V i DTEC'
p983
g107
sS'Tata Indigo CS Emax CNG GLS'
p984
g135
sS'Land Rover Range Rover Evoque Pure'
p985
g477
sS'Honda Jazz 1.5 VX i DTEC'
p986
g107
sS'Maruti Swift Dzire VXi AT'
p987
g334
sS'Maruti Alto 800 CNG LXI Optional'
p988
g376
sS'Hyundai EON 1.0 Kappa Magna Plus Optional'
p989
g78
sS'Mahindra Bolero DI NON AC BS III White'
p990
g175
sS'Maruti Wagon R LXI CNG'
p991
g70
sS'Ford Figo Aspire 1.2 Ti-VCT Titanium'
p992
g90
sS'Audi S5 Sportback'
p993
S'Audi S5'
p994
sS'Mahindra KUV 100 mFALCON D75 K6 5str'
p995
g8
sS'Fiat Grande Punto EVO Power UP 1.3 Active'
p996
g525
sS'Land Rover Range Rover LWB 5.0 V8'
p997
g275
sS'Mahindra TUV 300 T8'
p998
g22
sS'Hyundai i10 Era'
p999
g837
sS'Mahindra XUV500 AT W10 1.99 mHawk'
p1000
g29
sS'Ford Figo Aspire 1.5 TDCi Trend'
p1001
g90
sS'Hyundai EON Magna Plus'
p1002
g78
sS'Audi Q7 45 TDI Quattro Premium Plus'
p1003
g858
sS'Toyota Fortuner 4x2 Manual'
p1004
g185
sS'Maruti Baleno 1.2 Delta'
p1005
g204
sS'Mahindra Scorpio Intelli Hybrid S10 4WD'
p1006
g119
sS'Mahindra Scorpio S10 AT 4WD'
p1007
g119
sS'Audi Q3 30 TDI S Edition'
p1008
g225
sS'Hyundai Creta 1.4 CRDi S'
p1009
g65
sS'Mercedes-Benz CLA 200 CDI Sport'
p1010
S'Mercedes-Benz CLA'
p1011
sS'Honda Brio 1.2 VX AT'
p1012
g143
sS'Maruti Ciaz VDi Plus SHVS'
p1013
g37
sS'Maruti Celerio LDi'
p1014
g72
sS'Land Rover Range Rover Evoque Coupe HSE Dynamic'
p1015
g477
sS'Maruti Celerio Green VXI Optional'
p1016
g72
sS'Mahindra Verito Vibe 1.5 dCi D2'
p1017
g129
sS'Mahindra Bolero Plus - Non-AC BSIII PS'
p1018
g175
sS'Mahindra Verito Vibe 1.5 dCi D4'
p1019
g129
sS'Hyundai i10 Sportz 1.1L LPG'
p1020
g837
sS'Mahindra Verito Vibe 1.5 dCi D6'
p1021
g129
sS'Toyota Innova Crysta 2.7 GX AT'
p1022
g44
sS'Maruti Swift Dzire LXI Optional-O'
p1023
g334
sS'Renault Pulse RxL Optional'
p1024
g264
sS'Porsche Boxster S'
p1025
g952
sS'Premier Rio DX'
p1026
g162
sS'Mitsubishi Pajero Sport 4X4'
p1027
g927
sS'Honda Mobilio S i-VTEC'
p1028
g12
sS'Maruti Wagon R LXI CNG Optional'
p1029
g70
sS'Maruti Ertiga SHVS VDI'
p1030
g52
sS'Land Rover Range Rover Sport HSE'
p1031
g56
sS'Mahindra Ssangyong Rexton RX7'
p1032
g650
sS'Skoda Rapid 1.6 MPI Style Plus Black Package'
p1033
g95
sS'Honda City i DTec SV'
p1034
g111
sS'Hyundai Elantra 1.6 S'
p1035
g242
sS'Porsche Cayenne Diesel'
p1036
g201
sS'Ford Figo 1.5P Titanium AT'
p1037
g90
sS'Maruti Wagon R Stingray LXI'
p1038
g500
sS'Audi TT 45 TFSI'
p1039
S'Audi TT'
p1040
sS'Fiat Avventura Power Up 1.3 Dynamic'
p1041
g103
sS'Hyundai EON D Lite'
p1042
g78
sS'Maruti Swift Dzire LXI Option'
p1043
g334
sS'Mahindra Bolero Plus - AC BSIII'
p1044
g175
sS'Hyundai Creta 1.6 CRDi SX Option'
p1045
g65
sS'BMW X3 xDrive30d M Sport'
p1046
S'BMW X3'
p1047
sS'Honda BR-V i-VTEC VX MT'
p1048
g35
sS'Hyundai Grand i10 CRDi Sportz Celebration Edition'
p1049
g16
sS'Maruti Celerio VDi'
p1050
g72
sS'Chevrolet Tavera Neo 3 LS 9 Str BSIII'
p1051
g39
sS'Maruti Swift Dzire VXI AT Optional'
p1052
g334
sS'Ford Ecosport 1.5 TDCi Trend'
p1053
g20
sS'Tata Tiago 1.05 Revotorq XZ WO Alloy'
p1054
g433
sS'Ford Figo 1.5D Titanium MT'
p1055
g90
sS'Maruti Swift VDI Glory Limited Edition'
p1056
g334
sS'Hyundai Creta 1.4 CRDi Base'
p1057
g65
sS'Ford Figo 1.2P Ambiente MT'
p1058
g90
sS'Volkswagen Vento Celeste 1.5 TDI Highline AT'
p1059
g32
sS'Ford Figo Aspire 1.5 TDCi Titanium'
p1060
g90
sS'Toyota Corolla Altis D-4D Limited Edition'
p1061
g183
sS'Mahindra TUV 300 mHAWK100 T8'
p1062
g22
sS'Mahindra Verito 1.5 Executive edition'
p1063
g129
sS'Chevrolet Sail Hatchback 1.3 TCDi'
p1064
g156
sS'Honda BR-V i-VTEC V MT'
p1065
g35
sS'Fiat Avventura Urban Cross 1.3 Multijet Dynamic'
p1066
g103
sS'Bentley Continental GT Speed'
p1067
g105
sS'Maruti Swift Dzire VDI'
p1068
g334
sS'Maruti Ciaz RS ZDi Plus SHVS'
p1069
g37
sS'Toyota Corolla Altis JS MT'
p1070
g183
sS'Mercedes-Benz CLA 200 CDI Style'
p1071
g1011
sS'Toyota Fortuner 2.5 4x2 AT TRD Sportivo'
p1072
g185
sS'Hyundai Verna 1.6 SX VTVT'
p1073
g122
sS'Toyota Etios Liva 1.2 V'
p1074
g208
sS'Maruti Celerio ZDi'
p1075
g72
sS'Fiat Punto Abarth 1.4 T-Jet'
p1076
S'Fiat Abarth Punto'
p1077
sS'Maruti Vitara Brezza ZDi Plus Dual Tone'
p1078
g83
sS'Skoda Octavia Ambition 2.0 TDI MT'
p1079
g231
sS'BMW 3 Series 320d'
p1080
g165
sS'Tata Nano CNG XM'
p1081
g272
sS'Mahindra Xylo D2 Maxx'
p1082
g41
sS'Audi Q3 35 TDI Dynamic Edition'
p1083
g225
sS'Maruti Wagon R LXI Optional'
p1084
g70
sS'Audi A8 L 60 TDI Quattro'
p1085
g68
sS'Audi A8 L Security'
p1086
g68
sS'Toyota Etios Liva 1.2 G'
p1087
g208
sS'Hyundai i20 Magna 1.2'
p1088
g97
sS'Renault KWID STD'
p1089
g300
sS'Renault Lodgy 85PS RxE 7 Seater'
p1090
g361
sS'Maruti Wagon R Stingray AMT VXI Optional'
p1091
g500
sS'Chevrolet Beat LT'
p1092
g336
sS'Maruti Eeco 7 Seater Standard'
p1093
g58
sS'Land Rover Discovery Sport TD4 SE'
p1094
g125
sS'Mahindra Supro ZX 5 Str'
p1095
g173
sS'Hyundai Grand i10 Sportz Celebration Edition'
p1096
g16
sS'Ford Ecosport 1.5 Ti VCT MT Ambiente'
p1097
g20
sS'Hyundai Grand i10 Asta Option AT'
p1098
g16
sS'Volkswagen Jetta 2.0L TDI Highline'
p1099
g529
sS'Volkswagen Jetta 2.0L TDI Highline AT'
p1100
g529
sS'Volkswagen Vento 1.2 TSI Comfortline AT'
p1101
g32
sS'Chevrolet Sail Hatchback 1.3 TCDi LT ABS'
p1102
g156
sS'Honda City i VTEC SV'
p1103
g111
sS'Mahindra Scorpio 1.99 S4 Plus 4WD'
p1104
g119
sS'Bentley Bentayga 6.0 W12'
p1105
S'Bentley Bentayga'
p1106
sS'Toyota Prius Z6'
p1107
S'Toyota Prius'
p1108
sS'Toyota Prius Z5'
p1109
g1108
sS'Mahindra Scorpio 1.99 S10 4WD'
p1110
g119
sS'Land Rover Range Rover Sport SVR'
p1111
g56
sS'Mercedes-Benz S-Class Maybach S500'
p1112
g195
sS'Toyota Corolla Altis GL MT'
p1113
g183
sS'Porsche Cayman GT4'
p1114
g398
sS'Fiat Linea Power Up 1.4 Fire Active'
p1115
g93
sS'Hyundai Verna 1.6 CRDI SX Option'
p1116
g122
sS'Skoda Superb Style 1.8 TSI MT'
p1117
g286
sS'BMW X3 xDrive20d Expedition'
p1118
g1047
sS'Maruti Alto 800 VXI'
p1119
g376
sS'Hyundai i20 Sportz 1.4 CRDi'
p1120
g97
sS'Hyundai EON Era Plus'
p1121
g78
sS'Skoda Rapid 1.6 MPI Ambition'
p1122
g95
sS'Honda City i VTEC CVT VX'
p1123
g111
sS'Mercedes-Benz E-Class E400 Cabriolet'
p1124
g229
sS'Maruti Swift Dzire VXI Optional'
p1125
g334
sS'Mahindra XUV500 W6 2WD'
p1126
g29
sS'Mercedes-Benz G Class G63 AMG'
p1127
S'Mercedes-Benz G-Class'
p1128
sS'Maruti Baleno 1.3 Sigma'
p1129
g204
sS'BMW 3 Series 320i Luxury Line'
p1130
g165
sS'Toyota Innova Crysta 2.7 GX MT 8S'
p1131
g44
sS'Hyundai i20 Active 1.2 S'
p1132
g97
sS'Tata Sumo Gold CX'
p1133
g255
sS'Fiat Linea Classic 1.3 Multijet'
p1134
g93
sS'Maruti Ritz VXi'
p1135
g48
sS'Maruti Swift ZXI'
p1136
g334
sS'Datsun GO Style'
p1137
g26
sS'Hyundai Xcent 1.2 Kappa S Celebration Edition'
p1138
g248
sS'Mini Cooper Convertible S'
p1139
S'Mini Cooper Convertible'
p1140
sS'Ford Ecosport 1.5 Ti VCT MT Titanium BE'
p1141
g20
sS'Mahindra Bolero SLX'
p1142
g175
sS'Volvo S60 D4 KINETIC'
p1143
g151
sS'Maruti Swift Dzire AMT ZDI'
p1144
g334
sS'Maruti Celerio Green VXI'
p1145
g72
sS'Ferrari F12berlinetta V12'
p1146
S'Ferrari F12berlinetta'
p1147
sS'Tata Nano XT'
p1148
g272
sS'Lamborghini Huracan LP 610 4 Spyder'
p1149
g188
sS'Hyundai i20 Magna 1.4 CRDi'
p1150
g97
sS'Land Rover Discovery 4 SDV6 HSE'
p1151
g562
sS'Mercedes-Benz M-Class ML 63 AMG 4MATIC'
p1152
S'Mercedes-Benz M-Class'
p1153
sS'Mahindra Bolero Plus AC BSIV PS'
p1154
g175
sS'Toyota Innova Crysta 2.4 VX MT'
p1155
g44
sS'Nissan Terrano XL Plus 85 PS'
p1156
g387
sS'Datsun GO T Option'
p1157
g26
sS'Hyundai Santa Fe 2WD MT'
p1158
g289
sS'Hyundai Grand i10 Era'
p1159
g16
sS'Ford Ecosport 1.5 Ti VCT MT Signature'
p1160
g20
sS'Maruti Wagon R VXI BS IV'
p1161
g70
sS'Mahindra NuvoSport N8'
p1162
g2
sS'Tata Sumo Gold GX'
p1163
g255
sS'Hyundai Xcent 1.1 CRDi S'
p1164
g248
sS'Nissan Sunny Diesel XE'
p1165
g4
sS'Porsche Cayenne S'
p1166
g201
sS'Renault Scala Diesel RxL'
p1167
g517
sS'Honda Amaze VX i-VTEC'
p1168
g217
sS'Skoda Rapid 1.5 TDI AT Ambition'
p1169
g95
sS'Toyota Innova Crysta 2.7 VX MT'
p1170
g44
sS'Chevrolet Beat PS'
p1171
g336
sS'DC Avanti 2.0 L'
p1172
S'DC Avanti'
p1173
sS'Ford Figo 1.5D Titanium Plus MT'
p1174
g90
sS'Honda City i VTEC VX'
p1175
g111
sS'Toyota Etios Liva 1.4 GD'
p1176
g208
sS'Hyundai Grand i10 Asta Option'
p1177
g16
sS'Tata Indica V2 eLS'
p1178
g589
sS'Porsche Cayman GTS'
p1179
g398
sS'Maruti Swift LDI Optional'
p1180
g334
sS'Maruti Swift Dzire ZDI'
p1181
g334
sS'Chevrolet Enjoy 1.3 TCDi LS 8'
p1182
g147
sS'Volkswagen CrossPolo 1.5 TDI'
p1183
g768
sS'Bentley Continental GT Speed Convertible'
p1184
g105
sS'Mahindra Supro LX 8 Str BSIII'
p1185
g173
sS'Chevrolet Enjoy 1.3 TCDi LS 7'
p1186
g147
sS'Tata Indica V2 eLX'
p1187
g589
sS'Volkswagen Polo 1.2 MPI Highline'
p1188
g145
sS'Hyundai i20 Asta 1.2'
p1189
g97
sS'Porsche 911 Carrera S Cabriolet'
p1190
g615
sS'Mahindra Scorpio Intelli Hybrid S10'
p1191
g119
sS'Maruti SX4 S Cross DDiS 200 Delta'
p1192
g206
sS'Mahindra Scorpio Intelli Hybrid S4 Plus'
p1193
g119
sS'Audi A3 cabriolet 40 TFSI Premium Plus'
p1194
g168
sS'Skoda Yeti Style 4X2'
p1195
g270
sS'Hyundai Grand i10 CRDi Asta Option'
p1196
g16
sS'Porsche Macan S Diesel'
p1197
g101
sS'Tata Safari Storme VX 4WD Varicor 400'
p1198
S'Tata Safari'
p1199
sS'Bentley Continental GT V8 Convertible'
p1200
g105
sS'Honda Amaze S CVT i-VTEC'
p1201
g217
sS'Renault Duster Petrol RxE'
p1202
g18
sS'Mahindra KUV 100 mFALCON G80 K4 Plus'
p1203
g8
sS'ICML Extreme VD DI 7Seater BSIII'
p1204
g50
sS'Renault Duster 110PS Diesel RxL'
p1205
g18
sS'Hyundai Xcent 1.1 CRDi S Celebration Edition'
p1206
g248
sS'Chevrolet Tavera Neo 3 LT 9 Seats BSIII'
p1207
g39
sS'Hyundai i20 Active 1.4 S'
p1208
g97
sS'Renault Duster 110PS Diesel RxZ'
p1209
g18
sS'Mahindra Scorpio Intelli Hybrid S4'
p1210
g119
sS'Hyundai Xcent 1.2 Kappa S AT'
p1211
g248
sS'Maruti Ritz ZXi'
p1212
g48
sS'Renault Duster 85PS Diesel RxZ'
p1213
g18
sS'Mahindra Bolero Plus - Non-AC BSIII'
p1214
g175
sS'Tata Safari Storme VX Varicor 400'
p1215
g1199
sS'Tata Tiago 1.05 Revotorq XM Option'
p1216
g433
sS'Mahindra Bolero DI NON AC BS III SILVER'
p1217
g175
sS'Mercedes-Benz GLE Class Coupe'
p1218
g459
sS'Maruti Swift Dzire VXI'
p1219
g334
sS'Honda Mobilio V Option i-DTEC'
p1220
g12
sS'Ford Ecosport 1.5 TDCi Trend Plus BE'
p1221
g20
sS'Renault Duster 85PS Diesel RxL'
p1222
g18
sS'Maruti Alto K10 VXI Airbag'
p1223
g357
sS'Honda Jazz 1.2 V AT i VTEC'
p1224
g107
sS'Hyundai Xcent 1.2 Kappa Base'
p1225
g248
sS'Maruti Baleno 1.2 Sigma'
p1226
g204
sS'Mahindra Ssangyong Rexton RX5'
p1227
g650
sS'Tata Aria Pure LX 4x2'
p1228
g598
sS'Chevrolet Sail Hatchback 1.2 LS ABS'
p1229
g156
sS'Maruti Baleno 1.3 Alpha'
p1230
g204
sS'Land Rover Discovery Sport Si4 HSE'
p1231
g125
sS'Mercedes-Benz E-Class E200 Edition E'
p1232
g229
sS'Skoda Rapid 1.5 TDI AT Style Plus Black Package'
p1233
g95
sS'Tata Xenon XT EX 4X4'
p1234
g710
sS'Maruti Alto K10 LXI Optional'
p1235
g357
sS'Maruti Ciaz RS ZXi Plus'
p1236
g37
sS'Maruti Alto 800 Std Optional'
p1237
g376
sS'Mahindra KUV 100 mFALCON D75 K2 Plus'
p1238
g8
sS'Force Gurkha Hard Top BS3 4WD'
p1239
g113
sS'BMW i8 Hybrid'
p1240
S'BMW i8'
p1241
sS'Volkswagen Vento Celeste 1.5 TDI Highline'
p1242
g32
sS'BMW X5 xDrive 30d M Sport'
p1243
g371
sS'Force One SX ABS 6 Seating'
p1244
g718
sS'Force One EX'
p1245
g718
sS'Porsche Panamera Diesel 250hp'
p1246
g141
sS'Mahindra Supro VX 5 Str BSIII'
p1247
g173
sS'Force One 4x4'
p1248
g718
sS'Chevrolet Enjoy 1.4 LTZ 7'
p1249
g147
sS'BMW Z4 35i'
p1250
g861
sS'Maruti SX4 S Cross DDiS 320 Alpha'
p1251
g206
sS'Chevrolet Enjoy 1.4 LTZ 8'
p1252
g147
sS'Mahindra KUV 100 mFALCON D75 K4 5str'
p1253
g8
sS'Land Rover Range Rover Evoque SE'
p1254
g477
sS'ICML Extreme LD DI Non-Ac 9Seater BSIII'
p1255
g50
sS'Chevrolet Sail 1.3 LS'
p1256
g156
sS'Hyundai Creta 1.6 CRDi SX'
p1257
g65
sS'Tata Zest Revotron 1.2 XT'
p1258
g117
sS'Maruti Vitara Brezza LDi Option'
p1259
g83
sS'Ford Figo 1.2P Titanium MT'
p1260
g90
sS'Volkswagen Polo 1.5 TDI Highline'
p1261
g145
sS'Mahindra XUV500 W4 1.99 mHawk'
p1262
g29
sS'Renault Duster Adventure Edition 85PS RXL'
p1263
g18
sS'Mahindra Verito 1.5 D6 BSIV'
p1264
g129
sS'Isuzu MU 7 AT Premium'
p1265
S'Isuzu MU 7'
p1266
sS'ICML Extreme Van BSIII AC'
p1267
g50
sS'Land Rover Discovery Sport SD4 HSE Luxury'
p1268
g125
sS'Maruti Ciaz ZDi Plus SHVS'
p1269
g37
sS'Mercedes-Benz CLA 45 AMG'
p1270
g1011
sS'Maruti Eeco 5 Seater Standard'
p1271
g58
sS'Hyundai Creta 1.6 CRDi SX Plus'
p1272
g65
sS'Chevrolet Sail LS ABS'
p1273
g156
sS'Jaguar XF 2.0 Diesel Portfolio'
p1274
g99
sS'Hyundai Verna 1.6 CRDI AT SX Option'
p1275
g122
sS'Toyota Innova Crysta 2.8 ZX AT'
p1276
g44
sS'Hyundai Verna 1.4 CRDi'
p1277
g122
sS'Hyundai Verna 1.6 VTVT SX Option'
p1278
g122
sS'Fiat Linea Classic 1.4 Petrol'
p1279
g93
sS'Audi Q3 35 TDI Quattro Premium Plus'
p1280
g225
sS'Mahindra Xylo H8 ABS with Airbags'
p1281
g41
sS'Maruti Ritz ZDi'
p1282
g48
sS'Ford Figo Aspire 1.2 Ti-VCT Ambiente'
p1283
g90
sS'Hyundai i20 Active 1.4 SX with AVN'
p1284
g97
sS'Mahindra Supro VX 8 Str BSIII'
p1285
g173
sS'Skoda Octavia Ambition Plus 1.8 TSI AT'
p1286
g231
sS'Mahindra XUV500 W6 1.99 mHawk'
p1287
g29
sS'Mahindra KUV 100 mFALCON G80 K8 5str'
p1288
g8
sS'Bentley Continental GT V8'
p1289
g105
sS'Maruti Swift LXI Optional-O'
p1290
g334
sS'Hyundai EON D Lite Plus Option'
p1291
g78
sS'Ford Ecosport 1.5 TDCi Signature'
p1292
g20
sS'Volkswagen Vento 1.5 TDI Comfortline'
p1293
g32
sS'Tata Safari Storme EX'
p1294
g1199
sS'Chevrolet Beat Diesel LS'
p1295
g336
sS'Mahindra Bolero LX NON AC'
p1296
g175
sS'Ford Endeavour 2.2 Trend AT 4X2'
p1297
g260
sS'Mercedes-Benz E-Class E 200 CGI'
p1298
g229
sS'Honda City i VTEC VX Option'
p1299
g111
sS'Chevrolet Tavera Neo 3 Max 9 Str BSIII'
p1300
g39
sS'Hyundai EON LPG Magna Plus'
p1301
g78
sS'Hyundai EON D Lite Plus'
p1302
g78
sS'Skoda Octavia Ambition 1.4 TSI MT'
p1303
g231
sS'Mahindra KUV 100 mFALCON G80 K6 Plus 5str'
p1304
g8
sS'Maruti Baleno 1.3 Delta'
p1305
g204
sS'Volkswagen Ameo 1.2 MPI Comfortline'
p1306
g109
sS'Mercedes-Benz B Class B200 CDI Sport'
p1307
g945
sS'Hyundai Xcent 1.1 CRDi SX'
p1308
g248
sS'Volvo S60 T6'
p1309
g151
sS'Hyundai Santa Fe 2WD AT'
p1310
g289
sS'BMW X3 xDrive20d xLine'
p1311
g1047
sS'Skoda Octavia Style Plus 2.0 TDI AT'
p1312
g231
sS'Mercedes-Benz CLA 200 CGI'
p1313
g1011
sS'Tata Bolt Revotron XMS'
p1314
g81
sS'Honda Amaze E i-DTEC'
p1315
g217
sS'Maruti Swift VDI Deca'
p1316
g334
sS'Ford Ecosport 1.5 TDCi Titanium BE'
p1317
g20
sS'Hyundai i20 Sportz 1.2'
p1318
g97
sS'Chevrolet Tavera Neo 3 9 Str BSIII'
p1319
g39
sS'Renault Scala Diesel RxZ'
p1320
g517
sS'Mitsubishi Pajero Sport 4X4 Dual Tone'
p1321
g927
sS'Mahindra Supro ZX 5 Str BSIII'
p1322
g173
sS'Maruti Ritz VDi'
p1323
g48
sS'Nissan Micra Active XV'
p1324
g14
sS'Maruti Swift LXI Option'
p1325
g334
sS'Maruti Alto 800 STD'
p1326
g376
sS'Porsche 911 Carrera'
p1327
g615
sS'Mercedes-Benz S-Class Maybach S600'
p1328
g195
sS'Premier Rio LX'
p1329
g162
sS'Maruti Ertiga VXI'
p1330
g52
sS'Fiat 500 Abarth 595 Competizione'
p1331
S'Fiat 500'
p1332
sS'Maruti Swift VXI Glory Limited Edition'
p1333
g334
sS'Nissan Terrano XE 85 PS'
p1334
g387
sS'Mahindra Xylo D2 BS III'
p1335
g41
sS'Volkswagen Polo 1.5 TDI Trendline'
p1336
g145
sS'Audi A6 35 TFSI Matrix'
p1337
g462
sS'Force Gurkha Soft Top BS3 4WD'
p1338
g113
sS'Tata Safari Storme LX'
p1339
g1199
sS'Audi Q5 30 TDI quattro Premium'
p1340
g321
sS'Toyota Corolla Altis 1.8 Limited Edition'
p1341
g183
sS'Nissan Micra Active XL'
p1342
g14
sS'Porsche 911 Turbo Cabriolet'
p1343
g615
sS'Ford Figo 1.2P Trend MT'
p1344
g90
sS'Chevrolet Trailblazer LTZ 4X2 AT'
p1345
S'Chevrolet Trailblazer'
p1346
s.