(dp0
S'https://www.cardekho.com/overview/Volvo_XC_90/Volvo_XC_90_D5_Inscription.htm'
p1
I9423000
sS'https://www.cardekho.com/overview/Toyota_Camry/Toyota_Camry_2.5_G.htm'
p2
I3052000
sS'https://www.cardekho.com/overview/BMW_i8/BMW_i8_Hybrid.htm'
p3
I21400000
sS'https://www.cardekho.com/overview/Toyota_Camry/Toyota_Camry_Hybrid.htm'
p4
I3344000
sS'https://www.cardekho.com/overview/Volvo_XC_90/Volvo_XC_90_D5_Momentum.htm'
p5
I7631999
sS'https://www.cardekho.com/overview/Volvo_XC_90/Volvo_XC_90_T8_Excellence.htm'
p6
I13100000
sS'https://www.cardekho.com/overview/Toyota_Prius/Toyota_Prius_Z6.htm'
p7
I4050000
sS'https://www.cardekho.com/overview/Toyota_Prius/Toyota_Prius_Z5.htm'
p8
I3879000
s.