(dp0
S'https://www.cardekho.com/overview/Volvo_XC_90/Volvo_XC_90_D5_Inscription.htm'
p1
V94.23 Lakh
p2
sS'https://www.cardekho.com/overview/Toyota_Camry/Toyota_Camry_2.5_G.htm'
p3
V30.52 Lakh
p4
sS'https://www.cardekho.com/overview/BMW_i8/BMW_i8_Hybrid.htm'
p5
V2.14 Cr
p6
sS'https://www.cardekho.com/overview/Toyota_Camry/Toyota_Camry_Hybrid.htm'
p7
V33.44 Lakh
p8
sS'https://www.cardekho.com/overview/Volvo_XC_90/Volvo_XC_90_D5_Momentum.htm'
p9
V76.32 Lakh
p10
sS'https://www.cardekho.com/overview/Volvo_XC_90/Volvo_XC_90_T8_Excellence.htm'
p11
V1.31 Cr
p12
sS'https://www.cardekho.com/overview/Toyota_Prius/Toyota_Prius_Z6.htm'
p13
V40.5 Lakh
p14
sS'https://www.cardekho.com/overview/Toyota_Prius/Toyota_Prius_Z5.htm'
p15
V38.79 Lakh
p16
s.