(dp0
S'https://www.cardekho.com/overview/Mercedes-Benz_S-Class/Mercedes-Benz_S-Class_S_Guard.htm'
p1
I90600000
sS'https://www.cardekho.com/overview/Bentley_Mulsanne/Bentley_Mulsanne_6.8.htm'
p2
I55599999
sS'https://www.cardekho.com/overview/Rolls-Royce_Ghost/Rolls-Royce_Ghost_Series_II_Standard.htm'
p3
I45000000
sS'https://www.cardekho.com/overview/Jaguar_XE/Jaguar_XE_Pure.htm'
p4
I4101000
sS'https://www.cardekho.com/overview/BMW_M_Series/BMW_M_Series_M5_Sedan.htm'
p5
I13600000
sS'https://www.cardekho.com/overview/Jaguar_XF/Jaguar_XF_2.0_Diesel_Prestige.htm'
p6
I7023999
sS'https://www.cardekho.com/overview/BMW_M_Series/BMW_M_Series_X5_M.htm'
p7
I16200000
sS'https://www.cardekho.com/overview/Audi_A6/Audi_A6_35_TFSI.htm'
p8
I5080000
sS'https://www.cardekho.com/overview/Audi_A8/Audi_A8_L_50_TDI_Quattro_Premium_Plus.htm'
p9
I11700000
sS'https://www.cardekho.com/overview/Jaguar_XF/Jaguar_XF_2.0_Diesel_Portfolio.htm'
p10
I7803000
sS'https://www.cardekho.com/overview/BMW_6_Series/BMW_6_Series_640d_Design_Pure_Experience.htm'
p11
I12200000
sS'https://www.cardekho.com/overview/Jaguar_XF/Jaguar_XF_2.0_Diesel_Pure.htm'
p12
I5345000
sS'https://www.cardekho.com/overview/Mercedes-Benz_E-Class/Mercedes-Benz_E-Class_E350_CDI_Avantgrade.htm'
p13
I6096000
sS'https://www.cardekho.com/overview/Volvo_S60/Volvo_S60_D5_Inscription.htm'
p14
I4243000
sS'https://www.cardekho.com/overview/Mercedes-Benz_CLS-Class/Mercedes-Benz_CLS-Class_250_CDI.htm'
p15
I7786000
sS'https://www.cardekho.com/overview/Jaguar_XE/Jaguar_XE_Portfolio.htm'
p16
I4933000
sS'https://www.cardekho.com/overview/Jaguar_XF/Jaguar_XF_2.0_Petrol_Portfolio.htm'
p17
I6520000
sS'https://www.cardekho.com/overview/Volvo_S_80/Volvo_S_80_D5.htm'
p18
I5060000
sS'https://www.cardekho.com/overview/Porsche_Panamera/Porsche_Panamera_Base.htm'
p19
I12000000
sS'https://www.cardekho.com/overview/Mercedes-Benz_E-Class/Mercedes-Benz_E-Class_E250_CDI_Avantgarde.htm'
p20
I5208000
sS'https://www.cardekho.com/overview/Mercedes-Benz_S-Class/Mercedes-Benz_S-Class_S400.htm'
p21
I13100000
sS'https://www.cardekho.com/overview/BMW_M_Series/BMW_M_Series_X6_M.htm'
p22
I16600000
sS'https://www.cardekho.com/overview/Audi_A8/Audi_A8_L_60_TFSI_Quattro.htm'
p23
I14100000
sS'https://www.cardekho.com/overview/Mercedes-Benz_S-Class/Mercedes-Benz_S-Class_S_63_AMG.htm'
p24
I25200000
sS'https://www.cardekho.com/overview/Volvo_S60/Volvo_S60_T6.htm'
p25
I4475000
sS'https://www.cardekho.com/overview/Mercedes-Benz_E-Class/Mercedes-Benz_E-Class_E_63_AMG.htm'
p26
I13100000
sS'https://www.cardekho.com/overview/Jaguar_XJ/Jaguar_XJ_3.0L_Premium_Luxury.htm'
p27
I10100000
sS'https://www.cardekho.com/overview/Jaguar_XJ/Jaguar_XJ_2.0L_Portfolio.htm'
p28
I10200000
sS'https://www.cardekho.com/overview/Maserati_Quattroporte/Maserati_Quattroporte_GTS.htm'
p29
I21800000
sS'https://www.cardekho.com/overview/Mercedes-Benz_New_C-Class/Mercedes-Benz_New_C-Class_C_220_CDI_Style.htm'
p30
I4034000
sS'https://www.cardekho.com/overview/Maserati_Quattroporte/Maserati_Quattroporte_Diesel.htm'
p31
I15000000
sS'https://www.cardekho.com/overview/Jaguar_XF/Jaguar_XF_2.0_Petrol_Prestige.htm'
p32
I6442000
sS'https://www.cardekho.com/overview/Porsche_Panamera/Porsche_Panamera_Turbo.htm'
p33
I20099999
sS'https://www.cardekho.com/overview/Volvo_S_80/Volvo_S_80_D4.htm'
p34
I4662000
sS'https://www.cardekho.com/overview/Porsche_Panamera/Porsche_Panamera_GTS.htm'
p35
I16100000
sS'https://www.cardekho.com/overview/Audi_A8/Audi_A8_L_Security.htm'
p36
I93699999
sS'https://www.cardekho.com/overview/BMW_7_Series/BMW_7_Series_750Li_M_Sport_CBU.htm'
p37
I15500000
sS'https://www.cardekho.com/overview/Mercedes-Benz_E-Class/Mercedes-Benz_E-Class_E_200_CGI.htm'
p38
I5188000
sS'https://www.cardekho.com/overview/BMW_7_Series/BMW_7_Series_730Ld_Design_Pure_Excellence.htm'
p39
I11399999
sS'https://www.cardekho.com/overview/Mercedes-Benz_S-Class/Mercedes-Benz_S-Class_Maybach_S600.htm'
p40
I26500000
sS'https://www.cardekho.com/overview/Aston_Martin_Rapide/Aston_Martin_Rapide_S_V12.htm'
p41
I32900000
sS'https://www.cardekho.com/overview/Mercedes-Benz_S-Class/Mercedes-Benz_S-Class_S_350_CDI.htm'
p42
I11900000
sS'https://www.cardekho.com/overview/Jaguar_XJ/Jaguar_XJ_3.0L_Portfolio.htm'
p43
I10800000
sS'https://www.cardekho.com/overview/BMW_M_Series/BMW_M_Series_M3_Sedan.htm'
p44
I12600000
sS'https://www.cardekho.com/overview/Bentley_Flying_Spur/Bentley_Flying_Spur_V8.htm'
p45
I32200000
sS'https://www.cardekho.com/overview/Mercedes-Benz_E-Class/Mercedes-Benz_E-Class_E200_Edition_E.htm'
p46
I5188000
sS'https://www.cardekho.com/overview/Audi_A8/Audi_A8_L_60_TDI_Quattro.htm'
p47
I13600000
sS'https://www.cardekho.com/overview/BMW_M_Series/BMW_M_Series_M4_Coupe.htm'
p48
I12800000
sS'https://www.cardekho.com/overview/Jaguar_XE/Jaguar_XE_Prestige.htm'
p49
I4491000
sS'https://www.cardekho.com/overview/Mercedes-Benz_New_C-Class/Mercedes-Benz_New_C-Class_C_63_S_AMG.htm'
p50
I13200000
sS'https://www.cardekho.com/overview/Porsche_Panamera/Porsche_Panamera_Diesel_250hp.htm'
p51
I11500000
sS'https://www.cardekho.com/overview/Rolls-Royce_Phantom/Rolls-Royce_Phantom_Coupe.htm'
p52
I40000000
sS'https://www.cardekho.com/overview/BMW_5_Series/BMW_5_Series_520d_Luxury_Line.htm'
p53
I5400000
sS'https://www.cardekho.com/overview/BMW_M_Series/BMW_M_Series_M6_Gran_Coupe.htm'
p54
I17700000
sS'https://www.cardekho.com/overview/Mercedes-Benz_E-Class/Mercedes-Benz_E-Class_E400_Cabriolet.htm'
p55
I8168000
sS'https://www.cardekho.com/overview/Porsche_Panamera/Porsche_Panamera_Turbo_S.htm'
p56
I23400000
sS'https://www.cardekho.com/overview/Audi_S5/Audi_S5_Sportback.htm'
p57
I6434000
sS'https://www.cardekho.com/overview/Volvo_S60/Volvo_S60_D4_KINETIC.htm'
p58
I3361999
sS'https://www.cardekho.com/overview/Mercedes-Benz_New_C-Class/Mercedes-Benz_New_C-Class_C_220_CDI_Avantgarde.htm'
p59
I4315000
sS'https://www.cardekho.com/overview/Bentley_Flying_Spur/Bentley_Flying_Spur_W12.htm'
p60
I34100000
sS'https://www.cardekho.com/overview/Audi_RS6/Audi_RS6_4.0_TFSI.htm'
p61
I13799999
sS'https://www.cardekho.com/overview/Rolls-Royce_Phantom/Rolls-Royce_Phantom_Phantom.htm'
p62
I80000000
sS'https://www.cardekho.com/overview/Rolls-Royce_Phantom/Rolls-Royce_Phantom_Drophead_Coupe.htm'
p63
I40000000
sS'https://www.cardekho.com/overview/Audi_A4/Audi_A4_30_TFSI_Technology.htm'
p64
I4217000
sS'https://www.cardekho.com/overview/BMW_5_Series/BMW_5_Series_530d_M_Sport.htm'
p65
I6200000
sS'https://www.cardekho.com/overview/Volvo_S60/Volvo_S60_D4_Momentum.htm'
p66
I3913000
sS'https://www.cardekho.com/overview/BMW_3_Series/BMW_3_Series_320i_Prestige.htm'
p67
I3690000
sS'https://www.cardekho.com/overview/Porsche_Panamera/Porsche_Panamera_4.htm'
p68
I12300000
sS'https://www.cardekho.com/overview/BMW_3_Series/BMW_3_Series_320d.htm'
p69
I3690000
sS'https://www.cardekho.com/overview/Audi_A8/Audi_A8_L_50_TDI_Quattro.htm'
p70
I12000000
sS'https://www.cardekho.com/overview/Rolls-Royce_Phantom/Rolls-Royce_Phantom_Extended_Wheelbase.htm'
p71
I82500000
sS'https://www.cardekho.com/overview/BMW_3_Series/BMW_3_Series_320d_Sport.htm'
p72
I4270000
sS'https://www.cardekho.com/overview/Mercedes-Benz_S-Class/Mercedes-Benz_S-Class_S_500_Coupe.htm'
p73
I20900000
sS'https://www.cardekho.com/overview/BMW_7_Series/BMW_7_Series_730Ld_Design_Pure_Excellence_CBU.htm'
p74
I14400000
sS'https://www.cardekho.com/overview/Audi_A6/Audi_A6_35_TFSI_Matrix.htm'
p75
I5355000
sS'https://www.cardekho.com/overview/BMW_7_Series/BMW_7_Series_730Ld_M_Sport.htm'
p76
I12300000
sS'https://www.cardekho.com/overview/Volvo_S60_Cross_Country/Volvo_S60_Cross_Country_D4_AWD.htm'
p77
I4068000
sS'https://www.cardekho.com/overview/Mercedes-Benz_S-Class/Mercedes-Benz_S-Class_S_63_AMG_Coupe.htm'
p78
I26700000
sS'https://www.cardekho.com/overview/Mercedes-Benz_E-Class/Mercedes-Benz_E-Class_E250_Edition_E.htm'
p79
I5419000
sS'https://www.cardekho.com/overview/BMW_6_Series/BMW_6_Series_640d_Eminence.htm'
p80
I11500000
sS'https://www.cardekho.com/overview/BMW_5_Series/BMW_5_Series_520i_Luxury_Line.htm'
p81
I5400000
sS'https://www.cardekho.com/overview/Porsche_Panamera/Porsche_Panamera_Diesel.htm'
p82
I12300000
sS'https://www.cardekho.com/overview/BMW_3_Series/BMW_3_Series_320d_Luxury_Line.htm'
p83
I4270000
sS'https://www.cardekho.com/overview/BMW_3_Series/BMW_3_Series_320i_Luxury_Line.htm'
p84
I4270000
sS'https://www.cardekho.com/overview/Maserati_Ghibli/Maserati_Ghibli_Diesel.htm'
p85
I11200000
sS'https://www.cardekho.com/overview/Audi_A4/Audi_A4_30_TFSI_Premium_Plus.htm'
p86
I3902000
sS'https://www.cardekho.com/overview/BMW_5_Series/BMW_5_Series_520d_Prestige_Plus.htm'
p87
I5050000
sS'https://www.cardekho.com/overview/BMW_3_Series/BMW_3_Series_320d_M_Sport.htm'
p88
I4590000
sS'https://www.cardekho.com/overview/Rolls-Royce_Ghost/Rolls-Royce_Ghost_Series_II_Extended_Wheelbase.htm'
p89
I30500000
sS'https://www.cardekho.com/overview/Mercedes-Benz_E-Class/Mercedes-Benz_E-Class_E350_Edition_E.htm'
p90
I6470000
sS'https://www.cardekho.com/overview/Mercedes-Benz_S-Class/Mercedes-Benz_S-Class_Maybach_S500.htm'
p91
I17300000
sS'https://www.cardekho.com/overview/BMW_7_Series/BMW_7_Series_750Li_Design_Pure_Excellence_CBU.htm'
p92
I16000000
sS'https://www.cardekho.com/overview/Jaguar_XF/Jaguar_XF_R_Supercharged_5.0_Litre_V8_Petrol.htm'
p93
I7420999
sS'https://www.cardekho.com/overview/Audi_A8/Audi_A8_L_W12_quattro.htm'
p94
I18500000
sS'https://www.cardekho.com/overview/Audi_RS7/Audi_RS7_Sportback.htm'
p95
I14300000
sS'https://www.cardekho.com/overview/Audi_A6/Audi_A6_35_TDI.htm'
p96
I5355000
sS'https://www.cardekho.com/overview/BMW_5_Series/BMW_5_Series_520d_M_Sport.htm'
p97
I5400000
sS'https://www.cardekho.com/overview/Mercedes-Benz_S-Class/Mercedes-Benz_S-Class_Maybach_S600_Guard.htm'
p98
I112500000
sS'https://www.cardekho.com/overview/Mercedes-Benz_New_C-Class/Mercedes-Benz_New_C-Class_C_200_CGI.htm'
p99
I4214000
s.