(dp0
S'https://www.cardekho.com/overview/Mercedes-Benz_S-Class/Mercedes-Benz_S-Class_S_Guard.htm'
p1
V9.06 Cr
p2
sS'https://www.cardekho.com/overview/Bentley_Mulsanne/Bentley_Mulsanne_6.8.htm'
p3
V5.56 Cr
p4
sS'https://www.cardekho.com/overview/Rolls-Royce_Ghost/Rolls-Royce_Ghost_Series_II_Standard.htm'
p5
V4.5 Cr
p6
sS'https://www.cardekho.com/overview/Jaguar_XE/Jaguar_XE_Pure.htm'
p7
V41.01 Lakh
p8
sS'https://www.cardekho.com/overview/Jaguar_XF/Jaguar_XF_2.0_Diesel_Prestige.htm'
p9
V70.24 Lakh
p10
sS'https://www.cardekho.com/overview/BMW_M_Series/BMW_M_Series_X5_M.htm'
p11
V1.62 Cr
p12
sS'https://www.cardekho.com/overview/Audi_A6/Audi_A6_35_TFSI.htm'
p13
V50.8 Lakh
p14
sS'https://www.cardekho.com/overview/Audi_A8/Audi_A8_L_50_TDI_Quattro_Premium_Plus.htm'
p15
V1.17 Cr
p16
sS'https://www.cardekho.com/overview/Jaguar_XF/Jaguar_XF_2.0_Diesel_Portfolio.htm'
p17
V78.03 Lakh
p18
sS'https://www.cardekho.com/overview/BMW_6_Series/BMW_6_Series_640d_Design_Pure_Experience.htm'
p19
V1.22 Cr
p20
sS'https://www.cardekho.com/overview/BMW_M_Series/BMW_M_Series_X6_M.htm'
p21
V1.66 Cr
p22
sS'https://www.cardekho.com/overview/Jaguar_XF/Jaguar_XF_2.0_Diesel_Pure.htm'
p23
V53.45 Lakh
p24
sS'https://www.cardekho.com/overview/Mercedes-Benz_E-Class/Mercedes-Benz_E-Class_E350_CDI_Avantgrade.htm'
p25
V60.96 Lakh
p26
sS'https://www.cardekho.com/overview/Volvo_S60/Volvo_S60_D5_Inscription.htm'
p27
V42.43 Lakh
p28
sS'https://www.cardekho.com/overview/Mercedes-Benz_CLS-Class/Mercedes-Benz_CLS-Class_250_CDI.htm'
p29
V77.86 Lakh
p30
sS'https://www.cardekho.com/overview/Jaguar_XE/Jaguar_XE_Portfolio.htm'
p31
V49.33 Lakh
p32
sS'https://www.cardekho.com/overview/Jaguar_XF/Jaguar_XF_2.0_Petrol_Portfolio.htm'
p33
V65.2 Lakh
p34
sS'https://www.cardekho.com/overview/Volvo_S_80/Volvo_S_80_D5.htm'
p35
V50.6 Lakh
p36
sS'https://www.cardekho.com/overview/Porsche_Panamera/Porsche_Panamera_Base.htm'
p37
V1.2 Cr
p38
sS'https://www.cardekho.com/overview/Mercedes-Benz_E-Class/Mercedes-Benz_E-Class_E250_CDI_Avantgarde.htm'
p39
V52.08 Lakh
p40
sS'https://www.cardekho.com/overview/Mercedes-Benz_S-Class/Mercedes-Benz_S-Class_S400.htm'
p41
V1.31 Cr
p42
sS'https://www.cardekho.com/overview/Jaguar_XJ/Jaguar_XJ_3.0L_Premium_Luxury.htm'
p43
V1.01 Cr
p44
sS'https://www.cardekho.com/overview/Audi_A8/Audi_A8_L_60_TFSI_Quattro.htm'
p45
V1.41 Cr
p46
sS'https://www.cardekho.com/overview/Mercedes-Benz_S-Class/Mercedes-Benz_S-Class_S_63_AMG.htm'
p47
V2.52 Cr
p48
sS'https://www.cardekho.com/overview/Volvo_S60/Volvo_S60_T6.htm'
p49
V44.75 Lakh
p50
sS'https://www.cardekho.com/overview/Mercedes-Benz_E-Class/Mercedes-Benz_E-Class_E_63_AMG.htm'
p51
V1.31 Cr
p52
sS'https://www.cardekho.com/overview/BMW_M_Series/BMW_M_Series_M5_Sedan.htm'
p53
V1.36 Cr
p54
sS'https://www.cardekho.com/overview/Jaguar_XJ/Jaguar_XJ_2.0L_Portfolio.htm'
p55
V1.02 Cr
p56
sS'https://www.cardekho.com/overview/Maserati_Quattroporte/Maserati_Quattroporte_GTS.htm'
p57
V2.18 Cr
p58
sS'https://www.cardekho.com/overview/Mercedes-Benz_New_C-Class/Mercedes-Benz_New_C-Class_C_220_CDI_Style.htm'
p59
V40.34 Lakh
p60
sS'https://www.cardekho.com/overview/Maserati_Quattroporte/Maserati_Quattroporte_Diesel.htm'
p61
V1.5 Cr
p62
sS'https://www.cardekho.com/overview/Jaguar_XF/Jaguar_XF_2.0_Petrol_Prestige.htm'
p63
V64.42 Lakh
p64
sS'https://www.cardekho.com/overview/Porsche_Panamera/Porsche_Panamera_Turbo.htm'
p65
V2.01 Cr
p66
sS'https://www.cardekho.com/overview/Volvo_S_80/Volvo_S_80_D4.htm'
p67
V46.62 Lakh
p68
sS'https://www.cardekho.com/overview/Porsche_Panamera/Porsche_Panamera_GTS.htm'
p69
V1.61 Cr
p70
sS'https://www.cardekho.com/overview/Audi_A8/Audi_A8_L_Security.htm'
p71
V9.37 Cr
p72
sS'https://www.cardekho.com/overview/BMW_7_Series/BMW_7_Series_750Li_M_Sport_CBU.htm'
p73
V1.55 Cr
p74
sS'https://www.cardekho.com/overview/Mercedes-Benz_E-Class/Mercedes-Benz_E-Class_E_200_CGI.htm'
p75
V51.88 Lakh
p76
sS'https://www.cardekho.com/overview/BMW_7_Series/BMW_7_Series_730Ld_Design_Pure_Excellence.htm'
p77
V1.14 Cr
p78
sS'https://www.cardekho.com/overview/Mercedes-Benz_S-Class/Mercedes-Benz_S-Class_Maybach_S600.htm'
p79
V2.65 Cr
p80
sS'https://www.cardekho.com/overview/Aston_Martin_Rapide/Aston_Martin_Rapide_S_V12.htm'
p81
V3.29 Cr
p82
sS'https://www.cardekho.com/overview/Mercedes-Benz_S-Class/Mercedes-Benz_S-Class_S_350_CDI.htm'
p83
V1.19 Cr
p84
sS'https://www.cardekho.com/overview/Jaguar_XJ/Jaguar_XJ_3.0L_Portfolio.htm'
p85
V1.08 Cr
p86
sS'https://www.cardekho.com/overview/BMW_M_Series/BMW_M_Series_M3_Sedan.htm'
p87
V1.26 Cr
p88
sS'https://www.cardekho.com/overview/Bentley_Flying_Spur/Bentley_Flying_Spur_V8.htm'
p89
V3.22 Cr
p90
sS'https://www.cardekho.com/overview/Mercedes-Benz_E-Class/Mercedes-Benz_E-Class_E200_Edition_E.htm'
p91
V51.88 Lakh
p92
sS'https://www.cardekho.com/overview/Audi_A8/Audi_A8_L_60_TDI_Quattro.htm'
p93
V1.36 Cr
p94
sS'https://www.cardekho.com/overview/BMW_M_Series/BMW_M_Series_M4_Coupe.htm'
p95
V1.28 Cr
p96
sS'https://www.cardekho.com/overview/Jaguar_XE/Jaguar_XE_Prestige.htm'
p97
V44.91 Lakh
p98
sS'https://www.cardekho.com/overview/Mercedes-Benz_New_C-Class/Mercedes-Benz_New_C-Class_C_63_S_AMG.htm'
p99
V1.32 Cr
p100
sS'https://www.cardekho.com/overview/Porsche_Panamera/Porsche_Panamera_Diesel_250hp.htm'
p101
V1.15 Cr
p102
sS'https://www.cardekho.com/overview/Rolls-Royce_Phantom/Rolls-Royce_Phantom_Coupe.htm'
p103
V4.0 Cr
p104
sS'https://www.cardekho.com/overview/BMW_5_Series/BMW_5_Series_520d_Luxury_Line.htm'
p105
V54.0 Lakh
p106
sS'https://www.cardekho.com/overview/BMW_M_Series/BMW_M_Series_M6_Gran_Coupe.htm'
p107
V1.77 Cr
p108
sS'https://www.cardekho.com/overview/Mercedes-Benz_E-Class/Mercedes-Benz_E-Class_E400_Cabriolet.htm'
p109
V81.68 Lakh
p110
sS'https://www.cardekho.com/overview/Porsche_Panamera/Porsche_Panamera_Turbo_S.htm'
p111
V2.34 Cr
p112
sS'https://www.cardekho.com/overview/Audi_S5/Audi_S5_Sportback.htm'
p113
V64.34 Lakh
p114
sS'https://www.cardekho.com/overview/Volvo_S60/Volvo_S60_D4_KINETIC.htm'
p115
V33.62 Lakh
p116
sS'https://www.cardekho.com/overview/Mercedes-Benz_New_C-Class/Mercedes-Benz_New_C-Class_C_220_CDI_Avantgarde.htm'
p117
V43.15 Lakh
p118
sS'https://www.cardekho.com/overview/Bentley_Flying_Spur/Bentley_Flying_Spur_W12.htm'
p119
V3.41 Cr
p120
sS'https://www.cardekho.com/overview/Audi_RS6/Audi_RS6_4.0_TFSI.htm'
p121
V1.38 Cr
p122
sS'https://www.cardekho.com/overview/Rolls-Royce_Phantom/Rolls-Royce_Phantom_Phantom.htm'
p123
V8.0 Cr
p124
sS'https://www.cardekho.com/overview/Rolls-Royce_Phantom/Rolls-Royce_Phantom_Drophead_Coupe.htm'
p125
V4.0 Cr
p126
sS'https://www.cardekho.com/overview/Audi_A4/Audi_A4_30_TFSI_Technology.htm'
p127
V42.17 Lakh
p128
sS'https://www.cardekho.com/overview/BMW_5_Series/BMW_5_Series_530d_M_Sport.htm'
p129
V62.0 Lakh
p130
sS'https://www.cardekho.com/overview/Volvo_S60/Volvo_S60_D4_Momentum.htm'
p131
V39.13 Lakh
p132
sS'https://www.cardekho.com/overview/BMW_3_Series/BMW_3_Series_320i_Prestige.htm'
p133
V36.9 Lakh
p134
sS'https://www.cardekho.com/overview/Porsche_Panamera/Porsche_Panamera_4.htm'
p135
V1.23 Cr
p136
sS'https://www.cardekho.com/overview/BMW_3_Series/BMW_3_Series_320d.htm'
p137
V36.9 Lakh
p138
sS'https://www.cardekho.com/overview/Audi_A8/Audi_A8_L_50_TDI_Quattro.htm'
p139
V1.2 Cr
p140
sS'https://www.cardekho.com/overview/Rolls-Royce_Phantom/Rolls-Royce_Phantom_Extended_Wheelbase.htm'
p141
V8.25 Cr
p142
sS'https://www.cardekho.com/overview/BMW_3_Series/BMW_3_Series_320d_Sport.htm'
p143
V42.7 Lakh
p144
sS'https://www.cardekho.com/overview/Mercedes-Benz_S-Class/Mercedes-Benz_S-Class_S_500_Coupe.htm'
p145
V2.09 Cr
p146
sS'https://www.cardekho.com/overview/BMW_7_Series/BMW_7_Series_730Ld_Design_Pure_Excellence_CBU.htm'
p147
V1.44 Cr
p148
sS'https://www.cardekho.com/overview/Audi_A6/Audi_A6_35_TFSI_Matrix.htm'
p149
V53.55 Lakh
p150
sS'https://www.cardekho.com/overview/BMW_7_Series/BMW_7_Series_730Ld_M_Sport.htm'
p151
V1.23 Cr
p152
sS'https://www.cardekho.com/overview/Volvo_S60_Cross_Country/Volvo_S60_Cross_Country_D4_AWD.htm'
p153
V40.68 Lakh
p154
sS'https://www.cardekho.com/overview/Mercedes-Benz_S-Class/Mercedes-Benz_S-Class_S_63_AMG_Coupe.htm'
p155
V2.67 Cr
p156
sS'https://www.cardekho.com/overview/Mercedes-Benz_E-Class/Mercedes-Benz_E-Class_E250_Edition_E.htm'
p157
V54.19 Lakh
p158
sS'https://www.cardekho.com/overview/BMW_6_Series/BMW_6_Series_640d_Eminence.htm'
p159
V1.15 Cr
p160
sS'https://www.cardekho.com/overview/BMW_5_Series/BMW_5_Series_520i_Luxury_Line.htm'
p161
V54.0 Lakh
p162
sS'https://www.cardekho.com/overview/Porsche_Panamera/Porsche_Panamera_Diesel.htm'
p163
V1.23 Cr
p164
sS'https://www.cardekho.com/overview/BMW_3_Series/BMW_3_Series_320d_Luxury_Line.htm'
p165
V42.7 Lakh
p166
sS'https://www.cardekho.com/overview/BMW_3_Series/BMW_3_Series_320i_Luxury_Line.htm'
p167
V42.7 Lakh
p168
sS'https://www.cardekho.com/overview/Maserati_Ghibli/Maserati_Ghibli_Diesel.htm'
p169
V1.12 Cr
p170
sS'https://www.cardekho.com/overview/Audi_A4/Audi_A4_30_TFSI_Premium_Plus.htm'
p171
V39.02 Lakh
p172
sS'https://www.cardekho.com/overview/BMW_5_Series/BMW_5_Series_520d_Prestige_Plus.htm'
p173
V50.5 Lakh
p174
sS'https://www.cardekho.com/overview/BMW_3_Series/BMW_3_Series_320d_M_Sport.htm'
p175
V45.9 Lakh
p176
sS'https://www.cardekho.com/overview/Rolls-Royce_Ghost/Rolls-Royce_Ghost_Series_II_Extended_Wheelbase.htm'
p177
V3.05 Cr
p178
sS'https://www.cardekho.com/overview/Mercedes-Benz_E-Class/Mercedes-Benz_E-Class_E350_Edition_E.htm'
p179
V64.7 Lakh
p180
sS'https://www.cardekho.com/overview/Mercedes-Benz_S-Class/Mercedes-Benz_S-Class_Maybach_S500.htm'
p181
V1.73 Cr
p182
sS'https://www.cardekho.com/overview/BMW_7_Series/BMW_7_Series_750Li_Design_Pure_Excellence_CBU.htm'
p183
V1.6 Cr
p184
sS'https://www.cardekho.com/overview/Jaguar_XF/Jaguar_XF_R_Supercharged_5.0_Litre_V8_Petrol.htm'
p185
V74.21 Lakh
p186
sS'https://www.cardekho.com/overview/Audi_A8/Audi_A8_L_W12_quattro.htm'
p187
V1.85 Cr
p188
sS'https://www.cardekho.com/overview/Audi_RS7/Audi_RS7_Sportback.htm'
p189
V1.43 Cr
p190
sS'https://www.cardekho.com/overview/Audi_A6/Audi_A6_35_TDI.htm'
p191
V53.55 Lakh
p192
sS'https://www.cardekho.com/overview/BMW_5_Series/BMW_5_Series_520d_M_Sport.htm'
p193
V54.0 Lakh
p194
sS'https://www.cardekho.com/overview/Mercedes-Benz_S-Class/Mercedes-Benz_S-Class_Maybach_S600_Guard.htm'
p195
V11.25 Cr
p196
sS'https://www.cardekho.com/overview/Mercedes-Benz_New_C-Class/Mercedes-Benz_New_C-Class_C_200_CGI.htm'
p197
V42.14 Lakh
p198
s.