(dp0
S'https://www.cardekho.com/overview/Renault_KWID/Renault_KWID_RXE.htm'
p1
I320000
sS'https://www.cardekho.com/overview/Hyundai_Grand_i10/Hyundai_Grand_i10_CRDi_Sportz.htm'
p2
I652000
sS'https://www.cardekho.com/overview/Maruti_Alto_800/Maruti_Alto_800_Std_Optional.htm'
p3
I267000
sS'https://www.cardekho.com/overview/Renault_KWID/Renault_KWID_STD.htm'
p4
I279000
sS'https://www.cardekho.com/overview/Hyundai_Grand_i10/Hyundai_Grand_i10_Magna_AT.htm'
p5
I608000
sS'https://www.cardekho.com/overview/Mini_5_DOOR/Mini_5_DOOR_Cooper_D.htm'
p6
I3190000
sS'https://www.cardekho.com/overview/Fiat_500/Fiat_500_Abarth_595_Competizione.htm'
p7
I3040000
sS'https://www.cardekho.com/overview/Maruti_Celerio/Maruti_Celerio_LXI_AT_Optional.htm'
p8
I484000
sS'https://www.cardekho.com/overview/Hyundai_Grand_i10/Hyundai_Grand_i10_Asta_Option.htm'
p9
I622000
sS'https://www.cardekho.com/overview/Ford_Figo/Ford_Figo_1.5D_Trend_MT.htm'
p10
I645000
sS'https://www.cardekho.com/overview/Datsun_RediGO/Datsun_RediGO_S.htm'
p11
I337000
sS'https://www.cardekho.com/overview/Maruti_Alto_800/Maruti_Alto_800_CNG_LXI_Optional.htm'
p12
I390000
sS'https://www.cardekho.com/overview/Maruti_Celerio/Maruti_Celerio_ZXI.htm'
p13
I472000
sS'https://www.cardekho.com/overview/Hyundai_i20_Active/Hyundai_i20_Active_1.4.htm'
p14
I819999
sS'https://www.cardekho.com/overview/Maruti_Swift/Maruti_Swift_LXI.htm'
p15
I490000
sS'https://www.cardekho.com/overview/Chevrolet_Sail_Hatchback/Chevrolet_Sail_Hatchback_1.3_TCDi_LS_ABS.htm'
p16
I673000
sS'https://www.cardekho.com/overview/Maruti_Baleno/Maruti_Baleno_1.2_CVT_Delta.htm'
p17
I718000
sS'https://www.cardekho.com/overview/Maruti_Celerio/Maruti_Celerio_VDi.htm'
p18
I521000
sS'https://www.cardekho.com/overview/Ford_Figo/Ford_Figo_1.2P_Ambiente_MT.htm'
p19
I492000
sS'https://www.cardekho.com/overview/Toyota_Etios_Cross/Toyota_Etios_Cross_1.2L_G.htm'
p20
I667000
sS'https://www.cardekho.com/overview/Chevrolet_Sail_Hatchback/Chevrolet_Sail_Hatchback_1.2_LS_ABS.htm'
p21
I563000
sS'https://www.cardekho.com/overview/Maruti_Celerio/Maruti_Celerio_ZXI_AT_Optional.htm'
p22
I533000
sS'https://www.cardekho.com/overview/Maruti_Alto_K10/Maruti_Alto_K10_LXI.htm'
p23
I360000
sS'https://www.cardekho.com/overview/Hyundai_i20/Hyundai_i20_Magna_1.2.htm'
p24
I629000
sS'https://www.cardekho.com/overview/Hyundai_i20/Hyundai_i20_Asta_Option_1.4_CRDi.htm'
p25
I917000
sS'https://www.cardekho.com/overview/Hyundai_Grand_i10/Hyundai_Grand_i10_CRDi_Magna.htm'
p26
I619000
sS'https://www.cardekho.com/overview/Maruti_Wagon_R_Stingray/Maruti_Wagon_R_Stingray_VXI_Optional.htm'
p27
I501999
sS'https://www.cardekho.com/overview/Hyundai_EON/Hyundai_EON_Magna_Plus.htm'
p28
I401999
sS'https://www.cardekho.com/overview/Fiat_Punto_Pure/Fiat_Punto_Pure_1.3L_Advanced_Multi-Jet.htm'
p29
I591000
sS'https://www.cardekho.com/overview/Honda_Jazz/Honda_Jazz_1.2_S_AT_i_VTEC.htm'
p30
I754000
sS'https://www.cardekho.com/overview/Toyota_Etios_Cross/Toyota_Etios_Cross_1.4L_GD.htm'
p31
I784000
sS'https://www.cardekho.com/overview/Hyundai_EON/Hyundai_EON_Sportz.htm'
p32
I430999
sS'https://www.cardekho.com/overview/Fiat_Avventura/Fiat_Avventura_Power_Up_1.3_Active.htm'
p33
I806000
sS'https://www.cardekho.com/overview/Volkswagen_Polo/Volkswagen_Polo_1.5_TDI_Trendline.htm'
p34
I704000
sS'https://www.cardekho.com/overview/Maruti_Celerio/Maruti_Celerio_VXI_AT.htm'
p35
I488999
sS'https://www.cardekho.com/overview/Maruti_Wagon_R/Maruti_Wagon_R_LXI_CNG_Optional.htm'
p36
I503000
sS'https://www.cardekho.com/overview/Maruti_Swift/Maruti_Swift_VXI_Deca.htm'
p37
I548000
sS'https://www.cardekho.com/overview/Hyundai_Grand_i10/Hyundai_Grand_i10_CRDi_Sportz_Celebration_Edition.htm'
p38
I676000
sS'https://www.cardekho.com/overview/Maruti_Baleno/Maruti_Baleno_1.2_Alpha.htm'
p39
I744000
sS'https://www.cardekho.com/overview/Nissan_Micra/Nissan_Micra_Diesel_XL_Optional.htm'
p40
I702000
sS'https://www.cardekho.com/overview/Volkswagen_Polo/Volkswagen_Polo_GT_TSI.htm'
p41
I914000
sS'https://www.cardekho.com/overview/Datsun_RediGO/Datsun_RediGO_T.htm'
p42
I312000
sS'https://www.cardekho.com/overview/Maruti_Ritz/Maruti_Ritz_VDi.htm'
p43
I618000
sS'https://www.cardekho.com/overview/Volkswagen_Beetle/Volkswagen_Beetle_1.4_TSI.htm'
p44
I3086000
sS'https://www.cardekho.com/overview/Maruti_Wagon_R_Stingray/Maruti_Wagon_R_Stingray_LXI_Optional.htm'
p45
I478000
sS'https://www.cardekho.com/overview/Volkswagen_Polo/Volkswagen_Polo_1.5_TDI_Highline.htm'
p46
I857000
sS'https://www.cardekho.com/overview/Hyundai_EON/Hyundai_EON_Era_Plus_Option.htm'
p47
I384000
sS'https://www.cardekho.com/overview/Maruti_Celerio/Maruti_Celerio_LDi.htm'
p48
I495000
sS'https://www.cardekho.com/overview/Ford_Figo/Ford_Figo_1.2P_Base_MT.htm'
p49
I462000
sS'https://www.cardekho.com/overview/Mahindra_Verito_Vibe/Mahindra_Verito_Vibe_1.5_dCi_D6.htm'
p50
I747000
sS'https://www.cardekho.com/overview/Ford_Figo/Ford_Figo_1.2P_Trend_MT.htm'
p51
I534000
sS'https://www.cardekho.com/overview/Honda_Jazz/Honda_Jazz_1.2_SV_i_VTEC.htm'
p52
I700000
sS'https://www.cardekho.com/overview/Volvo_V40/Volvo_V40_D3.htm'
p53
I2519000
sS'https://www.cardekho.com/overview/Tata_Tiago/Tata_Tiago_1.2_Revotron_XB.htm'
p54
I337000
sS'https://www.cardekho.com/overview/Tata_Tiago/Tata_Tiago_1.05_Revotorq_XE.htm'
p55
I454000
sS'https://www.cardekho.com/overview/Volkswagen_Polo/Volkswagen_Polo_1.2_MPI_Highline.htm'
p56
I706000
sS'https://www.cardekho.com/overview/Maruti_Wagon_R/Maruti_Wagon_R_VXI_BS_IV.htm'
p57
I449000
sS'https://www.cardekho.com/overview/Hyundai_Grand_i10/Hyundai_Grand_i10_CRDi_Era.htm'
p58
I590000
sS'https://www.cardekho.com/overview/Hyundai_Grand_i10/Hyundai_Grand_i10_CRDi_Asta_Option.htm'
p59
I714000
sS'https://www.cardekho.com/overview/Maruti_Celerio/Maruti_Celerio_LXI_Optional.htm'
p60
I434999
sS'https://www.cardekho.com/overview/Honda_Jazz/Honda_Jazz_1.5_S_i_DTEC.htm'
p61
I782000
sS'https://www.cardekho.com/overview/Chevrolet_Sail_Hatchback/Chevrolet_Sail_Hatchback_1.2_LS.htm'
p62
I539000
sS'https://www.cardekho.com/overview/Maruti_Celerio/Maruti_Celerio_VDI_Optional.htm'
p63
I542000
sS'https://www.cardekho.com/overview/Maruti_Alto_K10/Maruti_Alto_K10_VXI.htm'
p64
I377000
sS'https://www.cardekho.com/overview/Renault_Pulse/Renault_Pulse_Petrol_RxL.htm'
p65
I509000
sS'https://www.cardekho.com/overview/Honda_Jazz/Honda_Jazz_1.2_VX_i_VTEC.htm'
p66
I786000
sS'https://www.cardekho.com/overview/Maruti_Alto_K10/Maruti_Alto_K10_VXI_AMT.htm'
p67
I424000
sS'https://www.cardekho.com/overview/Maruti_Celerio/Maruti_Celerio_ZXI_Optional.htm'
p68
I519000
sS'https://www.cardekho.com/overview/Hyundai_i20/Hyundai_i20_Era_1.4_CRDi.htm'
p69
I693000
sS'https://www.cardekho.com/overview/Maruti_Swift/Maruti_Swift_LDI_Optional.htm'
p70
I636000
sS'https://www.cardekho.com/overview/Hyundai_Grand_i10/Hyundai_Grand_i10_Asta_Option_AT.htm'
p71
I698000
sS'https://www.cardekho.com/overview/Maruti_Ritz/Maruti_Ritz_LXi.htm'
p72
I449000
sS'https://www.cardekho.com/overview/Renault_KWID/Renault_KWID_1.0_RXT_Optional.htm'
p73
I413000
sS'https://www.cardekho.com/overview/Hyundai_i20_Active/Hyundai_i20_Active_1.2_SX_with_AVN.htm'
p74
I847000
sS'https://www.cardekho.com/overview/Maruti_Ritz/Maruti_Ritz_VXi_(ABS)_BS_IV.htm'
p75
I531000
sS'https://www.cardekho.com/overview/Honda_Brio/Honda_Brio_1.2_VX_MT.htm'
p76
I610000
sS'https://www.cardekho.com/overview/Tata_Tiago/Tata_Tiago_1.2_Revotron_XM_Option.htm'
p77
I433000
sS'https://www.cardekho.com/overview/Honda_Brio/Honda_Brio_1.2_S_MT.htm'
p78
I533000
sS'https://www.cardekho.com/overview/Tata_Tiago/Tata_Tiago_1.2_Revotron_XE.htm'
p79
I383000
sS'https://www.cardekho.com/overview/Honda_Brio/Honda_Brio_1.2_E_MT.htm'
p80
I482000
sS'https://www.cardekho.com/overview/Maruti_Swift/Maruti_Swift_VXI.htm'
p81
I560000
sS'https://www.cardekho.com/overview/Tata_Indica_V2/Tata_Indica_V2_eLX.htm'
p82
I546000
sS'https://www.cardekho.com/overview/Maruti_Celerio/Maruti_Celerio_VXI_AT_Optional.htm'
p83
I509999
sS'https://www.cardekho.com/overview/Maruti_Celerio/Maruti_Celerio_Green_VXI.htm'
p84
I508000
sS'https://www.cardekho.com/overview/Hyundai_EON/Hyundai_EON_1.0_Kappa_Magna_Plus_Optional.htm'
p85
I449000
sS'https://www.cardekho.com/overview/Mahindra_e2o/Mahindra_e2o_T2.htm'
p86
I677000
sS'https://www.cardekho.com/overview/Fiat_Abarth_Avventura/Fiat_Abarth_Avventura_1.4_T-Jet.htm'
p87
I1061000
sS'https://www.cardekho.com/overview/Maruti_Swift/Maruti_Swift_VDI_BS_IV.htm'
p88
I678000
sS'https://www.cardekho.com/overview/Maruti_Alto_K10/Maruti_Alto_K10_LXI_CNG_Optional.htm'
p89
I430000
sS'https://www.cardekho.com/overview/Mahindra_Verito_Vibe/Mahindra_Verito_Vibe_1.5_dCi_D4.htm'
p90
I681000
sS'https://www.cardekho.com/overview/Volkswagen_CrossPolo/Volkswagen_CrossPolo_1.5_TDI.htm'
p91
I911999
sS'https://www.cardekho.com/overview/Datsun_GO/Datsun_GO_T.htm'
p92
I400000
sS'https://www.cardekho.com/overview/Toyota_Etios_Cross/Toyota_Etios_Cross_1.5L_V.htm'
p93
I817000
sS'https://www.cardekho.com/overview/Maruti_Swift/Maruti_Swift_LXI_Option.htm'
p94
I494000
sS'https://www.cardekho.com/overview/Maruti_Swift/Maruti_Swift_VDI_Optional.htm'
p95
I690000
sS'https://www.cardekho.com/overview/Tata_Nano/Tata_Nano_XMA.htm'
p96
I298000
sS'https://www.cardekho.com/overview/Maruti_Alto_K10/Maruti_Alto_K10_LXI_Optional.htm'
p97
I366000
sS'https://www.cardekho.com/overview/Hyundai_EON/Hyundai_EON_LPG_Magna_Plus.htm'
p98
I430999
sS'https://www.cardekho.com/overview/Maruti_Wagon_R_Stingray/Maruti_Wagon_R_Stingray_VXI.htm'
p99
I469000
sS'https://www.cardekho.com/overview/Hyundai_EON/Hyundai_EON_D_Lite.htm'
p100
I329000
sS'https://www.cardekho.com/overview/Toyota_Etios_Liva/Toyota_Etios_Liva_1.2_G.htm'
p101
I570000
sS'https://www.cardekho.com/overview/Hyundai_EON/Hyundai_EON_LPG_Era_Plus.htm'
p102
I398000
sS'https://www.cardekho.com/overview/Chevrolet_Beat/Chevrolet_Beat_Diesel_LT.htm'
p103
I621000
sS'https://www.cardekho.com/overview/Maruti_Baleno/Maruti_Baleno_1.2_CVT_Zeta.htm'
p104
I780000
sS'https://www.cardekho.com/overview/Hyundai_i20/Hyundai_i20_Asta_1.4_CRDi.htm'
p105
I864000
sS'https://www.cardekho.com/overview/Honda_Jazz/Honda_Jazz_1.5_V_i_DTEC.htm'
p106
I883000
sS'https://www.cardekho.com/overview/Chevrolet_Beat/Chevrolet_Beat_Diesel_LTZ.htm'
p107
I669000
sS'https://www.cardekho.com/overview/Maruti_Celerio/Maruti_Celerio_VXI_Optional.htm'
p108
I462000
sS'https://www.cardekho.com/overview/Maruti_Swift/Maruti_Swift_1.2_DLX.htm'
p109
I480999
sS'https://www.cardekho.com/overview/Fiat_Grande_Punto/Fiat_Grande_Punto_EVO_Power_UP_1.3_Dynamic.htm'
p110
I766000
sS'https://www.cardekho.com/overview/Maruti_Wagon_R/Maruti_Wagon_R_LXI_BS_IV.htm'
p111
I428000
sS'https://www.cardekho.com/overview/Ford_Figo/Ford_Figo_1.5D_Titanium_MT.htm'
p112
I666000
sS'https://www.cardekho.com/overview/Maruti_Alto_K10/Maruti_Alto_K10_LX.htm'
p113
I343000
sS'https://www.cardekho.com/overview/Fiat_Avventura_Urban_Cross/Fiat_Avventura_Urban_Cross_1.4_T-Jet_Emotion.htm'
p114
I985000
sS'https://www.cardekho.com/overview/Datsun_RediGO/Datsun_RediGO_Sport.htm'
p115
I352000
sS'https://www.cardekho.com/overview/Fiat_Avventura/Fiat_Avventura_Power_Up_1.3_Dynamic.htm'
p116
I891000
sS'https://www.cardekho.com/overview/Chevrolet_Beat/Chevrolet_Beat_LT.htm'
p117
I522000
sS'https://www.cardekho.com/overview/Hyundai_i20_Active/Hyundai_i20_Active_1.2.htm'
p118
I682000
sS'https://www.cardekho.com/overview/Mini_3_DOOR/Mini_3_DOOR_Cooper_D.htm'
p119
I2850000
sS'https://www.cardekho.com/overview/Maruti_Swift/Maruti_Swift_1.3_DLX.htm'
p120
I576000
sS'https://www.cardekho.com/overview/Hyundai_Grand_i10/Hyundai_Grand_i10_Magna.htm'
p121
I528000
sS'https://www.cardekho.com/overview/Hyundai_i20/Hyundai_i20_Asta_1.2.htm'
p122
I736000
sS'https://www.cardekho.com/overview/Renault_Pulse/Renault_Pulse_RxZ.htm'
p123
I701000
sS'https://www.cardekho.com/overview/Hyundai_EON/Hyundai_EON_D_Lite_Plus_Option.htm'
p124
I369000
sS'https://www.cardekho.com/overview/Hyundai_Grand_i10/Hyundai_Grand_i10_Era.htm'
p125
I500000
sS'https://www.cardekho.com/overview/Hyundai_i20/Hyundai_i20_Asta_Option_1.2.htm'
p126
I789000
sS'https://www.cardekho.com/overview/Chevrolet_Beat/Chevrolet_Beat_Diesel_PS.htm'
p127
I536000
sS'https://www.cardekho.com/overview/Maruti_Baleno/Maruti_Baleno_1.3_Delta.htm'
p128
I724000
sS'https://www.cardekho.com/overview/Tata_Tiago/Tata_Tiago_1.2_Revotron_XM.htm'
p129
I413000
sS'https://www.cardekho.com/overview/Honda_Jazz/Honda_Jazz_1.5_E_i_DTEC.htm'
p130
I712000
sS'https://www.cardekho.com/overview/Mercedes-Benz_A_Class/Mercedes-Benz_A_Class_A180_Sport.htm'
p131
I2794000
sS'https://www.cardekho.com/overview/Mahindra_Verito_Vibe/Mahindra_Verito_Vibe_1.5_dCi_D2.htm'
p132
I652000
sS'https://www.cardekho.com/overview/Maruti_Alto_800/Maruti_Alto_800_LX.htm'
p133
I296000
sS'https://www.cardekho.com/overview/Maruti_Wagon_R_Stingray/Maruti_Wagon_R_Stingray_AMT_VXI_Optional.htm'
p134
I550000
sS'https://www.cardekho.com/overview/Tata_Tiago/Tata_Tiago_1.2_Revotron_XE_Option.htm'
p135
I401999
sS'https://www.cardekho.com/overview/Hyundai_i10/Hyundai_i10_Sportz_1.1L_LPG.htm'
p136
I525000
sS'https://www.cardekho.com/overview/Fiat_Avventura_Urban_Cross/Fiat_Avventura_Urban_Cross_1.3_Multijet_Dynamic.htm'
p137
I766000
sS'https://www.cardekho.com/overview/Maruti_Wagon_R_Stingray/Maruti_Wagon_R_Stingray_LXI.htm'
p138
I444000
sS'https://www.cardekho.com/overview/Tata_Bolt/Tata_Bolt_Revotron_XM.htm'
p139
I539000
sS'https://www.cardekho.com/overview/Datsun_GO/Datsun_GO_T_Option.htm'
p140
I420000
sS'https://www.cardekho.com/overview/Maruti_Celerio/Maruti_Celerio_ZXI_AT.htm'
p141
I520000
sS'https://www.cardekho.com/overview/Maruti_Wagon_R/Maruti_Wagon_R_VXI_Optional.htm'
p142
I483000
sS'https://www.cardekho.com/overview/Honda_Jazz/Honda_Jazz_1.2_E_i_VTEC.htm'
p143
I578000
sS'https://www.cardekho.com/overview/Volkswagen_CrossPolo/Volkswagen_CrossPolo_1.2_MPI.htm'
p144
I818000
sS'https://www.cardekho.com/overview/Fiat_Punto_Abarth/Fiat_Punto_Abarth_1.4_T-Jet.htm'
p145
I999000
sS'https://www.cardekho.com/overview/Chevrolet_Spark/Chevrolet_Spark_1.0_LT.htm'
p146
I429000
sS'https://www.cardekho.com/overview/Maruti_Swift/Maruti_Swift_LDI_BSIV.htm'
p147
I615000
sS'https://www.cardekho.com/overview/Maruti_Baleno/Maruti_Baleno_1.3_Zeta.htm'
p148
I786000
sS'https://www.cardekho.com/overview/Datsun_RediGO/Datsun_RediGO_A.htm'
p149
I286000
sS'https://www.cardekho.com/overview/Hyundai_i20/Hyundai_i20_Magna_AT_1.4.htm'
p150
I919000
sS'https://www.cardekho.com/overview/Nissan_Micra_Active/Nissan_Micra_Active_XV.htm'
p151
I487000
sS'https://www.cardekho.com/overview/Maruti_Baleno/Maruti_Baleno_1.2_Zeta.htm'
p152
I672000
sS'https://www.cardekho.com/overview/Toyota_Etios_Cross/Toyota_Etios_Cross_1.4L_VD.htm'
p153
I814000
sS'https://www.cardekho.com/overview/Hyundai_EON/Hyundai_EON_Magna_Plus_Option.htm'
p154
I416000
sS'https://www.cardekho.com/overview/Tata_Tiago/Tata_Tiago_1.05_Revotorq_XT_Option.htm'
p155
I545000
sS'https://www.cardekho.com/overview/Tata_Bolt/Tata_Bolt_Quadrajet_XE.htm'
p156
I585000
sS'https://www.cardekho.com/overview/Tata_Tiago/Tata_Tiago_1.2_Revotron_XT_Option.htm'
p157
I463999
sS'https://www.cardekho.com/overview/Nissan_Micra/Nissan_Micra_Diesel_XL.htm'
p158
I648000
sS'https://www.cardekho.com/overview/Maruti_Celerio/Maruti_Celerio_LDI_Optional.htm'
p159
I516000
sS'https://www.cardekho.com/overview/Maruti_Ritz/Maruti_Ritz_ZDi.htm'
p160
I679000
sS'https://www.cardekho.com/overview/Mercedes-Benz_A_Class/Mercedes-Benz_A_Class_A200_D_Sport.htm'
p161
I2896000
sS'https://www.cardekho.com/overview/Nissan_Micra_Active/Nissan_Micra_Active_XV_S.htm'
p162
I533000
sS'https://www.cardekho.com/overview/Tata_Bolt/Tata_Bolt_Revotron_XMS.htm'
p163
I563000
sS'https://www.cardekho.com/overview/Hyundai_i20_Active/Hyundai_i20_Active_1.4_SX_with_AVN.htm'
p164
I988000
sS'https://www.cardekho.com/overview/Maruti_Alto_K10/Maruti_Alto_K10_VXI_AGS_Optional.htm'
p165
I430999
sS'https://www.cardekho.com/overview/Volkswagen_Polo/Volkswagen_Polo_GT_1.5_TDI.htm'
p166
I925000
sS'https://www.cardekho.com/overview/Ford_Figo/Ford_Figo_1.2P_Titanium_MT.htm'
p167
I576000
sS'https://www.cardekho.com/overview/Honda_Jazz/Honda_Jazz_1.5_SV_i_DTEC.htm'
p168
I835000
sS'https://www.cardekho.com/overview/Renault_KWID/Renault_KWID_RXT.htm'
p169
I378000
sS'https://www.cardekho.com/overview/Maruti_Baleno/Maruti_Baleno_1.2_Sigma.htm'
p170
I544000
sS'https://www.cardekho.com/overview/Hyundai_i10/Hyundai_i10_Magna_1.1L.htm'
p171
I466000
sS'https://www.cardekho.com/overview/Maruti_Alto_800/Maruti_Alto_800_LX_Optional.htm'
p172
I302000
sS'https://www.cardekho.com/overview/Tata_Bolt/Tata_Bolt_Quadrajet_XM.htm'
p173
I647000
sS'https://www.cardekho.com/overview/Hyundai_i10/Hyundai_i10_Sportz_1.1L.htm'
p174
I496000
sS'https://www.cardekho.com/overview/Renault_KWID/Renault_KWID_RXT_Optional.htm'
p175
I391000
sS'https://www.cardekho.com/overview/Chevrolet_Sail_Hatchback/Chevrolet_Sail_Hatchback_1.2.htm'
p176
I488000
sS'https://www.cardekho.com/overview/Maruti_Alto_K10/Maruti_Alto_K10_LX_Optional.htm'
p177
I350000
sS'https://www.cardekho.com/overview/Maruti_Alto_K10/Maruti_Alto_K10_LXI_CNG.htm'
p178
I424000
sS'https://www.cardekho.com/overview/Ford_Figo/Ford_Figo_1.5D_Ambiente_MT.htm'
p179
I603000
sS'https://www.cardekho.com/overview/Maruti_Wagon_R/Maruti_Wagon_R_AMT_VXI.htm'
p180
I497000
sS'https://www.cardekho.com/overview/Maruti_Ritz/Maruti_Ritz_ZXi.htm'
p181
I568000
sS'https://www.cardekho.com/overview/Tata_Nano/Tata_Nano_XE.htm'
p182
I224000
sS'https://www.cardekho.com/overview/Fiat_Avventura/Fiat_Avventura_Power_Up_1.3_Emotion.htm'
p183
I951000
sS'https://www.cardekho.com/overview/Maruti_Ritz/Maruti_Ritz_VDI_(ABS)_BS_IV.htm'
p184
I637000
sS'https://www.cardekho.com/overview/Tata_Bolt/Tata_Bolt_Revotron_XT.htm'
p185
I631000
sS'https://www.cardekho.com/overview/Chevrolet_Sail_Hatchback/Chevrolet_Sail_Hatchback_1.3_TCDi_LS.htm'
p186
I656000
sS'https://www.cardekho.com/overview/Maruti_Baleno/Maruti_Baleno_1.3_Sigma.htm'
p187
I657000
sS'https://www.cardekho.com/overview/Tata_Tiago/Tata_Tiago_1.05_Revotorq_XZ.htm'
p188
I581000
sS'https://www.cardekho.com/overview/Ford_Figo/Ford_Figo_1.5D_Titanium_Plus_MT.htm'
p189
I731000
sS'https://www.cardekho.com/overview/Tata_Tiago/Tata_Tiago_1.2_Revotron_XZ.htm'
p190
I501000
sS'https://www.cardekho.com/overview/Datsun_GO/Datsun_GO_A_EPS.htm'
p191
I380000
sS'https://www.cardekho.com/overview/Maruti_Swift/Maruti_Swift_ZXI.htm'
p192
I654000
sS'https://www.cardekho.com/overview/Tata_Indica_V2/Tata_Indica_V2_DLX_BSIII.htm'
p193
I511000
sS'https://www.cardekho.com/overview/Tata_Nano/Tata_Nano_XTA.htm'
p194
I317000
sS'https://www.cardekho.com/overview/Maruti_Wagon_R_Stingray/Maruti_Wagon_R_Stingray_AMT_VXI.htm'
p195
I517000
sS'https://www.cardekho.com/overview/Fiat_Grande_Punto/Fiat_Grande_Punto_EVO_Power_Up_1.2_Dynamic.htm'
p196
I601000
sS'https://www.cardekho.com/overview/Ford_Figo/Ford_Figo_1.2P_Titanium_Plus_MT.htm'
p197
I641000
sS'https://www.cardekho.com/overview/Maruti_Wagon_R/Maruti_Wagon_R_LXI_CNG.htm'
p198
I483000
sS'https://www.cardekho.com/overview/Nissan_Micra/Nissan_Micra_XL_CVT.htm'
p199
I598000
sS'https://www.cardekho.com/overview/Maruti_Alto_K10/Maruti_Alto_K10_VXI_Airbag.htm'
p200
I397000
sS'https://www.cardekho.com/overview/Volkswagen_Polo/Volkswagen_Polo_Select_1.2_MPI_Highline.htm'
p201
I710000
sS'https://www.cardekho.com/overview/Tata_Indica_V2/Tata_Indica_V2_eLS.htm'
p202
I497000
sS'https://www.cardekho.com/overview/Tata_Nano/Tata_Nano_XT.htm'
p203
I278000
sS'https://www.cardekho.com/overview/Hyundai_EON/Hyundai_EON_D_Lite_Plus.htm'
p204
I356000
sS'https://www.cardekho.com/overview/Datsun_GO/Datsun_GO_Style.htm'
p205
I397000
sS'https://www.cardekho.com/overview/Maruti_Swift/Maruti_Swift_VXI_Optional.htm'
p206
I580000
sS'https://www.cardekho.com/overview/Maruti_Baleno/Maruti_Baleno_1.3_Alpha.htm'
p207
I859000
sS'https://www.cardekho.com/overview/Honda_Jazz/Honda_Jazz_1.5_VX_i_DTEC.htm'
p208
I926000
sS'https://www.cardekho.com/overview/Mini_Cooper_Countryman/Mini_Cooper_Countryman_Cooper_D.htm'
p209
I3650000
sS'https://www.cardekho.com/overview/Hyundai_i20/Hyundai_i20_Era_1.2.htm'
p210
I569000
sS'https://www.cardekho.com/overview/Toyota_Etios_Liva/Toyota_Etios_Liva_1.4_VXD.htm'
p211
I757000
sS'https://www.cardekho.com/overview/Maruti_Alto_800/Maruti_Alto_800_VXI_Optional.htm'
p212
I347000
sS'https://www.cardekho.com/overview/Maruti_Baleno/Maruti_Baleno_1.2_Delta.htm'
p213
I610000
sS'https://www.cardekho.com/overview/Volvo_V40/Volvo_V40_D3_R_Design.htm'
p214
I2820000
sS'https://www.cardekho.com/overview/BMW_1_Series/BMW_1_Series_118d_Sport_Line.htm'
p215
I3100000
sS'https://www.cardekho.com/overview/Honda_Jazz/Honda_Jazz_1.2_S_i_VTEC.htm'
p216
I644000
sS'https://www.cardekho.com/overview/Toyota_Etios_Liva/Toyota_Etios_Liva_1.4_GD.htm'
p217
I707000
sS'https://www.cardekho.com/overview/Chevrolet_Beat/Chevrolet_Beat_LS.htm'
p218
I473000
sS'https://www.cardekho.com/overview/Hyundai_Grand_i10/Hyundai_Grand_i10_Sportz_Celebration_Edition.htm'
p219
I584000
sS'https://www.cardekho.com/overview/Volkswagen_Polo/Volkswagen_Polo_1.2_MPI_Comfortline.htm'
p220
I621000
sS'https://www.cardekho.com/overview/Renault_KWID/Renault_KWID_1.0.htm'
p221
I400000
sS'https://www.cardekho.com/overview/Maruti_Wagon_R/Maruti_Wagon_R_LXI_Optional.htm'
p222
I461000
sS'https://www.cardekho.com/overview/Maruti_Alto_800/Maruti_Alto_800_STD.htm'
p223
I261000
sS'https://www.cardekho.com/overview/Fiat_Grande_Punto/Fiat_Grande_Punto_EVO_Power_UP_1.3_Emotion.htm'
p224
I811000
sS'https://www.cardekho.com/overview/Maruti_Swift/Maruti_Swift_VDI_Glory_Limited_Edition.htm'
p225
I666000
sS'https://www.cardekho.com/overview/Datsun_RediGO/Datsun_RediGO_D.htm'
p226
I242000
sS'https://www.cardekho.com/overview/Chevrolet_Sail_Hatchback/Chevrolet_Sail_Hatchback_1.3_TCDi_LT_ABS.htm'
p227
I759000
sS'https://www.cardekho.com/overview/Renault_KWID/Renault_KWID_RXL.htm'
p228
I345000
sS'https://www.cardekho.com/overview/Maruti_Ritz/Maruti_Ritz_LDi.htm'
p229
I569000
sS'https://www.cardekho.com/overview/Volkswagen_Polo/Volkswagen_Polo_Select_1.5_TDI_Highline.htm'
p230
I860000
sS'https://www.cardekho.com/overview/Volkswagen_Polo/Volkswagen_Polo_1.5_TDI_Comfortline.htm'
p231
I799000
sS'https://www.cardekho.com/overview/Hyundai_EON/Hyundai_EON_Era_Plus.htm'
p232
I370000
sS'https://www.cardekho.com/overview/Maruti_Swift/Maruti_Swift_LXI_Optional-O.htm'
p233
I515000
sS'https://www.cardekho.com/overview/Tata_Tiago/Tata_Tiago_1.2_Revotron_XZ_WO_Alloy.htm'
p234
I484000
sS'https://www.cardekho.com/overview/Fiat_Grande_Punto/Fiat_Grande_Punto_EVO_Power_UP_1.3_Active.htm'
p235
I698000
sS'https://www.cardekho.com/overview/Volkswagen_Polo/Volkswagen_Polo_1.2_MPI_Trendline.htm'
p236
I558000
sS'https://www.cardekho.com/overview/Hyundai_Grand_i10/Hyundai_Grand_i10_Sportz.htm'
p237
I574000
sS'https://www.cardekho.com/overview/Maruti_Swift/Maruti_Swift_ZDi.htm'
p238
I763000
sS'https://www.cardekho.com/overview/Fiat_Punto_Pure/Fiat_Punto_Pure_1.2L_FIRE.htm'
p239
I480000
sS'https://www.cardekho.com/overview/Chevrolet_Sail_Hatchback/Chevrolet_Sail_Hatchback_1.2_LT_ABS.htm'
p240
I636000
sS'https://www.cardekho.com/overview/Honda_Brio/Honda_Brio_1.2_VX_AT.htm'
p241
I697000
sS'https://www.cardekho.com/overview/Nissan_Micra_Active/Nissan_Micra_Active_XL.htm'
p242
I459000
sS'https://www.cardekho.com/overview/Tata_Tiago/Tata_Tiago_1.2_Revotron_XT.htm'
p243
I444000
sS'https://www.cardekho.com/overview/Honda_Jazz/Honda_Jazz_1.2_V_AT_i_VTEC.htm'
p244
I844000
sS'https://www.cardekho.com/overview/Maruti_Celerio/Maruti_Celerio_ZDi_Option.htm'
p245
I600000
sS'https://www.cardekho.com/overview/Tata_Tiago/Tata_Tiago_1.05_Revotorq_XE_Option.htm'
p246
I474000
sS'https://www.cardekho.com/overview/Maruti_Celerio/Maruti_Celerio_LXI_AT.htm'
p247
I463000
sS'https://www.cardekho.com/overview/Hyundai_i20_Active/Hyundai_i20_Active_1.4_S.htm'
p248
I894999
sS'https://www.cardekho.com/overview/Ford_Figo/Ford_Figo_1.5P_Titanium_AT.htm'
p249
I741000
sS'https://www.cardekho.com/overview/Maruti_Wagon_R/Maruti_Wagon_R_AMT_VXI_Option.htm'
p250
I531000
sS'https://www.cardekho.com/overview/Tata_Bolt/Tata_Bolt_Revotron_XE.htm'
p251
I468000
sS'https://www.cardekho.com/overview/Datsun_GO/Datsun_GO_A.htm'
p252
I357000
sS'https://www.cardekho.com/overview/Tata_Tiago/Tata_Tiago_1.05_Revotorq_XM.htm'
p253
I495000
sS'https://www.cardekho.com/overview/Tata_Tiago/Tata_Tiago_1.05_Revotorq_XT.htm'
p254
I525000
sS'https://www.cardekho.com/overview/Hyundai_i20_Active/Hyundai_i20_Active_1.2_S.htm'
p255
I755000
sS'https://www.cardekho.com/overview/Renault_Pulse/Renault_Pulse_RxL_Optional.htm'
p256
I628000
sS'https://www.cardekho.com/overview/Hyundai_EON/Hyundai_EON_LPG_Era_Plus_Option.htm'
p257
I411000
sS'https://www.cardekho.com/overview/Hyundai_i20/Hyundai_i20_Sportz_1.2.htm'
p258
I686000
sS'https://www.cardekho.com/overview/Fiat_Avventura_Urban_Cross/Fiat_Avventura_Urban_Cross_1.3_Multijet_Active.htm'
p259
I704000
sS'https://www.cardekho.com/overview/Maruti_Celerio/Maruti_Celerio_VXI.htm'
p260
I441000
sS'https://www.cardekho.com/overview/Tata_Indica_V2/Tata_Indica_V2_DLS_BSIII.htm'
p261
I472000
sS'https://www.cardekho.com/overview/Tata_Nano/Tata_Nano_CNG_XM.htm'
p262
I291000
sS'https://www.cardekho.com/overview/Chevrolet_Sail_Hatchback/Chevrolet_Sail_Hatchback_1.3_TCDi.htm'
p263
I602000
sS'https://www.cardekho.com/overview/Maruti_Alto_800/Maruti_Alto_800_LXI.htm'
p264
I322000
sS'https://www.cardekho.com/overview/Hyundai_EON/Hyundai_EON_1.0_Magna_Plus_Option_O.htm'
p265
I459000
sS'https://www.cardekho.com/overview/Hyundai_i20/Hyundai_i20_Sportz_1.4_CRDi.htm'
p266
I813000
sS'https://www.cardekho.com/overview/Chevrolet_Beat/Chevrolet_Beat_LTZ.htm'
p267
I569000
sS'https://www.cardekho.com/overview/Toyota_Etios_Liva/Toyota_Etios_Liva_1.2_V.htm'
p268
I585000
sS'https://www.cardekho.com/overview/Honda_Jazz/Honda_Jazz_1.2_V_i_VTEC.htm'
p269
I737000
sS'https://www.cardekho.com/overview/Mini_3_DOOR/Mini_3_DOOR_Cooper_S.htm'
p270
I3150000
sS'https://www.cardekho.com/overview/Tata_Nano/Tata_Nano_XM.htm'
p271
I258000
sS'https://www.cardekho.com/overview/Maruti_Celerio/Maruti_Celerio_LXI.htm'
p272
I415000
sS'https://www.cardekho.com/overview/Ford_Figo/Ford_Figo_1.5D_Base_MT.htm'
p273
I573000
sS'https://www.cardekho.com/overview/Nissan_Micra/Nissan_Micra_AT.htm'
p274
I680000
sS'https://www.cardekho.com/overview/Hyundai_i10/Hyundai_i10_Era.htm'
p275
I442000
sS'https://www.cardekho.com/overview/Chevrolet_Spark/Chevrolet_Spark_1.0_LS.htm'
p276
I399000
sS'https://www.cardekho.com/overview/Tata_Tiago/Tata_Tiago_1.05_Revotorq_XZ_WO_Alloy.htm'
p277
I564000
sS'https://www.cardekho.com/overview/Maruti_Alto_800/Maruti_Alto_800_CNG_LXI.htm'
p278
I384000
sS'https://www.cardekho.com/overview/Datsun_RediGO/Datsun_RediGO_T_Option.htm'
p279
I322000
sS'https://www.cardekho.com/overview/Maruti_Celerio/Maruti_Celerio_ZDi.htm'
p280
I552000
sS'https://www.cardekho.com/overview/Maruti_Swift/Maruti_Swift_VDI_Deca.htm'
p281
I666000
sS'https://www.cardekho.com/overview/Maruti_Alto_800/Maruti_Alto_800_VXI.htm'
p282
I341000
sS'https://www.cardekho.com/overview/Chevrolet_Beat/Chevrolet_Beat_PS.htm'
p283
I440000
sS'https://www.cardekho.com/overview/Maruti_Alto_800/Maruti_Alto_800_LXI_Optional.htm'
p284
I328000
sS'https://www.cardekho.com/overview/Volvo_V40_Cross_Country/Volvo_V40_Cross_Country_T4.htm'
p285
I2748000
sS'https://www.cardekho.com/overview/Chevrolet_Beat/Chevrolet_Beat_Diesel_LS.htm'
p286
I572000
sS'https://www.cardekho.com/overview/Toyota_Etios_Liva/Toyota_Etios_Liva_1.2_VX.htm'
p287
I641000
sS'https://www.cardekho.com/overview/Hyundai_i20/Hyundai_i20_Magna_1.4_CRDi.htm'
p288
I754000
sS'https://www.cardekho.com/overview/Tata_Tiago/Tata_Tiago_1.05_Revotorq_XB.htm'
p289
I413000
sS'https://www.cardekho.com/overview/Maruti_Swift/Maruti_Swift_VXI_Glory_Limited_Edition.htm'
p290
I548000
sS'https://www.cardekho.com/overview/Chevrolet_Spark/Chevrolet_Spark_1.0.htm'
p291
I370000
sS'https://www.cardekho.com/overview/Tata_Bolt/Tata_Bolt_Quadrajet_XT.htm'
p292
I738000
sS'https://www.cardekho.com/overview/Datsun_GO/Datsun_GO_D.htm'
p293
I331000
sS'https://www.cardekho.com/overview/Maruti_Celerio/Maruti_Celerio_Green_VXI_Optional.htm'
p294
I520000
sS'https://www.cardekho.com/overview/Tata_Bolt/Tata_Bolt_Quadrajet_XMS.htm'
p295
I670000
sS'https://www.cardekho.com/overview/Tata_Tiago/Tata_Tiago_1.05_Revotorq_XM_Option.htm'
p296
I513999
sS'https://www.cardekho.com/overview/Maruti_Ritz/Maruti_Ritz_VXi.htm'
p297
I505000
sS'https://www.cardekho.com/overview/Toyota_Etios_Liva/Toyota_Etios_Liva_1.4_VD.htm'
p298
I715000
sS'https://www.cardekho.com/overview/Maruti_Ritz/Maruti_Ritz_AT.htm'
p299
I632000
s.