(dp0
S'https://www.cardekho.com/overview/Maserati_Gran_Cabrio/Maserati_Gran_Cabrio_4.7_V8.htm'
p1
I20600000
sS'https://www.cardekho.com/overview/Bentley_Continental/Bentley_Continental_GTC.htm'
p2
I39100000
sS'https://www.cardekho.com/overview/Audi_A3_cabriolet/Audi_A3_cabriolet_40_TFSI_Premium_Plus.htm'
p3
I5314000
sS'https://www.cardekho.com/overview/Mercedes-Benz_E-Class/Mercedes-Benz_E-Class_E400_Cabriolet.htm'
p4
I8168000
sS'https://www.cardekho.com/overview/Mercedes-Benz_E-Class/Mercedes-Benz_E-Class_E250_Edition_E.htm'
p5
I5419000
sS'https://www.cardekho.com/overview/Porsche_911/Porsche_911_Turbo_S.htm'
p6
I26600000
sS'https://www.cardekho.com/overview/Bentley_Continental/Bentley_Continental_GT_V8_S.htm'
p7
I35600000
sS'https://www.cardekho.com/overview/Bentley_Continental/Bentley_Continental_GT_V8.htm'
p8
I32900000
sS'https://www.cardekho.com/overview/Ferrari_California/Ferrari_California_T.htm'
p9
I32900000
sS'https://www.cardekho.com/overview/Jaguar_F_Type/Jaguar_F_Type_S_Coupe.htm'
p10
I14100000
sS'https://www.cardekho.com/overview/Bentley_Continental/Bentley_Continental_GT.htm'
p11
I35800000
sS'https://www.cardekho.com/overview/Jaguar_F_Type/Jaguar_F_Type_R_Coupe.htm'
p12
I19200000
sS'https://www.cardekho.com/overview/Mercedes-Benz_E-Class/Mercedes-Benz_E-Class_E_200_CGI.htm'
p13
I5188000
sS'https://www.cardekho.com/overview/Bentley_Continental/Bentley_Continental_GT_Speed_Convertible.htm'
p14
I44300000
sS'https://www.cardekho.com/overview/Jaguar_F_Type/Jaguar_F_Type_Coupe.htm'
p15
I12800000
sS'https://www.cardekho.com/overview/Bentley_Continental/Bentley_Continental_GT_V8_Convertible.htm'
p16
I36400000
sS'https://www.cardekho.com/overview/Rolls-Royce_Phantom/Rolls-Royce_Phantom_Phantom.htm'
p17
I80000000
sS'https://www.cardekho.com/overview/Mercedes-Benz_E-Class/Mercedes-Benz_E-Class_E350_CDI_Avantgrade.htm'
p18
I6096000
sS'https://www.cardekho.com/overview/Jaguar_F_Type/Jaguar_F_Type_3.0_V6_S.htm'
p19
I15600000
sS'https://www.cardekho.com/overview/Porsche_911/Porsche_911_Carrera_S_Cabriolet.htm'
p20
I17600000
sS'https://www.cardekho.com/overview/Rolls-Royce_Dawn/Rolls-Royce_Dawn_Convertible.htm'
p21
I62500000
sS'https://www.cardekho.com/overview/Porsche_Boxster/Porsche_Boxster_GTS.htm'
p22
I9202000
sS'https://www.cardekho.com/overview/Porsche_911/Porsche_911_Carrera_S.htm'
p23
I16299999
sS'https://www.cardekho.com/overview/BMW_Z4/BMW_Z4_35i.htm'
p24
I7750000
sS'https://www.cardekho.com/overview/Bentley_Continental/Bentley_Continental_GT_V8_S_Convertible.htm'
p25
I39200000
sS'https://www.cardekho.com/overview/Lamborghini_Aventador/Lamborghini_Aventador_Roadster_LP_700_4.htm'
p26
I47800000
sS'https://www.cardekho.com/overview/Mercedes-Benz_SLC/Mercedes-Benz_SLC_43_AMG.htm'
p27
I7750000
sS'https://www.cardekho.com/overview/Lamborghini_Aventador/Lamborghini_Aventador_LP700_4.htm'
p28
I36900000
sS'https://www.cardekho.com/overview/Rolls-Royce_Phantom/Rolls-Royce_Phantom_Drophead_Coupe.htm'
p29
I40000000
sS'https://www.cardekho.com/overview/Porsche_911/Porsche_911_Carrera_Cabriolet.htm'
p30
I15600000
sS'https://www.cardekho.com/overview/Mercedes-Benz_E-Class/Mercedes-Benz_E-Class_E250_CDI_Avantgarde.htm'
p31
I5208000
sS'https://www.cardekho.com/overview/Porsche_911/Porsche_911_Turbo_Cabriolet.htm'
p32
I23900000
sS'https://www.cardekho.com/overview/Mercedes-Benz_E-Class/Mercedes-Benz_E-Class_E200_Edition_E.htm'
p33
I5188000
sS'https://www.cardekho.com/overview/Mercedes-Benz_E-Class/Mercedes-Benz_E-Class_E350_Edition_E.htm'
p34
I6470000
sS'https://www.cardekho.com/overview/Rolls-Royce_Phantom/Rolls-Royce_Phantom_Extended_Wheelbase.htm'
p35
I82500000
sS'https://www.cardekho.com/overview/Porsche_Boxster/Porsche_Boxster_S.htm'
p36
I9202000
sS'https://www.cardekho.com/overview/Rolls-Royce_Phantom/Rolls-Royce_Phantom_Coupe.htm'
p37
I40000000
sS'https://www.cardekho.com/overview/Bentley_Continental/Bentley_Continental_GT_Speed.htm'
p38
I40400000
sS'https://www.cardekho.com/overview/Jaguar_F_Type/Jaguar_F_Type_5.0_V8_S.htm'
p39
I18400000
sS'https://www.cardekho.com/overview/Bugatti_Veyron/Bugatti_Veyron_16.4_Grand_Sport.htm'
p40
I120000000
sS'https://www.cardekho.com/overview/BMW_Z4/BMW_Z4_35i_DPT.htm'
p41
I7850000
sS'https://www.cardekho.com/overview/Porsche_911/Porsche_911_Turbo.htm'
p42
I22599999
sS'https://www.cardekho.com/overview/Porsche_911/Porsche_911_Carrera.htm'
p43
I14200000
sS'https://www.cardekho.com/overview/Mercedes-Benz_E-Class/Mercedes-Benz_E-Class_E_63_AMG.htm'
p44
I13100000
sS'https://www.cardekho.com/overview/Mini_Cooper_Convertible/Mini_Cooper_Convertible_S.htm'
p45
I3390000
sS'https://www.cardekho.com/overview/Porsche_911/Porsche_911_Turbo_S_Cabriolet.htm'
p46
I28200000
s.