(dp0
S'https://www.cardekho.com/overview/Datsun_GO_Plus/Datsun_GO_Plus_D.htm'
p1
I388000
sS'https://www.cardekho.com/overview/Toyota_Innova_Crysta/Toyota_Innova_Crysta_2.7_GX_AT_8S.htm'
p2
I1510000
sS'https://www.cardekho.com/overview/Mahindra_Xylo/Mahindra_Xylo_D2_Maxx_BSIV.htm'
p3
I864000
sS'https://www.cardekho.com/overview/Chevrolet_Enjoy/Chevrolet_Enjoy_1.3_TCDi_LS_7.htm'
p4
I699000
sS'https://www.cardekho.com/overview/Chevrolet_Enjoy/Chevrolet_Enjoy_1.3_TCDi_LTZ_8.htm'
p5
I828999
sS'https://www.cardekho.com/overview/Toyota_Innova_Crysta/Toyota_Innova_Crysta_2.4_ZX_MT.htm'
p6
I1988000
sS'https://www.cardekho.com/overview/Honda_Mobilio/Honda_Mobilio_RS_i-DTEC.htm'
p7
I1242000
sS'https://www.cardekho.com/overview/Maruti_Ertiga/Maruti_Ertiga_VXI_AT.htm'
p8
I896000
sS'https://www.cardekho.com/overview/ICML_Extreme/ICML_Extreme_Van_BSIII_Non_AC.htm'
p9
I711000
sS'https://www.cardekho.com/overview/Honda_Mobilio/Honda_Mobilio_S_i-DTEC.htm'
p10
I996000
sS'https://www.cardekho.com/overview/Chevrolet_Enjoy/Chevrolet_Enjoy_1.3_TCDi_LT_7.htm'
p11
I769000
sS'https://www.cardekho.com/overview/Honda_Mobilio/Honda_Mobilio_V_i-DTEC.htm'
p12
I1117000
sS'https://www.cardekho.com/overview/ICML_Extreme/ICML_Extreme_Van_BSIII_AC.htm'
p13
I757000
sS'https://www.cardekho.com/overview/Maruti_Ertiga/Maruti_Ertiga_ZXI_Plus.htm'
p14
I914000
sS'https://www.cardekho.com/overview/Maruti_Ertiga/Maruti_Ertiga_ZXI.htm'
p15
I853999
sS'https://www.cardekho.com/overview/Toyota_Innova_Crysta/Toyota_Innova_Crysta_2.4_G_MT_8S.htm'
p16
I1418000
sS'https://www.cardekho.com/overview/Chevrolet_Tavera/Chevrolet_Tavera_Neo_3_Max_10_Seats_BSIII.htm'
p17
I906000
sS'https://www.cardekho.com/overview/Datsun_GO_Plus/Datsun_GO_Plus_A_EPS.htm'
p18
I451000
sS'https://www.cardekho.com/overview/ICML_Extreme/ICML_Extreme_Ambulance_DI_Non_AC_BSIII.htm'
p19
I691000
sS'https://www.cardekho.com/overview/Toyota_Innova_Crysta/Toyota_Innova_Crysta_2.4_GX_MT_8S.htm'
p20
I1511000
sS'https://www.cardekho.com/overview/Maruti_Ertiga/Maruti_Ertiga_LXI_Option.htm'
p21
I712000
sS'https://www.cardekho.com/overview/Mahindra_Xylo/Mahindra_Xylo_H8.htm'
p22
I1028999
sS'https://www.cardekho.com/overview/Toyota_Innova_Crysta/Toyota_Innova_Crysta_2.4_VX_MT_8S.htm'
p23
I1798000
sS'https://www.cardekho.com/overview/Chevrolet_Enjoy/Chevrolet_Enjoy_1.3_TCDi_LTZ_7.htm'
p24
I828999
sS'https://www.cardekho.com/overview/Honda_Mobilio/Honda_Mobilio_V_Option_i-DTEC.htm'
p25
I1174000
sS'https://www.cardekho.com/overview/Maruti_Ertiga/Maruti_Ertiga_LXI.htm'
p26
I675000
sS'https://www.cardekho.com/overview/ICML_Extreme/ICML_Extreme_LD_CRDFi_PS_AC_9Seater_BSIII.htm'
p27
I866000
sS'https://www.cardekho.com/overview/Maruti_Ertiga/Maruti_Ertiga_SHVS_LDI_Option.htm'
p28
I816000
sS'https://www.cardekho.com/overview/Mahindra_Xylo/Mahindra_Xylo_D2_BS_III.htm'
p29
I884000
sS'https://www.cardekho.com/overview/Chevrolet_Enjoy/Chevrolet_Enjoy_1.4_LTZ_8.htm'
p30
I635000
sS'https://www.cardekho.com/overview/Renault_Lodgy/Renault_Lodgy_85PS_RxE_7_Seater.htm'
p31
I901000
sS'https://www.cardekho.com/overview/Toyota_Innova/Toyota_Innova_2.5_G_(Diesel)_8_Seater_BS_IV.htm'
p32
I1368000
sS'https://www.cardekho.com/overview/Mahindra_Xylo/Mahindra_Xylo_D2_BS_IV.htm'
p33
I898000
sS'https://www.cardekho.com/overview/Tata_Aria/Tata_Aria_Pride_4x4.htm'
p34
I1653000
sS'https://www.cardekho.com/overview/Chevrolet_Tavera/Chevrolet_Tavera_Neo_3_LS_7_C_BSIII.htm'
p35
I1036000
sS'https://www.cardekho.com/overview/Toyota_Innova_Crysta/Toyota_Innova_Crysta_2.4_G_MT.htm'
p36
I1413000
sS'https://www.cardekho.com/overview/Honda_Mobilio/Honda_Mobilio_E_i-VTEC.htm'
p37
I761000
sS'https://www.cardekho.com/overview/Toyota_Innova_Crysta/Toyota_Innova_Crysta_2.7_VX_MT.htm'
p38
I1680999
sS'https://www.cardekho.com/overview/Chevrolet_Tavera/Chevrolet_Tavera_Neo_3_LT_9_Seats_BSIII.htm'
p39
I1131000
sS'https://www.cardekho.com/overview/Toyota_Innova_Crysta/Toyota_Innova_Crysta_2.7_GX_MT_8S.htm'
p40
I1399000
sS'https://www.cardekho.com/overview/Mahindra_Xylo/Mahindra_Xylo_H4.htm'
p41
I959000
sS'https://www.cardekho.com/overview/Datsun_GO_Plus/Datsun_GO_Plus_T.htm'
p42
I475000
sS'https://www.cardekho.com/overview/Datsun_GO_Plus/Datsun_GO_Plus_T_Option.htm'
p43
I495000
sS'https://www.cardekho.com/overview/Chevrolet_Tavera/Chevrolet_Tavera_Neo_3_Max_9_Str_BSIII.htm'
p44
I886999
sS'https://www.cardekho.com/overview/Toyota_Innova/Toyota_Innova_2.5_VX_(Diesel)_7_Seater_BS_IV.htm'
p45
I1628000
sS'https://www.cardekho.com/overview/Maruti_Ertiga/Maruti_Ertiga_VXI_CNG.htm'
p46
I853999
sS'https://www.cardekho.com/overview/Mahindra_Xylo/Mahindra_Xylo_H4_ABS.htm'
p47
I999000
sS'https://www.cardekho.com/overview/Toyota_Innova_Crysta/Toyota_Innova_Crysta_2.7_GX_AT.htm'
p48
I1505000
sS'https://www.cardekho.com/overview/Mercedes-Benz_B_Class/Mercedes-Benz_B_Class_B180_Sport.htm'
p49
I2997000
sS'https://www.cardekho.com/overview/Toyota_Innova/Toyota_Innova_2.5_GX_(Diesel)_7_Seater_BS_IV.htm'
p50
I1424000
sS'https://www.cardekho.com/overview/Renault_Lodgy/Renault_Lodgy_85PS_RxE.htm'
p51
I901000
sS'https://www.cardekho.com/overview/Chevrolet_Tavera/Chevrolet_Tavera_Neo_3_10_Seats_BSIII.htm'
p52
I811999
sS'https://www.cardekho.com/overview/Tata_Xenon_XT/Tata_Xenon_XT_EX_4X4.htm'
p53
I1128000
sS'https://www.cardekho.com/overview/Toyota_Innova_Crysta/Toyota_Innova_Crysta_2.7_ZX_AT.htm'
p54
I1987000
sS'https://www.cardekho.com/overview/Maruti_Ertiga/Maruti_Ertiga_SHVS_ZDI_Plus.htm'
p55
I981000
sS'https://www.cardekho.com/overview/Renault_Lodgy/Renault_Lodgy_85PS_RxL.htm'
p56
I988000
sS'https://www.cardekho.com/overview/Honda_Mobilio/Honda_Mobilio_V_Option_i-VTEC.htm'
p57
I1055000
sS'https://www.cardekho.com/overview/Chevrolet_Enjoy/Chevrolet_Enjoy_1.4_LTZ_7.htm'
p58
I635000
sS'https://www.cardekho.com/overview/Renault_Lodgy/Renault_Lodgy_World_Edition_110PS.htm'
p59
I1084000
sS'https://www.cardekho.com/overview/Chevrolet_Enjoy/Chevrolet_Enjoy_1.3_TCDi_LT_8.htm'
p60
I769000
sS'https://www.cardekho.com/overview/Toyota_Innova/Toyota_Innova_2.5_ZX_Diesel_7_Seater.htm'
p61
I1697000
sS'https://www.cardekho.com/overview/Toyota_Innova/Toyota_Innova_2.5_GX_(Diesel)_8_Seater_BS_IV.htm'
p62
I1428000
sS'https://www.cardekho.com/overview/Mahindra_Xylo/Mahindra_Xylo_H8_ABS_with_Airbags.htm'
p63
I1149000
sS'https://www.cardekho.com/overview/Tata_Aria/Tata_Aria_Pure_LX_4x2.htm'
p64
I1104000
sS'https://www.cardekho.com/overview/ICML_Extreme/ICML_Extreme_LD_CRDFi_Non-AC_9Seater_BSIV.htm'
p65
I791000
sS'https://www.cardekho.com/overview/Mercedes-Benz_B_Class/Mercedes-Benz_B_Class_B200_CDI_Sport.htm'
p66
I3099000
sS'https://www.cardekho.com/overview/ICML_Extreme/ICML_Extreme_VD_CRDFi_7Seater_BSIII.htm'
p67
I998000
sS'https://www.cardekho.com/overview/Chevrolet_Tavera/Chevrolet_Tavera_Neo_3_LS_10_Seats_BSIII.htm'
p68
I989000
sS'https://www.cardekho.com/overview/ICML_Extreme/ICML_Extreme_SD_CRDFi_9Seater_BSIII.htm'
p69
I927999
sS'https://www.cardekho.com/overview/Honda_Mobilio/Honda_Mobilio_RS_Option_i-DTEC.htm'
p70
I1299000
sS'https://www.cardekho.com/overview/Chevrolet_Tavera/Chevrolet_Tavera_Neo_3_LS_7_Seats_BSIII.htm'
p71
I1024000
sS'https://www.cardekho.com/overview/Toyota_Innova_Crysta/Toyota_Innova_Crysta_2.4_GX_MT.htm'
p72
I1506000
sS'https://www.cardekho.com/overview/Chevrolet_Tavera/Chevrolet_Tavera_Neo_3_LS_9_Str_BSIII.htm'
p73
I969000
sS'https://www.cardekho.com/overview/Chevrolet_Enjoy/Chevrolet_Enjoy_1.4_LS_7.htm'
p74
I508000
sS'https://www.cardekho.com/overview/ICML_Extreme/ICML_Extreme_Ambulance_DI_AC_BSIII.htm'
p75
I734000
sS'https://www.cardekho.com/overview/Mahindra_Xylo/Mahindra_Xylo_D2_Maxx.htm'
p76
I850000
sS'https://www.cardekho.com/overview/Datsun_GO_Plus/Datsun_GO_Plus_Style.htm'
p77
I476999
sS'https://www.cardekho.com/overview/Mahindra_Xylo/Mahindra_Xylo_D4.htm'
p78
I944000
sS'https://www.cardekho.com/overview/Mahindra_Xylo/Mahindra_Xylo_D4_BS_III.htm'
p79
I931000
sS'https://www.cardekho.com/overview/Tata_Xenon_XT/Tata_Xenon_XT_EX_4X2.htm'
p80
I1023000
sS'https://www.cardekho.com/overview/Chevrolet_Tavera/Chevrolet_Tavera_Neo_3_9_Str_BSIII.htm'
p81
I795000
sS'https://www.cardekho.com/overview/Maruti_Ertiga/Maruti_Ertiga_SHVS_VDI.htm'
p82
I881000
sS'https://www.cardekho.com/overview/Chevrolet_Enjoy/Chevrolet_Enjoy_1.4_LT_7.htm'
p83
I574000
sS'https://www.cardekho.com/overview/Maruti_Ertiga/Maruti_Ertiga_VXI.htm'
p84
I791000
sS'https://www.cardekho.com/overview/ICML_Extreme/ICML_Extreme_VD_DI_7Seater_BSIII.htm'
p85
I940000
sS'https://www.cardekho.com/overview/Honda_Mobilio/Honda_Mobilio_V_i-VTEC.htm'
p86
I999000
sS'https://www.cardekho.com/overview/Toyota_Innova_Crysta/Toyota_Innova_Crysta_2.7_GX_MT.htm'
p87
I1394000
sS'https://www.cardekho.com/overview/Chevrolet_Enjoy/Chevrolet_Enjoy_1.3_TCDi_LS_8.htm'
p88
I699000
sS'https://www.cardekho.com/overview/Renault_Lodgy/Renault_Lodgy_85PS_Std.htm'
p89
I802999
sS'https://www.cardekho.com/overview/Chevrolet_Enjoy/Chevrolet_Enjoy_1.4_LT_8.htm'
p90
I574000
sS'https://www.cardekho.com/overview/Chevrolet_Enjoy/Chevrolet_Enjoy_1.4_LS_8.htm'
p91
I508000
sS'https://www.cardekho.com/overview/ICML_Extreme/ICML_Extreme_LD_CRDFi_AC_M_Stg_9Seater_BSIV.htm'
p92
I808000
sS'https://www.cardekho.com/overview/Toyota_Innova_Crysta/Toyota_Innova_Crysta_2.8_GX_AT_8S.htm'
p93
I1641000
sS'https://www.cardekho.com/overview/Toyota_Innova_Crysta/Toyota_Innova_Crysta_2.8_GX_AT.htm'
p94
I1636000
sS'https://www.cardekho.com/overview/ICML_Extreme/ICML_Extreme_SD_CRDFi_9Seater_BSIV.htm'
p95
I959000
sS'https://www.cardekho.com/overview/Renault_Lodgy/Renault_Lodgy_World_Edition_85PS.htm'
p96
I1018000
sS'https://www.cardekho.com/overview/Toyota_Innova_Crysta/Toyota_Innova_Crysta_2.8_ZX_AT.htm'
p97
I2118000
sS'https://www.cardekho.com/overview/Tata_Aria/Tata_Aria_Pleasure_4x2.htm'
p98
I1342000
sS'https://www.cardekho.com/overview/ICML_Extreme/ICML_Extreme_SD_DI_9Seater_BSIII.htm'
p99
I880000
sS'https://www.cardekho.com/overview/Maruti_Ertiga/Maruti_Ertiga_SHVS_ZDI.htm'
p100
I938000
sS'https://www.cardekho.com/overview/Toyota_Innova/Toyota_Innova_2.5_G_(Diesel)_7_Seater_BS_IV.htm'
p101
I1363000
sS'https://www.cardekho.com/overview/Toyota_Innova_Crysta/Toyota_Innova_Crysta_2.4_VX_MT.htm'
p102
I1793000
sS'https://www.cardekho.com/overview/Honda_Mobilio/Honda_Mobilio_E_i-DTEC.htm'
p103
I919999
sS'https://www.cardekho.com/overview/Maruti_Ertiga/Maruti_Ertiga_SHVS_LDI.htm'
p104
I809000
sS'https://www.cardekho.com/overview/Datsun_GO_Plus/Datsun_GO_Plus_A.htm'
p105
I408000
sS'https://www.cardekho.com/overview/ICML_Extreme/ICML_Extreme_LD_CRDFi_PS_AC_9Seater_BSIV.htm'
p106
I897000
sS'https://www.cardekho.com/overview/ICML_Extreme/ICML_Extreme_LD_DI_PS_AC_9Seater_BSIII.htm'
p107
I815000
sS'https://www.cardekho.com/overview/ICML_Extreme/ICML_Extreme_VD_CRDFi_7Seater_BSIV.htm'
p108
I1027000
sS'https://www.cardekho.com/overview/Honda_Mobilio/Honda_Mobilio_S_i-VTEC.htm'
p109
I869999
sS'https://www.cardekho.com/overview/Toyota_Innova/Toyota_Innova_2.5_VX_(Diesel)_8_Seater_BS_IV.htm'
p110
I1632999
sS'https://www.cardekho.com/overview/ICML_Extreme/ICML_Extreme_LD_DI_Non-Ac_9Seater_BSIII.htm'
p111
I709000
s.