(dp0
S'https://www.cardekho.com/overview/Datsun_GO_Plus/Datsun_GO_Plus_D.htm'
p1
I388000
sS'https://www.cardekho.com/overview/Maruti_Ritz/Maruti_Ritz_LDi.htm'
p2
I569000
sS'https://www.cardekho.com/overview/Audi_Q3/Audi_Q3_35_TDI_Quattro_Premium_Plus.htm'
p3
I4122999
sS'https://www.cardekho.com/overview/Skoda_Rapid/Skoda_Rapid_1.5_TDI_AT_Style_Plus.htm'
p4
I1241000
sS'https://www.cardekho.com/overview/Mahindra_XUV500/Mahindra_XUV500_AT_W8_1.99_mHawk.htm'
p5
I1632000
sS'https://www.cardekho.com/overview/Bentley_Mulsanne/Bentley_Mulsanne_6.8.htm'
p6
I55599999
sS'https://www.cardekho.com/overview/Land_Rover_Discovery_4/Land_Rover_Discovery_4_SDV6_SE.htm'
p7
I11299999
sS'https://www.cardekho.com/overview/Hyundai_Verna/Hyundai_Verna_1.6_VTVT_S.htm'
p8
I922000
sS'https://www.cardekho.com/overview/Aston_Martin_Rapide/Aston_Martin_Rapide_S_V12.htm'
p9
I32900000
sS'https://www.cardekho.com/overview/Toyota_Corolla_Altis/Toyota_Corolla_Altis_G_AT.htm'
p10
I1691000
sS'https://www.cardekho.com/overview/Bentley_Continental/Bentley_Continental_GT_V8.htm'
p11
I32900000
sS'https://www.cardekho.com/overview/Maruti_Baleno/Maruti_Baleno_1.2_CVT_Zeta.htm'
p12
I780000
sS'https://www.cardekho.com/overview/Porsche_Cayenne/Porsche_Cayenne_Base.htm'
p13
I9991000
sS'https://www.cardekho.com/overview/Mahindra_Scorpio/Mahindra_Scorpio_Intelli_Hybrid_S4_Plus.htm'
p14
I1072000
sS'https://www.cardekho.com/overview/Datsun_RediGO/Datsun_RediGO_S.htm'
p15
I337000
sS'https://www.cardekho.com/overview/Mahindra_Scorpio/Mahindra_Scorpio_Intelli_Hybrid_S8.htm'
p16
I1295000
sS'https://www.cardekho.com/overview/Maruti_Swift/Maruti_Swift_VDI_Deca.htm'
p17
I666000
sS'https://www.cardekho.com/overview/Maruti_SX4_S_Cross/Maruti_SX4_S_Cross_DDiS_320_Delta.htm'
p18
I1070000
sS'https://www.cardekho.com/overview/Ford_Ecosport/Ford_Ecosport_1.5_Ti_VCT_AT_Signature.htm'
p19
I1036999
sS'https://www.cardekho.com/overview/Hyundai_Grand_i10/Hyundai_Grand_i10_Magna_AT.htm'
p20
I608000
sS'https://www.cardekho.com/overview/Ford_Ecosport/Ford_Ecosport_1.0_Ecoboost_Titanium_Plus_BE.htm'
p21
I989000
sS'https://www.cardekho.com/overview/Mitsubishi_Pajero/Mitsubishi_Pajero_Sport_4X2_AT_Dual_Tone.htm'
p22
I2783000
sS'https://www.cardekho.com/overview/Mahindra_Bolero/Mahindra_Bolero_Plus_Non_AC_BSIV_PS.htm'
p23
I760000
sS'https://www.cardekho.com/overview/Audi_A6/Audi_A6_35_TFSI.htm'
p24
I5080000
sS'https://www.cardekho.com/overview/Volkswagen_Ameo/Volkswagen_Ameo_1.5_TDI_Comfortline_AT.htm'
p25
I925000
sS'https://www.cardekho.com/overview/Audi_A8/Audi_A8_L_50_TDI_Quattro_Premium_Plus.htm'
p26
I11700000
sS'https://www.cardekho.com/overview/Jaguar_XF/Jaguar_XF_2.0_Diesel_Portfolio.htm'
p27
I7803000
sS'https://www.cardekho.com/overview/Volkswagen_Vento/Volkswagen_Vento_1.5_TDI_Comfortline_AT.htm'
p28
I1180000
sS'https://www.cardekho.com/overview/Maruti_Baleno/Maruti_Baleno_1.2_Alpha.htm'
p29
I744000
sS'https://www.cardekho.com/overview/Maruti_Ertiga/Maruti_Ertiga_VXI_AT.htm'
p30
I896000
sS'https://www.cardekho.com/overview/Nissan_Micra/Nissan_Micra_Diesel_XL.htm'
p31
I648000
sS'https://www.cardekho.com/overview/Ford_Endeavour/Ford_Endeavour_3.2_Titanium_AT_4X4.htm'
p32
I3036000
sS'https://www.cardekho.com/overview/Toyota_Etios_Cross/Toyota_Etios_Cross_1.4L_GD.htm'
p33
I784000
sS'https://www.cardekho.com/overview/Hyundai_EON/Hyundai_EON_Sportz.htm'
p34
I430999
sS'https://www.cardekho.com/overview/Honda_BR-V/Honda_BR-V_i-DTEC_V_MT.htm'
p35
I1221000
sS'https://www.cardekho.com/overview/Maruti_Celerio/Maruti_Celerio_VXI_AT.htm'
p36
I488999
sS'https://www.cardekho.com/overview/Hyundai_i20/Hyundai_i20_Asta_1.2.htm'
p37
I736000
sS'https://www.cardekho.com/overview/Fiat_Linea_Classic/Fiat_Linea_Classic_1.4_Petrol.htm'
p38
I658000
sS'https://www.cardekho.com/overview/Volkswagen_CrossPolo/Volkswagen_CrossPolo_1.5_TDI.htm'
p39
I911999
sS'https://www.cardekho.com/overview/Maruti_Ertiga/Maruti_Ertiga_ZXI_Plus.htm'
p40
I914000
sS'https://www.cardekho.com/overview/Hyundai_Elantra/Hyundai_Elantra_2.0_S.htm'
p41
I1322000
sS'https://www.cardekho.com/overview/Hyundai_i20/Hyundai_i20_Asta_1.4_CRDi.htm'
p42
I864000
sS'https://www.cardekho.com/overview/Honda_City/Honda_City_i_VTEC_S.htm'
p43
I903999
sS'https://www.cardekho.com/overview/Toyota_Innova_Crysta/Toyota_Innova_Crysta_2.4_G_MT_8S.htm'
p44
I1418000
sS'https://www.cardekho.com/overview/Hyundai_Creta/Hyundai_Creta_1.6_CRDi_AT_SX_Plus.htm'
p45
I1482000
sS'https://www.cardekho.com/overview/Chevrolet_Sail/Chevrolet_Sail_1.2_Base.htm'
p46
I587000
sS'https://www.cardekho.com/overview/Volvo_S_80/Volvo_S_80_D5.htm'
p47
I5060000
sS'https://www.cardekho.com/overview/Skoda_Octavia/Skoda_Octavia_Style_Plus_2.0_TDI_AT.htm'
p48
I2305000
sS'https://www.cardekho.com/overview/Porsche_Panamera/Porsche_Panamera_Base.htm'
p49
I12000000
sS'https://www.cardekho.com/overview/Maruti_SX4_S_Cross/Maruti_SX4_S_Cross_DDiS_320_Zeta.htm'
p50
I1175000
sS'https://www.cardekho.com/overview/Hyundai_Elantra/Hyundai_Elantra_1.6_SX_Option_AT.htm'
p51
I1953000
sS'https://www.cardekho.com/overview/Volkswagen_Vento/Volkswagen_Vento_Celeste_1.6_Highline.htm'
p52
I1033000
sS'https://www.cardekho.com/overview/BMW_X3/BMW_X3_xDrive30d_M_Sport.htm'
p53
I6050000
sS'https://www.cardekho.com/overview/Maruti_Celerio/Maruti_Celerio_ZXI_AT.htm'
p54
I520000
sS'https://www.cardekho.com/overview/Maruti_Vitara_Brezza/Maruti_Vitara_Brezza_LDi.htm'
p55
I743000
sS'https://www.cardekho.com/overview/Mercedes-Benz_S-Class/Mercedes-Benz_S-Class_S400.htm'
p56
I13100000
sS'https://www.cardekho.com/overview/Ford_Figo/Ford_Figo_1.2P_Trend_MT.htm'
p57
I534000
sS'https://www.cardekho.com/overview/Honda_Jazz/Honda_Jazz_1.2_SV_i_VTEC.htm'
p58
I700000
sS'https://www.cardekho.com/overview/Maruti_SX4_S_Cross/Maruti_SX4_S_Cross_DDiS_200_Alpha.htm'
p59
I1107000
sS'https://www.cardekho.com/overview/Toyota_Innova_Crysta/Toyota_Innova_Crysta_2.4_VX_MT_8S.htm'
p60
I1798000
sS'https://www.cardekho.com/overview/Aston_Martin_Vantage/Aston_Martin_Vantage_V8_Sport.htm'
p61
I13500000
sS'https://www.cardekho.com/overview/BMW_M_Series/BMW_M_Series_X6_M.htm'
p62
I16600000
sS'https://www.cardekho.com/overview/Mercedes-Benz_S-Class/Mercedes-Benz_S-Class_S_63_AMG.htm'
p63
I25200000
sS'https://www.cardekho.com/overview/Maruti_Celerio/Maruti_Celerio_LXI_Optional.htm'
p64
I434999
sS'https://www.cardekho.com/overview/Mahindra_Scorpio/Mahindra_Scorpio_Intelli_Hybrid_S4_Plus_4WD.htm'
p65
I1204000
sS'https://www.cardekho.com/overview/Mahindra_XUV500/Mahindra_XUV500_W4_1.99_mHawk.htm'
p66
I1243000
sS'https://www.cardekho.com/overview/Mahindra_Bolero/Mahindra_Bolero_SLE.htm'
p67
I776000
sS'https://www.cardekho.com/overview/Maruti_Baleno/Maruti_Baleno_1.3_Zeta.htm'
p68
I786000
sS'https://www.cardekho.com/overview/Maruti_Alto_800/Maruti_Alto_800_CNG_LXI_Optional.htm'
p69
I390000
sS'https://www.cardekho.com/overview/Honda_Amaze/Honda_Amaze_S_Option_i-VTEC.htm'
p70
I655000
sS'https://www.cardekho.com/overview/Jaguar_XJ/Jaguar_XJ_2.0L_Portfolio.htm'
p71
I10200000
sS'https://www.cardekho.com/overview/Mahindra_Verito_Vibe/Mahindra_Verito_Vibe_1.5_dCi_D4.htm'
p72
I681000
sS'https://www.cardekho.com/overview/Mahindra_Verito/Mahindra_Verito_1.5_D6_BSIV.htm'
p73
I839000
sS'https://www.cardekho.com/overview/Chevrolet_Enjoy/Chevrolet_Enjoy_1.4_LTZ_8.htm'
p74
I635000
sS'https://www.cardekho.com/overview/Renault_KWID/Renault_KWID_1.0_RXT_Optional.htm'
p75
I413000
sS'https://www.cardekho.com/overview/Mahindra_Bolero/Mahindra_Bolero_ZLX_BSIII.htm'
p76
I839000
sS'https://www.cardekho.com/overview/Jeep_Grand_Cherokee/Jeep_Grand_Cherokee_Limited_4X4.htm'
p77
I9999000
sS'https://www.cardekho.com/overview/Audi_A8/Audi_A8_L_50_TDI_Quattro.htm'
p78
I12000000
sS'https://www.cardekho.com/overview/Hyundai_i20_Active/Hyundai_i20_Active_1.4.htm'
p79
I819999
sS'https://www.cardekho.com/overview/Chevrolet_Tavera/Chevrolet_Tavera_Neo_3_LS_7_C_BSIII.htm'
p80
I1036000
sS'https://www.cardekho.com/overview/Hyundai_Creta/Hyundai_Creta_1.4_CRDi_Base.htm'
p81
I1022000
sS'https://www.cardekho.com/overview/Skoda_Rapid/Skoda_Rapid_1.6_MPI_Ambition.htm'
p82
I932000
sS'https://www.cardekho.com/overview/Maruti_Celerio/Maruti_Celerio_VXI_AT_Optional.htm'
p83
I509999
sS'https://www.cardekho.com/overview/Honda_Mobilio/Honda_Mobilio_E_i-VTEC.htm'
p84
I761000
sS'https://www.cardekho.com/overview/Maruti_Alto_800/Maruti_Alto_800_CNG_LXI.htm'
p85
I384000
sS'https://www.cardekho.com/overview/Fiat_Abarth_Avventura/Fiat_Abarth_Avventura_1.4_T-Jet.htm'
p86
I1061000
sS'https://www.cardekho.com/overview/Mercedes-Benz_GL-Class/Mercedes-Benz_GL-Class_350_CDI_Blue_Efficiency.htm'
p87
I8120000
sS'https://www.cardekho.com/overview/BMW_X5/BMW_X5_xDrive_30d_Design_Pure_Experience_5_Seater.htm'
p88
I7200000
sS'https://www.cardekho.com/overview/Mahindra_Bolero/Mahindra_Bolero_ZLX.htm'
p89
I853999
sS'https://www.cardekho.com/overview/Mahindra_Thar/Mahindra_Thar_DI_4X2.htm'
p90
I616000
sS'https://www.cardekho.com/overview/Maruti_Alto_K10/Maruti_Alto_K10_LX.htm'
p91
I343000
sS'https://www.cardekho.com/overview/Maruti_Wagon_R_Stingray/Maruti_Wagon_R_Stingray_AMT_VXI.htm'
p92
I517000
sS'https://www.cardekho.com/overview/Datsun_GO/Datsun_GO_T.htm'
p93
I400000
sS'https://www.cardekho.com/overview/Honda_City/Honda_City_i_VTEC_VX.htm'
p94
I1122000
sS'https://www.cardekho.com/overview/Fiat_Grande_Punto/Fiat_Grande_Punto_EVO_Power_UP_1.3_Active.htm'
p95
I698000
sS'https://www.cardekho.com/overview/Mahindra_Xylo/Mahindra_Xylo_H4.htm'
p96
I959000
sS'https://www.cardekho.com/overview/Mercedes-Benz_S-Class/Mercedes-Benz_S-Class_Maybach_S600.htm'
p97
I26500000
sS'https://www.cardekho.com/overview/Fiat_500/Fiat_500_Abarth_595_Competizione.htm'
p98
I3040000
sS'https://www.cardekho.com/overview/Chevrolet_Sail_Hatchback/Chevrolet_Sail_Hatchback_1.2_LS.htm'
p99
I539000
sS'https://www.cardekho.com/overview/Ford_Ecosport/Ford_Ecosport_1.0_Ecoboost_Trend_Plus_BE.htm'
p100
I890000
sS'https://www.cardekho.com/overview/Premier_Rio/Premier_Rio_Petrol_GLX.htm'
p101
I682000
sS'https://www.cardekho.com/overview/Maserati_Gran_Turismo/Maserati_Gran_Turismo_4.2_V8.htm'
p102
I17900000
sS'https://www.cardekho.com/overview/Maruti_Omni/Maruti_Omni_MPI_Ambulance_BSIV.htm'
p103
I322000
sS'https://www.cardekho.com/overview/Mahindra_XUV500/Mahindra_XUV500_W6_2WD.htm'
p104
I1392000
sS'https://www.cardekho.com/overview/Force_Gurkha/Force_Gurkha_Hard_Top_BS3_4WD.htm'
p105
I968000
sS'https://www.cardekho.com/overview/Ford_Figo_Aspire/Ford_Figo_Aspire_1.5_TDCi_Trend.htm'
p106
I699000
sS'https://www.cardekho.com/overview/Maruti_Celerio/Maruti_Celerio_VXI_Optional.htm'
p107
I462000
sS'https://www.cardekho.com/overview/Land_Rover_Discovery_4/Land_Rover_Discovery_4_SDV6_HSE.htm'
p108
I12200000
sS'https://www.cardekho.com/overview/Hyundai_i20/Hyundai_i20_Magna_1.4_CRDi.htm'
p109
I754000
sS'https://www.cardekho.com/overview/Toyota_Innova/Toyota_Innova_2.5_VX_(Diesel)_7_Seater_BS_IV.htm'
p110
I1628000
sS'https://www.cardekho.com/overview/Mahindra_Scorpio/Mahindra_Scorpio_S10_AT_2WD.htm'
p111
I1438000
sS'https://www.cardekho.com/overview/Skoda_Octavia/Skoda_Octavia_Ambition_1.4_TSI_MT.htm'
p112
I1705999
sS'https://www.cardekho.com/overview/Honda_Jazz/Honda_Jazz_1.2_S_AT_i_VTEC.htm'
p113
I754000
sS'https://www.cardekho.com/overview/Ford_Figo/Ford_Figo_1.2P_Ambiente_MT.htm'
p114
I492000
sS'https://www.cardekho.com/overview/Maruti_Gypsy/Maruti_Gypsy_King_Soft_Top_MPI_BSIV.htm'
p115
I662000
sS'https://www.cardekho.com/overview/Mahindra_Verito/Mahindra_Verito_1.5_D4_BSIV.htm'
p116
I764000
sS'https://www.cardekho.com/overview/Volkswagen_Polo/Volkswagen_Polo_1.5_TDI_Comfortline.htm'
p117
I799000
sS'https://www.cardekho.com/overview/Chevrolet_Beat/Chevrolet_Beat_LS.htm'
p118
I473000
sS'https://www.cardekho.com/overview/Fiat_Avventura/Fiat_Avventura_Power_Up_1.3_Dynamic.htm'
p119
I891000
sS'https://www.cardekho.com/overview/Volkswagen_Ameo/Volkswagen_Ameo_1.2_MPI_Comfortline.htm'
p120
I621000
sS'https://www.cardekho.com/overview/Mahindra_XUV500/Mahindra_XUV500_W8_4WD.htm'
p121
I1660000
sS'https://www.cardekho.com/overview/Toyota_Innova_Crysta/Toyota_Innova_Crysta_2.7_GX_AT.htm'
p122
I1505000
sS'https://www.cardekho.com/overview/Mahindra_Bolero/Mahindra_Bolero_EX_NON_AC.htm'
p123
I699000
sS'https://www.cardekho.com/overview/Mercedes-Benz_B_Class/Mercedes-Benz_B_Class_B180_Sport.htm'
p124
I2997000
sS'https://www.cardekho.com/overview/Mercedes-Benz_GLS/Mercedes-Benz_GLS_350d_4MATIC.htm'
p125
I8336000
sS'https://www.cardekho.com/overview/Toyota_Innova/Toyota_Innova_2.5_GX_(Diesel)_7_Seater_BS_IV.htm'
p126
I1424000
sS'https://www.cardekho.com/overview/Honda_City/Honda_City_i_DTec_VX_Option_BL.htm'
p127
I1275000
sS'https://www.cardekho.com/overview/Renault_Lodgy/Renault_Lodgy_85PS_RxE.htm'
p128
I901000
sS'https://www.cardekho.com/overview/Porsche_Cayenne/Porsche_Cayenne_S.htm'
p129
I11800000
sS'https://www.cardekho.com/overview/Maruti_Ciaz/Maruti_Ciaz_ZDi_Plus_SHVS.htm'
p130
I1071000
sS'https://www.cardekho.com/overview/Mini_3_DOOR/Mini_3_DOOR_Cooper_D.htm'
p131
I2850000
sS'https://www.cardekho.com/overview/Tata_Xenon_XT/Tata_Xenon_XT_EX_4X4.htm'
p132
I1128000
sS'https://www.cardekho.com/overview/Mahindra_TUV_300/Mahindra_TUV_300_mHAWK100_T8_Dual_Tone.htm'
p133
I915000
sS'https://www.cardekho.com/overview/Maruti_Eeco/Maruti_Eeco_CNG_5_Seater_AC.htm'
p134
I463999
sS'https://www.cardekho.com/overview/Renault_Lodgy/Renault_Lodgy_85PS_RxL.htm'
p135
I988000
sS'https://www.cardekho.com/overview/Maruti_Omni/Maruti_Omni_MPI_STD_BSIV.htm'
p136
I291000
sS'https://www.cardekho.com/overview/Renault_KWID/Renault_KWID_1.0.htm'
p137
I400000
sS'https://www.cardekho.com/overview/Tata_Tiago/Tata_Tiago_1.2_Revotron_XM.htm'
p138
I413000
sS'https://www.cardekho.com/overview/Tata_Indigo_CS/Tata_Indigo_CS_eVX.htm'
p139
I620000
sS'https://www.cardekho.com/overview/Maruti_Swift_Dzire/Maruti_Swift_Dzire_ZDI.htm'
p140
I811999
sS'https://www.cardekho.com/overview/Chevrolet_Enjoy/Chevrolet_Enjoy_1.3_TCDi_LT_8.htm'
p141
I769000
sS'https://www.cardekho.com/overview/Mercedes-Benz_New_C-Class/Mercedes-Benz_New_C-Class_C_63_S_AMG.htm'
p142
I13200000
sS'https://www.cardekho.com/overview/Mahindra_TUV_300/Mahindra_TUV_300_T6.htm'
p143
I819000
sS'https://www.cardekho.com/overview/Porsche_Panamera/Porsche_Panamera_Diesel_250hp.htm'
p144
I11500000
sS'https://www.cardekho.com/overview/Maruti_Wagon_R_Stingray/Maruti_Wagon_R_Stingray_AMT_VXI_Optional.htm'
p145
I550000
sS'https://www.cardekho.com/overview/Hyundai_i10/Hyundai_i10_Sportz_1.1L_LPG.htm'
p146
I525000
sS'https://www.cardekho.com/overview/Mini_Cooper_Convertible/Mini_Cooper_Convertible_S.htm'
p147
I3390000
sS'https://www.cardekho.com/overview/Tata_Tiago/Tata_Tiago_1.05_Revotorq_XT_Option.htm'
p148
I545000
sS'https://www.cardekho.com/overview/Datsun_GO/Datsun_GO_T_Option.htm'
p149
I420000
sS'https://www.cardekho.com/overview/Ferrari_458_Speciale/Ferrari_458_Speciale_V8.htm'
p150
I40700000
sS'https://www.cardekho.com/overview/Volkswagen_Vento/Volkswagen_Vento_Celeste_1.2_TSI_Highline_AT.htm'
p151
I1151000
sS'https://www.cardekho.com/overview/Hyundai_i10/Hyundai_i10_Era.htm'
p152
I442000
sS'https://www.cardekho.com/overview/Maruti_Eeco/Maruti_Eeco_5_Seater_Standard.htm'
p153
I358000
sS'https://www.cardekho.com/overview/Toyota_Corolla_Altis/Toyota_Corolla_Altis_GL_MT.htm'
p154
I1757000
sS'https://www.cardekho.com/overview/Mercedes-Benz_E-Class/Mercedes-Benz_E-Class_E400_Cabriolet.htm'
p155
I8168000
sS'https://www.cardekho.com/overview/Mahindra_Supro/Mahindra_Supro_VX_8_Str_BSIII.htm'
p156
I494000
sS'https://www.cardekho.com/overview/Mahindra_Xylo/Mahindra_Xylo_H8_ABS_with_Airbags.htm'
p157
I1149000
sS'https://www.cardekho.com/overview/Mercedes-Benz_GLC_Class/Mercedes-Benz_GLC_Class_300_4MATIC_Sport.htm'
p158
I5802000
sS'https://www.cardekho.com/overview/Maruti_SX4_S_Cross/Maruti_SX4_S_Cross_DDiS_320_Alpha.htm'
p159
I1253000
sS'https://www.cardekho.com/overview/Force_One/Force_One_EX.htm'
p160
I1036999
sS'https://www.cardekho.com/overview/Porsche_Macan/Porsche_Macan_S_Diesel.htm'
p161
I10000000
sS'https://www.cardekho.com/overview/Maruti_Ciaz/Maruti_Ciaz_RS_ZDi_Plus_SHVS.htm'
p162
I964000
sS'https://www.cardekho.com/overview/Toyota_Etios_Cross/Toyota_Etios_Cross_1.4L_VD.htm'
p163
I814000
sS'https://www.cardekho.com/overview/ICML_Extreme/ICML_Extreme_LD_CRDFi_Non-AC_9Seater_BSIV.htm'
p164
I791000
sS'https://www.cardekho.com/overview/Porsche_Panamera/Porsche_Panamera_Turbo_S.htm'
p165
I23400000
sS'https://www.cardekho.com/overview/Mercedes-Benz_GLE_Class/Mercedes-Benz_GLE_Class_350d.htm'
p166
I7420000
sS'https://www.cardekho.com/overview/Jaguar_F_Type/Jaguar_F_Type_R_Coupe.htm'
p167
I19200000
sS'https://www.cardekho.com/overview/Nissan_Sunny/Nissan_Sunny_Diesel_XE.htm'
p168
I885000
sS'https://www.cardekho.com/overview/Mahindra_KUV_100/Mahindra_KUV_100_mFALCON_G80_K8_5str.htm'
p169
I626000
sS'https://www.cardekho.com/overview/Jeep_Wrangler/Jeep_Wrangler_4X4.htm'
p170
I7644000
sS'https://www.cardekho.com/overview/Honda_Jazz/Honda_Jazz_1.2_V_i_VTEC.htm'
p171
I737000
sS'https://www.cardekho.com/overview/Porsche_Cayenne/Porsche_Cayenne_S_Diesel.htm'
p172
I12100000
sS'https://www.cardekho.com/overview/Volvo_S60/Volvo_S60_D4_KINETIC.htm'
p173
I3361999
sS'https://www.cardekho.com/overview/Hyundai_Elantra/Hyundai_Elantra_1.6_SX.htm'
p174
I1668000
sS'https://www.cardekho.com/overview/Honda_Jazz/Honda_Jazz_1.5_SV_i_DTEC.htm'
p175
I835000
sS'https://www.cardekho.com/overview/Hyundai_Elantra/Hyundai_Elantra_2.0_SX_AT.htm'
p176
I1617000
sS'https://www.cardekho.com/overview/ICML_Extreme/ICML_Extreme_SD_CRDFi_9Seater_BSIII.htm'
p177
I927999
sS'https://www.cardekho.com/overview/Audi_RS6/Audi_RS6_4.0_TFSI.htm'
p178
I13799999
sS'https://www.cardekho.com/overview/Chevrolet_Tavera/Chevrolet_Tavera_Neo_3_LS_7_Seats_BSIII.htm'
p179
I1024000
sS'https://www.cardekho.com/overview/Mahindra_KUV_100/Mahindra_KUV_100_mFALCON_G80_K2_Plus.htm'
p180
I497000
sS'https://www.cardekho.com/overview/Maruti_Alto_K10/Maruti_Alto_K10_VXI_Airbag.htm'
p181
I397000
sS'https://www.cardekho.com/overview/Nissan_Sunny/Nissan_Sunny_Diesel_XL.htm'
p182
I951000
sS'https://www.cardekho.com/overview/Jeep_Grand_Cherokee/Jeep_Grand_Cherokee_SRT_4X4.htm'
p183
I12000000
sS'https://www.cardekho.com/overview/Skoda_Rapid/Skoda_Rapid_1.5_TDI_Ambition.htm'
p184
I1041000
sS'https://www.cardekho.com/overview/Volkswagen_Jetta/Volkswagen_Jetta_2.0L_TDI_Trendline.htm'
p185
I1520000
sS'https://www.cardekho.com/overview/Skoda_Superb/Skoda_Superb_LK_2.0_TDI_AT.htm'
p186
I3210000
sS'https://www.cardekho.com/overview/Tata_Bolt/Tata_Bolt_Revotron_XT.htm'
p187
I631000
sS'https://www.cardekho.com/overview/Force_One/Force_One_SX_ABS_7_Seating.htm'
p188
I1345000
sS'https://www.cardekho.com/overview/Mahindra_XUV500/Mahindra_XUV500_AT_W8_FWD.htm'
p189
I1679000
sS'https://www.cardekho.com/overview/Rolls-Royce_Phantom/Rolls-Royce_Phantom_Phantom.htm'
p190
I80000000
sS'https://www.cardekho.com/overview/Mahindra_XUV500/Mahindra_XUV500_W4.htm'
p191
I1258000
sS'https://www.cardekho.com/overview/Hyundai_Verna/Hyundai_Verna_1.4_VTVT.htm'
p192
I802000
sS'https://www.cardekho.com/overview/Porsche_911/Porsche_911_Turbo_Cabriolet.htm'
p193
I23900000
sS'https://www.cardekho.com/overview/Premier_Rio/Premier_Rio_LX.htm'
p194
I741000
sS'https://www.cardekho.com/overview/Porsche_Panamera/Porsche_Panamera_4.htm'
p195
I12300000
sS'https://www.cardekho.com/overview/Hyundai_Creta/Hyundai_Creta_1.6_CRDi_SX_Plus.htm'
p196
I1367000
sS'https://www.cardekho.com/overview/Honda_City/Honda_City_i_DTec_E.htm'
p197
I960000
sS'https://www.cardekho.com/overview/Renault_Duster/Renault_Duster_85PS_Diesel_STD.htm'
p198
I953999
sS'https://www.cardekho.com/overview/Mahindra_Xylo/Mahindra_Xylo_D4.htm'
p199
I944000
sS'https://www.cardekho.com/overview/BMW_3_Series/BMW_3_Series_320d_Sport.htm'
p200
I4270000
sS'https://www.cardekho.com/overview/Honda_Mobilio/Honda_Mobilio_V_i-DTEC.htm'
p201
I1117000
sS'https://www.cardekho.com/overview/Maruti_Eeco/Maruti_Eeco_5_Seater_AC.htm'
p202
I389000
sS'https://www.cardekho.com/overview/Hyundai_Creta/Hyundai_Creta_1.6_VTVT_E_Plus.htm'
p203
I1000000
sS'https://www.cardekho.com/overview/Volkswagen_Polo/Volkswagen_Polo_1.2_MPI_Trendline.htm'
p204
I558000
sS'https://www.cardekho.com/overview/Tata_Xenon_XT/Tata_Xenon_XT_EX_4X2.htm'
p205
I1023000
sS'https://www.cardekho.com/overview/Mahindra_KUV_100/Mahindra_KUV_100_mFALCON_D75_K2_Plus.htm'
p206
I584000
sS'https://www.cardekho.com/overview/Mercedes-Benz_S-Class/Mercedes-Benz_S-Class_S_500_Coupe.htm'
p207
I20900000
sS'https://www.cardekho.com/overview/BMW_7_Series/BMW_7_Series_730Ld_Design_Pure_Excellence_CBU.htm'
p208
I14400000
sS'https://www.cardekho.com/overview/Ferrari_FF/Ferrari_FF_GT.htm'
p209
I45599999
sS'https://www.cardekho.com/overview/Chevrolet_Sail_Hatchback/Chevrolet_Sail_Hatchback_1.3_TCDi_LT_ABS.htm'
p210
I759000
sS'https://www.cardekho.com/overview/Skoda_Octavia/Skoda_Octavia_Ambition_Plus_1.8_TSI_AT.htm'
p211
I1939999
sS'https://www.cardekho.com/overview/Mahindra_TUV_300/Mahindra_TUV_300_mHAWK100_T8_AMT.htm'
p212
I974000
sS'https://www.cardekho.com/overview/Maruti_Swift_Dzire/Maruti_Swift_Dzire_VDI.htm'
p213
I713000
sS'https://www.cardekho.com/overview/BMW_7_Series/BMW_7_Series_730Ld_M_Sport.htm'
p214
I12300000
sS'https://www.cardekho.com/overview/ICML_Extreme/ICML_Extreme_VD_DI_7Seater_BSIII.htm'
p215
I940000
sS'https://www.cardekho.com/overview/Honda_Mobilio/Honda_Mobilio_V_i-VTEC.htm'
p216
I999000
sS'https://www.cardekho.com/overview/Volvo_S60_Cross_Country/Volvo_S60_Cross_Country_D4_AWD.htm'
p217
I4068000
sS'https://www.cardekho.com/overview/Toyota_Innova_Crysta/Toyota_Innova_Crysta_2.7_GX_MT.htm'
p218
I1394000
sS'https://www.cardekho.com/overview/Volkswagen_Vento/Volkswagen_Vento_1.5_TDI_Highline.htm'
p219
I1149000
sS'https://www.cardekho.com/overview/Volkswagen_Polo/Volkswagen_Polo_Select_1.5_TDI_Highline.htm'
p220
I860000
sS'https://www.cardekho.com/overview/Toyota_Fortuner/Toyota_Fortuner_4x4_MT.htm'
p221
I2740000
sS'https://www.cardekho.com/overview/Lamborghini_Huracan/Lamborghini_Huracan_LP_580_2.htm'
p222
I29900000
sS'https://www.cardekho.com/overview/Land_Rover_Discovery_Sport/Land_Rover_Discovery_Sport_TD4_SE.htm'
p223
I5192000
sS'https://www.cardekho.com/overview/Mahindra_XUV500/Mahindra_XUV500_AT_W6_2WD.htm'
p224
I1481000
sS'https://www.cardekho.com/overview/Premier_Rio/Premier_Rio_GX_Beieg_Interior.htm'
p225
I645000
sS'https://www.cardekho.com/overview/BMW_6_Series/BMW_6_Series_640d_Eminence.htm'
p226
I11500000
sS'https://www.cardekho.com/overview/Maruti_Swift/Maruti_Swift_ZDi.htm'
p227
I763000
sS'https://www.cardekho.com/overview/Renault_Lodgy/Renault_Lodgy_85PS_Std.htm'
p228
I802999
sS'https://www.cardekho.com/overview/Fiat_Linea/Fiat_Linea_125S.htm'
p229
I1065000
sS'https://www.cardekho.com/overview/Chevrolet_Enjoy/Chevrolet_Enjoy_1.4_LT_8.htm'
p230
I574000
sS'https://www.cardekho.com/overview/Tata_Indigo_CS/Tata_Indigo_CS_LS_(TDI)_BS-III.htm'
p231
I554000
sS'https://www.cardekho.com/overview/Tata_Sumo/Tata_Sumo_Gold_CX.htm'
p232
I721000
sS'https://www.cardekho.com/overview/Honda_City/Honda_City_i_DTec_S.htm'
p233
I1027000
sS'https://www.cardekho.com/overview/Honda_City/Honda_City_i_VTEC_CVT_SV.htm'
p234
I1062000
sS'https://www.cardekho.com/overview/DC_Avanti/DC_Avanti_2.0_L.htm'
p235
I3593000
sS'https://www.cardekho.com/overview/Hyundai_Xcent/Hyundai_Xcent_1.1_CRDi_S.htm'
p236
I718000
sS'https://www.cardekho.com/overview/Hyundai_Verna/Hyundai_Verna_1.4_CRDi.htm'
p237
I931000
sS'https://www.cardekho.com/overview/Renault_Lodgy/Renault_Lodgy_World_Edition_85PS.htm'
p238
I1018000
sS'https://www.cardekho.com/overview/Renault_Duster/Renault_Duster_Petrol_RxE.htm'
p239
I873000
sS'https://www.cardekho.com/overview/Maruti_Swift/Maruti_Swift_VDI_Glory_Limited_Edition.htm'
p240
I666000
sS'https://www.cardekho.com/overview/Mitsubishi_Pajero/Mitsubishi_Pajero_Sport_4X2_AT.htm'
p241
I2734000
sS'https://www.cardekho.com/overview/Hyundai_i20_Active/Hyundai_i20_Active_1.2_S.htm'
p242
I755000
sS'https://www.cardekho.com/overview/Skoda_Rapid/Skoda_Rapid_1.5_TDI_Style_Plus_Black_Package.htm'
p243
I1124000
sS'https://www.cardekho.com/overview/Hyundai_Creta/Hyundai_Creta_1.6_VTVT_S.htm'
p244
I1052000
sS'https://www.cardekho.com/overview/Hyundai_i20/Hyundai_i20_Sportz_1.2.htm'
p245
I686000
sS'https://www.cardekho.com/overview/Mahindra_KUV_100/Mahindra_KUV_100_mFALCON_D75_K4_5str.htm'
p246
I596000
sS'https://www.cardekho.com/overview/Isuzu_MU_7/Isuzu_MU_7_AT_Premium.htm'
p247
I2391000
sS'https://www.cardekho.com/overview/Ford_Ecosport/Ford_Ecosport_1.5_Ti_VCT_MT_Ambiente.htm'
p248
I707000
sS'https://www.cardekho.com/overview/Chevrolet_Sail_Hatchback/Chevrolet_Sail_Hatchback_1.3_TCDi.htm'
p249
I602000
sS'https://www.cardekho.com/overview/Mercedes-Benz_GLA/Mercedes-Benz_GLA_45_AMG.htm'
p250
I7216000
sS'https://www.cardekho.com/overview/Mercedes-Benz_GLA_Class/Mercedes-Benz_GLA_Class_200_CDI_SPORT.htm'
p251
I3657000
sS'https://www.cardekho.com/overview/Audi_Q5/Audi_Q5_30_TDI_quattro_Premium.htm'
p252
I5012000
sS'https://www.cardekho.com/overview/Tata_Tiago/Tata_Tiago_1.2_Revotron_XT.htm'
p253
I444000
sS'https://www.cardekho.com/overview/Hyundai_Verna/Hyundai_Verna_1.6_SX_VTVT.htm'
p254
I994999
sS'https://www.cardekho.com/overview/Honda_Amaze/Honda_Amaze_VX_i_DTEC.htm'
p255
I853999
sS'https://www.cardekho.com/overview/Aston_Martin_Vantage/Aston_Martin_Vantage_V8_4.7L.htm'
p256
I25500000
sS'https://www.cardekho.com/overview/Hyundai_EON/Hyundai_EON_Magna_Plus_Option.htm'
p257
I416000
sS'https://www.cardekho.com/overview/Volkswagen_Ameo/Volkswagen_Ameo_1.2_MPI_Highline.htm'
p258
I719000
sS'https://www.cardekho.com/overview/Ford_Figo_Aspire/Ford_Figo_Aspire_1.5_TDCi_Titanium.htm'
p259
I722000
sS'https://www.cardekho.com/overview/Force_Gurkha/Force_Gurkha_Soft_Top_BS3_2WD.htm'
p260
I690000
sS'https://www.cardekho.com/overview/Mahindra_E_Verito/Mahindra_E_Verito_D2.htm'
p261
I950000
sS'https://www.cardekho.com/overview/Premier_Rio/Premier_Rio_CRDi4_LX.htm'
p262
I760000
sS'https://www.cardekho.com/overview/ICML_Extreme/ICML_Extreme_SD_CRDFi_9Seater_BSIV.htm'
p263
I959000
sS'https://www.cardekho.com/overview/Ford_Ecosport/Ford_Ecosport_1.5_Ti_VCT_MT_Titanium_BE.htm'
p264
I906000
sS'https://www.cardekho.com/overview/Force_Gurkha/Force_Gurkha_Soft_Top_BS3_4WD.htm'
p265
I943000
sS'https://www.cardekho.com/overview/BMW_X5/BMW_X5_xDrive_30d_Expedition.htm'
p266
I6790000
sS'https://www.cardekho.com/overview/Maruti_Alto_800/Maruti_Alto_800_LXI_Optional.htm'
p267
I328000
sS'https://www.cardekho.com/overview/Volvo_V40_Cross_Country/Volvo_V40_Cross_Country_T4.htm'
p268
I2748000
sS'https://www.cardekho.com/overview/Skoda_Rapid/Skoda_Rapid_1.6_MPI_Active.htm'
p269
I817000
sS'https://www.cardekho.com/overview/Hyundai_Xcent/Hyundai_Xcent_1.2_Kappa_SX.htm'
p270
I660000
sS'https://www.cardekho.com/overview/Honda_City/Honda_City_i_VTEC_E.htm'
p271
I833000
sS'https://www.cardekho.com/overview/Renault_Duster/Renault_Duster_110PS_Diesel_RxL.htm'
p272
I1135000
sS'https://www.cardekho.com/overview/Tata_Tiago/Tata_Tiago_1.05_Revotorq_XB.htm'
p273
I413000
sS'https://www.cardekho.com/overview/Toyota_Fortuner/Toyota_Fortuner_4x2_Manual.htm'
p274
I2555000
sS'https://www.cardekho.com/overview/Nissan_Terrano/Nissan_Terrano_XE_85_PS.htm'
p275
I998000
sS'https://www.cardekho.com/overview/Volkswagen_Polo/Volkswagen_Polo_GT_1.5_TDI.htm'
p276
I925000
sS'https://www.cardekho.com/overview/Mahindra_Bolero/Mahindra_Bolero_Plus_AC.htm'
p277
I785000
sS'https://www.cardekho.com/overview/Mahindra_KUV_100/Mahindra_KUV_100_mFALCON_D75_K6_Plus_5str.htm'
p278
I685000
sS'https://www.cardekho.com/overview/Mahindra_Scorpio/Mahindra_Scorpio_Adventure_Edition_4WD.htm'
p279
I1513000
sS'https://www.cardekho.com/overview/Tata_Sumo/Tata_Sumo_Gold_EX.htm'
p280
I787000
sS'https://www.cardekho.com/overview/Mercedes-Benz_New_C-Class/Mercedes-Benz_New_C-Class_C_200_CGI.htm'
p281
I4214000
sS'https://www.cardekho.com/overview/Maruti_Ciaz/Maruti_Ciaz_VDI_SHVS.htm'
p282
I873000
sS'https://www.cardekho.com/overview/Renault_KWID/Renault_KWID_RXE.htm'
p283
I320000
sS'https://www.cardekho.com/overview/Ford_Ecosport/Ford_Ecosport_1.5_TDCi_Trend_Plus.htm'
p284
I880000
sS'https://www.cardekho.com/overview/Renault_Duster/Renault_Duster_Adventure_Edition_85PS_RXE.htm'
p285
I992000
sS'https://www.cardekho.com/overview/Toyota_Etios_Cross/Toyota_Etios_Cross_1.5L_V.htm'
p286
I817000
sS'https://www.cardekho.com/overview/Mercedes-Benz_S-Class/Mercedes-Benz_S-Class_S_Guard.htm'
p287
I90600000
sS'https://www.cardekho.com/overview/Mahindra_Ssangyong_Rexton/Mahindra_Ssangyong_Rexton_RX6.htm'
p288
I2376000
sS'https://www.cardekho.com/overview/Honda_CR-V/Honda_CR-V_2.4L_4WD_AT.htm'
p289
I2715000
sS'https://www.cardekho.com/overview/Mahindra_E_Verito/Mahindra_E_Verito_D4.htm'
p290
I975000
sS'https://www.cardekho.com/overview/Datsun_GO/Datsun_GO_A.htm'
p291
I357000
sS'https://www.cardekho.com/overview/Ford_Figo/Ford_Figo_1.5D_Trend_MT.htm'
p292
I645000
sS'https://www.cardekho.com/overview/Skoda_Rapid/Skoda_Rapid_1.6_MPI_Style_Plus.htm'
p293
I1002000
sS'https://www.cardekho.com/overview/Maruti_Swift_Dzire/Maruti_Swift_Dzire_LDI.htm'
p294
I664000
sS'https://www.cardekho.com/overview/Mahindra_Bolero/Mahindra_Bolero_SLE_BSIII.htm'
p295
I760000
sS'https://www.cardekho.com/overview/Hyundai_Xcent/Hyundai_Xcent_1.2_Kappa_SX_Option_AT.htm'
p296
I802999
sS'https://www.cardekho.com/overview/Chevrolet_Enjoy/Chevrolet_Enjoy_1.3_TCDi_LS_7.htm'
p297
I699000
sS'https://www.cardekho.com/overview/Volkswagen_Ameo/Volkswagen_Ameo_1.5_TDI_Highline.htm'
p298
I860000
sS'https://www.cardekho.com/overview/Maruti_Alto_800/Maruti_Alto_800_VXI.htm'
p299
I341000
sS'https://www.cardekho.com/overview/Hyundai_Verna/Hyundai_Verna_1.6_CRDi_AT_S.htm'
p300
I1138000
sS'https://www.cardekho.com/overview/Rolls-Royce_Phantom/Rolls-Royce_Phantom_Coupe.htm'
p301
I40000000
sS'https://www.cardekho.com/overview/Maruti_Eeco/Maruti_Eeco_Flexi_Green.htm'
p302
I462000
sS'https://www.cardekho.com/overview/Maruti_Ciaz/Maruti_Ciaz_AT_VXi_Plus.htm'
p303
I974000
sS'https://www.cardekho.com/overview/BMW_6_Series/BMW_6_Series_640d_Design_Pure_Experience.htm'
p304
I12200000
sS'https://www.cardekho.com/overview/Tata_Zest/Tata_Zest_Quadrajet_1.3_75PS_XM.htm'
p305
I696000
sS'https://www.cardekho.com/overview/Honda_Mobilio/Honda_Mobilio_S_i-DTEC.htm'
p306
I996000
sS'https://www.cardekho.com/overview/Chevrolet_Beat/Chevrolet_Beat_Diesel_PS.htm'
p307
I536000
sS'https://www.cardekho.com/overview/Hyundai_Xcent/Hyundai_Xcent_1.1_CRDi_Base.htm'
p308
I643000
sS'https://www.cardekho.com/overview/Nissan_Sunny/Nissan_Sunny_XV_CVT.htm'
p309
I1094000
sS'https://www.cardekho.com/overview/ICML_Extreme/ICML_Extreme_Van_BSIII_AC.htm'
p310
I757000
sS'https://www.cardekho.com/overview/Mahindra_XUV500/Mahindra_XUV500_AT_W6_1.99_mHawk.htm'
p311
I1472000
sS'https://www.cardekho.com/overview/Mahindra_KUV_100/Mahindra_KUV_100_mFALCON_D75_K4.htm'
p312
I602000
sS'https://www.cardekho.com/overview/Chevrolet_Sail_Hatchback/Chevrolet_Sail_Hatchback_1.2_LS_ABS.htm'
p313
I563000
sS'https://www.cardekho.com/overview/Land_Rover_Range_Rover_Evoque/Land_Rover_Range_Rover_Evoque_Coupe_HSE_Dynamic.htm'
p314
I5290000
sS'https://www.cardekho.com/overview/Mercedes-Benz_CLS-Class/Mercedes-Benz_CLS-Class_250_CDI.htm'
p315
I7786000
sS'https://www.cardekho.com/overview/Jaguar_XF/Jaguar_XF_2.0_Petrol_Portfolio.htm'
p316
I6520000
sS'https://www.cardekho.com/overview/Honda_City/Honda_City_i_VTEC_SV.htm'
p317
I959000
sS'https://www.cardekho.com/overview/Hyundai_Xcent/Hyundai_Xcent_1.1_CRDi_SX.htm'
p318
I753000
sS'https://www.cardekho.com/overview/Chevrolet_Tavera/Chevrolet_Tavera_Neo_3_Max_10_Seats_BSIII.htm'
p319
I906000
sS'https://www.cardekho.com/overview/Nissan_Micra/Nissan_Micra_Diesel_XL_Optional.htm'
p320
I702000
sS'https://www.cardekho.com/overview/Honda_City/Honda_City_i_VTEC_VX_Option.htm'
p321
I1153000
sS'https://www.cardekho.com/overview/Volkswagen_Polo/Volkswagen_Polo_GT_TSI.htm'
p322
I914000
sS'https://www.cardekho.com/overview/Volvo_XC60/Volvo_XC60_D5_Inscription.htm'
p323
I5170000
sS'https://www.cardekho.com/overview/Tata_Zest/Tata_Zest_Quadrajet_1.3_75PS_XMS.htm'
p324
I724000
sS'https://www.cardekho.com/overview/Maruti_Ritz/Maruti_Ritz_VDi.htm'
p325
I618000
sS'https://www.cardekho.com/overview/Volkswagen_Beetle/Volkswagen_Beetle_1.4_TSI.htm'
p326
I3086000
sS'https://www.cardekho.com/overview/Honda_Jazz/Honda_Jazz_1.5_VX_i_DTEC.htm'
p327
I926000
sS'https://www.cardekho.com/overview/Mercedes-Benz_E-Class/Mercedes-Benz_E-Class_E250_CDI_Avantgarde.htm'
p328
I5208000
sS'https://www.cardekho.com/overview/Hyundai_Santa_Fe/Hyundai_Santa_Fe_2WD_AT.htm'
p329
I3030000
sS'https://www.cardekho.com/overview/Volvo_V40/Volvo_V40_D3.htm'
p330
I2519000
sS'https://www.cardekho.com/overview/Mahindra_Verito_Vibe/Mahindra_Verito_Vibe_1.5_dCi_D6.htm'
p331
I747000
sS'https://www.cardekho.com/overview/Volkswagen_Jetta/Volkswagen_Jetta_1.4_TSI_Trendline.htm'
p332
I1441000
sS'https://www.cardekho.com/overview/Maruti_Ertiga/Maruti_Ertiga_LXI_Option.htm'
p333
I712000
sS'https://www.cardekho.com/overview/Aston_Martin_DB11/Aston_Martin_DB11_V12.htm'
p334
I39700000
sS'https://www.cardekho.com/overview/Mercedes-Benz_GLE_Class/Mercedes-Benz_GLE_Class_400_4MATIC.htm'
p335
I7490000
sS'https://www.cardekho.com/overview/Maruti_Swift_Dzire/Maruti_Swift_Dzire_VXI.htm'
p336
I606000
sS'https://www.cardekho.com/overview/Maruti_Wagon_R/Maruti_Wagon_R_VXI_BS_IV.htm'
p337
I449000
sS'https://www.cardekho.com/overview/Hyundai_Grand_i10/Hyundai_Grand_i10_CRDi_Era.htm'
p338
I590000
sS'https://www.cardekho.com/overview/Chevrolet_Enjoy/Chevrolet_Enjoy_1.3_TCDi_LTZ_7.htm'
p339
I828999
sS'https://www.cardekho.com/overview/Mahindra_Scorpio/Mahindra_Scorpio_Intelli_Hybrid_S10_4WD.htm'
p340
I1486000
sS'https://www.cardekho.com/overview/Chevrolet_Sail_Hatchback/Chevrolet_Sail_Hatchback_1.2.htm'
p341
I488000
sS'https://www.cardekho.com/overview/Honda_BR-V/Honda_BR-V_i-DTEC_S_MT.htm'
p342
I1132000
sS'https://www.cardekho.com/overview/Volvo_XC_90/Volvo_XC_90_D5_Momentum.htm'
p343
I7631999
sS'https://www.cardekho.com/overview/Jaguar_F_Type/Jaguar_F_Type_3.0_V6_S.htm'
p344
I15600000
sS'https://www.cardekho.com/overview/Tata_Sumo/Tata_Sumo_Gold_GX.htm'
p345
I858000
sS'https://www.cardekho.com/overview/Volkswagen_Polo/Volkswagen_Polo_1.2_MPI_Highline.htm'
p346
I706000
sS'https://www.cardekho.com/overview/Volvo_S60/Volvo_S60_T6.htm'
p347
I4475000
sS'https://www.cardekho.com/overview/Hyundai_Xcent/Hyundai_Xcent_1.1_CRDi_S_Celebration_Edition.htm'
p348
I735000
sS'https://www.cardekho.com/overview/Mahindra_Bolero/Mahindra_Bolero_DI_-_AC_BS_III.htm'
p349
I711000
sS'https://www.cardekho.com/overview/Toyota_Corolla_Altis/Toyota_Corolla_Altis_VL_AT.htm'
p350
I1896000
sS'https://www.cardekho.com/overview/Maruti_Ertiga/Maruti_Ertiga_LXI.htm'
p351
I675000
sS'https://www.cardekho.com/overview/Maruti_Alto_K10/Maruti_Alto_K10_VXI_AMT.htm'
p352
I424000
sS'https://www.cardekho.com/overview/Maruti_Celerio/Maruti_Celerio_ZXI_Optional.htm'
p353
I519000
sS'https://www.cardekho.com/overview/Mahindra_Quanto/Mahindra_Quanto_C8.htm'
p354
I871000
sS'https://www.cardekho.com/overview/Maruti_Ertiga/Maruti_Ertiga_SHVS_LDI_Option.htm'
p355
I816000
sS'https://www.cardekho.com/overview/Audi_Q3/Audi_Q3_35_TDI_Dynamic_Edition.htm'
p356
I3942000
sS'https://www.cardekho.com/overview/Volvo_XC_90/Volvo_XC_90_D5_Inscription.htm'
p357
I9423000
sS'https://www.cardekho.com/overview/Mahindra_Xylo/Mahindra_Xylo_D2_BS_III.htm'
p358
I884000
sS'https://www.cardekho.com/overview/Mercedes-Benz_B_Class/Mercedes-Benz_B_Class_B200_CDI_Sport.htm'
p359
I3099000
sS'https://www.cardekho.com/overview/Maruti_Ritz/Maruti_Ritz_LXi.htm'
p360
I449000
sS'https://www.cardekho.com/overview/Maserati_Quattroporte/Maserati_Quattroporte_GTS.htm'
p361
I21800000
sS'https://www.cardekho.com/overview/Mercedes-Benz_New_C-Class/Mercedes-Benz_New_C-Class_C_220_CDI_Style.htm'
p362
I4034000
sS'https://www.cardekho.com/overview/Chevrolet_Cruze/Chevrolet_Cruze_LTZ.htm'
p363
I1671000
sS'https://www.cardekho.com/overview/Maserati_Quattroporte/Maserati_Quattroporte_Diesel.htm'
p364
I15000000
sS'https://www.cardekho.com/overview/Mahindra_Xylo/Mahindra_Xylo_D2_BS_IV.htm'
p365
I898000
sS'https://www.cardekho.com/overview/Jaguar_XF/Jaguar_XF_2.0_Petrol_Prestige.htm'
p366
I6442000
sS'https://www.cardekho.com/overview/Ford_Ecosport/Ford_Ecosport_1.5_TDCi_Titanium_BE.htm'
p367
I967000
sS'https://www.cardekho.com/overview/Maruti_Vitara_Brezza/Maruti_Vitara_Brezza_VDi_Option.htm'
p368
I826000
sS'https://www.cardekho.com/overview/Maruti_Omni/Maruti_Omni_E_MPI_STD_BSIV.htm'
p369
I293000
sS'https://www.cardekho.com/overview/Tata_Tiago/Tata_Tiago_1.2_Revotron_XE.htm'
p370
I383000
sS'https://www.cardekho.com/overview/Porsche_Panamera/Porsche_Panamera_GTS.htm'
p371
I16100000
sS'https://www.cardekho.com/overview/Hyundai_Santa_Fe/Hyundai_Santa_Fe_4WD_AT.htm'
p372
I3251000
sS'https://www.cardekho.com/overview/Ford_Figo_Aspire/Ford_Figo_Aspire_1.2_Ti-VCT_Titanium.htm'
p373
I611000
sS'https://www.cardekho.com/overview/Maruti_Swift_Dzire/Maruti_Swift_Dzire_AMT_ZDI.htm'
p374
I863000
sS'https://www.cardekho.com/overview/Nissan_Sunny/Nissan_Sunny_Diesel_XV.htm'
p375
I998000
sS'https://www.cardekho.com/overview/Jaguar_F_Type/Jaguar_F_Type_S_Coupe.htm'
p376
I14100000
sS'https://www.cardekho.com/overview/Chevrolet_Sail_Hatchback/Chevrolet_Sail_Hatchback_1.2_LT_ABS.htm'
p377
I636000
sS'https://www.cardekho.com/overview/Audi_A8/Audi_A8_L_Security.htm'
p378
I93699999
sS'https://www.cardekho.com/overview/Skoda_Superb/Skoda_Superb_Style_1.8_TSI_MT.htm'
p379
I2487000
sS'https://www.cardekho.com/overview/Mahindra_Scorpio/Mahindra_Scorpio_1.99_S4.htm'
p380
I1006000
sS'https://www.cardekho.com/overview/Tata_Bolt/Tata_Bolt_Quadrajet_XE.htm'
p381
I585000
sS'https://www.cardekho.com/overview/Datsun_RediGO/Datsun_RediGO_T_Option.htm'
p382
I322000
sS'https://www.cardekho.com/overview/Chevrolet_Tavera/Chevrolet_Tavera_Neo_3_LT_9_Seats_BSIII.htm'
p383
I1131000
sS'https://www.cardekho.com/overview/BMW_7_Series/BMW_7_Series_730Ld_Design_Pure_Excellence.htm'
p384
I11399999
sS'https://www.cardekho.com/overview/Tata_Nano/Tata_Nano_XMA.htm'
p385
I298000
sS'https://www.cardekho.com/overview/Tata_Nano/Tata_Nano_CNG_XM.htm'
p386
I291000
sS'https://www.cardekho.com/overview/Hyundai_EON/Hyundai_EON_LPG_Magna_Plus.htm'
p387
I430999
sS'https://www.cardekho.com/overview/Rolls-Royce_Ghost/Rolls-Royce_Ghost_Series_II_Standard.htm'
p388
I45000000
sS'https://www.cardekho.com/overview/Honda_BR-V/Honda_BR-V_i-DTEC_E_MT.htm'
p389
I1010000
sS'https://www.cardekho.com/overview/Datsun_GO_Plus/Datsun_GO_Plus_T.htm'
p390
I475000
sS'https://www.cardekho.com/overview/Honda_BR-V/Honda_BR-V_i-VTEC_S_MT.htm'
p391
I1021000
sS'https://www.cardekho.com/overview/Mercedes-Benz_CLA/Mercedes-Benz_CLA_200_CDI_Style.htm'
p392
I3217000
sS'https://www.cardekho.com/overview/Tata_Sumo/Tata_Sumo_Gold_CX_BSIII.htm'
p393
I685000
sS'https://www.cardekho.com/overview/Skoda_Rapid/Skoda_Rapid_1.6_MPI_AT_Style_Plus.htm'
p394
I1110000
sS'https://www.cardekho.com/overview/Land_Rover_Discovery_Sport/Land_Rover_Discovery_Sport_SD4_HSE_Luxury.htm'
p395
I6178000
sS'https://www.cardekho.com/overview/Chevrolet_Beat/Chevrolet_Beat_Diesel_LTZ.htm'
p396
I669000
sS'https://www.cardekho.com/overview/BMW_X1/BMW_X1_xDrive_20d_M_Sport.htm'
p397
I4099000
sS'https://www.cardekho.com/overview/Tata_Tiago/Tata_Tiago_1.2_Revotron_XB.htm'
p398
I337000
sS'https://www.cardekho.com/overview/Land_Rover_Discovery_Sport/Land_Rover_Discovery_Sport_Si4_HSE.htm'
p399
I5650000
sS'https://www.cardekho.com/overview/Fiat_Grande_Punto/Fiat_Grande_Punto_EVO_Power_UP_1.3_Dynamic.htm'
p400
I766000
sS'https://www.cardekho.com/overview/Mahindra_KUV_100/Mahindra_KUV_100_mFALCON_D75_K8_5str.htm'
p401
I719000
sS'https://www.cardekho.com/overview/Ford_Figo/Ford_Figo_1.5D_Titanium_MT.htm'
p402
I666000
sS'https://www.cardekho.com/overview/Maruti_Ertiga/Maruti_Ertiga_VXI_CNG.htm'
p403
I853999
sS'https://www.cardekho.com/overview/Mercedes-Benz_S-Class/Mercedes-Benz_S-Class_S_350_CDI.htm'
p404
I11900000
sS'https://www.cardekho.com/overview/Volkswagen_Jetta/Volkswagen_Jetta_2.0L_TDI_Comfortline.htm'
p405
I1670000
sS'https://www.cardekho.com/overview/Toyota_Corolla_Altis/Toyota_Corolla_Altis_1.8_Limited_Edition.htm'
p406
I1498000
sS'https://www.cardekho.com/overview/Mahindra_Bolero/Mahindra_Bolero_Plus_AC_BSIV_PS.htm'
p407
I801000
sS'https://www.cardekho.com/overview/Mahindra_TUV_300/Mahindra_TUV_300_T4.htm'
p408
I752000
sS'https://www.cardekho.com/overview/Jaguar_XJ/Jaguar_XJ_3.0L_Portfolio.htm'
p409
I10800000
sS'https://www.cardekho.com/overview/Toyota_Camry/Toyota_Camry_Hybrid.htm'
p410
I3344000
sS'https://www.cardekho.com/overview/Toyota_Etios/Toyota_Etios_1.4_VXD.htm'
p411
I896000
sS'https://www.cardekho.com/overview/Renault_KWID/Renault_KWID_RXT_Optional.htm'
p412
I391000
sS'https://www.cardekho.com/overview/Fiat_Linea_Classic/Fiat_Linea_Classic_Plus_With_Alloy_1.3_Multijet.htm'
p413
I839000
sS'https://www.cardekho.com/overview/Mahindra_KUV_100/Mahindra_KUV_100_mFALCON_G80_K6_5str.htm'
p414
I570000
sS'https://www.cardekho.com/overview/Renault_Pulse/Renault_Pulse_RxZ.htm'
p415
I701000
sS'https://www.cardekho.com/overview/Tata_Zest/Tata_Zest_Quadrajet_1.3_XT.htm'
p416
I786000
sS'https://www.cardekho.com/overview/Nissan_Micra/Nissan_Micra_AT.htm'
p417
I680000
sS'https://www.cardekho.com/overview/Renault_Duster/Renault_Duster_85PS_Diesel_RxE.htm'
p418
I974000
sS'https://www.cardekho.com/overview/Mahindra_Scorpio/Mahindra_Scorpio_1.99_S10.htm'
p419
I1324000
sS'https://www.cardekho.com/overview/Land_Rover_Range_Rover/Land_Rover_Range_Rover_LWB_4.4_SDV8_Autobiography.htm'
p420
I25900000
sS'https://www.cardekho.com/overview/Audi_Q5/Audi_Q5_30_TDI_quattro_Technology.htm'
p421
I5730000
sS'https://www.cardekho.com/overview/Audi_A8/Audi_A8_L_60_TDI_Quattro.htm'
p422
I13600000
sS'https://www.cardekho.com/overview/Tata_Zest/Tata_Zest_Revotron_1.2_XT.htm'
p423
I665000
sS'https://www.cardekho.com/overview/BMW_M_Series/BMW_M_Series_M4_Coupe.htm'
p424
I12800000
sS'https://www.cardekho.com/overview/Land_Rover_Range_Rover/Land_Rover_Range_Rover_LWB_5.0_V8.htm'
p425
I26700000
sS'https://www.cardekho.com/overview/Maruti_Vitara_Brezza/Maruti_Vitara_Brezza_LDi_Option.htm'
p426
I756000
sS'https://www.cardekho.com/overview/Honda_Jazz/Honda_Jazz_1.2_VX_i_VTEC.htm'
p427
I786000
sS'https://www.cardekho.com/overview/Hyundai_EON/Hyundai_EON_D_Lite_Plus.htm'
p428
I356000
sS'https://www.cardekho.com/overview/Mahindra_KUV_100/Mahindra_KUV_100_mFALCON_G80_K4_Plus_5str.htm'
p429
I532000
sS'https://www.cardekho.com/overview/Maruti_Swift_Dzire/Maruti_Swift_Dzire_ZXI.htm'
p430
I704000
sS'https://www.cardekho.com/overview/Honda_Jazz/Honda_Jazz_1.5_E_i_DTEC.htm'
p431
I712000
sS'https://www.cardekho.com/overview/Mahindra_Bolero/Mahindra_Bolero_Plus_Non_AC.htm'
p432
I743000
sS'https://www.cardekho.com/overview/BMW_Z4/BMW_Z4_35i_DPT.htm'
p433
I7850000
sS'https://www.cardekho.com/overview/Mercedes-Benz_A_Class/Mercedes-Benz_A_Class_A180_Sport.htm'
p434
I2794000
sS'https://www.cardekho.com/overview/Toyota_Etios/Toyota_Etios_1.4_VD.htm'
p435
I839000
sS'https://www.cardekho.com/overview/Land_Rover_Range_Rover/Land_Rover_Range_Rover_LWB_3.0_Vogue.htm'
p436
I21100000
sS'https://www.cardekho.com/overview/Honda_City/Honda_City_i_VTEC_VX_Option_BL.htm'
p437
I1153000
sS'https://www.cardekho.com/overview/Toyota_Innova/Toyota_Innova_2.5_ZX_Diesel_7_Seater.htm'
p438
I1697000
sS'https://www.cardekho.com/overview/Mahindra_KUV_100/Mahindra_KUV_100_mFALCON_G80_K6_Plus_5str.htm'
p439
I592000
sS'https://www.cardekho.com/overview/Mercedes-Benz_New_C-Class/Mercedes-Benz_New_C-Class_C_220_CDI_Avantgarde.htm'
p440
I4315000
sS'https://www.cardekho.com/overview/Renault_Duster/Renault_Duster_85PS_Diesel_RxZ.htm'
p441
I1175000
sS'https://www.cardekho.com/overview/Mahindra_Bolero/Mahindra_Bolero_DI_NON_AC_BS_III_White.htm'
p442
I668000
sS'https://www.cardekho.com/overview/Audi_A3/Audi_A3_40_TFSI_Premium.htm'
p443
I2815000
sS'https://www.cardekho.com/overview/Maruti_Swift/Maruti_Swift_LDI_BSIV.htm'
p444
I615000
sS'https://www.cardekho.com/overview/Chevrolet_Sail/Chevrolet_Sail_1.2_LT_ABS.htm'
p445
I730000
sS'https://www.cardekho.com/overview/Nissan_Micra_Active/Nissan_Micra_Active_XV.htm'
p446
I487000
sS'https://www.cardekho.com/overview/Bentley_Continental/Bentley_Continental_GT_V8_S.htm'
p447
I35600000
sS'https://www.cardekho.com/overview/Tata_Tiago/Tata_Tiago_1.2_Revotron_XT_Option.htm'
p448
I463999
sS'https://www.cardekho.com/overview/Mahindra_Scorpio/Mahindra_Scorpio_Getaway.htm'
p449
I905000
sS'https://www.cardekho.com/overview/Ferrari_488_GTB/Ferrari_488_GTB_V8.htm'
p450
I38800000
sS'https://www.cardekho.com/overview/Maruti_Celerio/Maruti_Celerio_LDI_Optional.htm'
p451
I516000
sS'https://www.cardekho.com/overview/Mahindra_XUV500/Mahindra_XUV500_AT_W10_FWD.htm'
p452
I1763000
sS'https://www.cardekho.com/overview/Skoda_Octavia/Skoda_Octavia_Ambition_2.0_TDI_AT.htm'
p453
I2035000
sS'https://www.cardekho.com/overview/Volkswagen_Jetta/Volkswagen_Jetta_1.4_TSI_Comfortline.htm'
p454
I1534000
sS'https://www.cardekho.com/overview/Honda_Amaze/Honda_Amaze_S_CVT_i-VTEC.htm'
p455
I748000
sS'https://www.cardekho.com/overview/Toyota_Camry/Toyota_Camry_2.5_G.htm'
p456
I3052000
sS'https://www.cardekho.com/overview/Hyundai_i10/Hyundai_i10_Magna_1.1L.htm'
p457
I466000
sS'https://www.cardekho.com/overview/Honda_BR-V/Honda_BR-V_i-VTEC_E_MT.htm'
p458
I903999
sS'https://www.cardekho.com/overview/Mahindra_Bolero/Mahindra_Bolero_Plus_-_Non-AC_BSIII_PS.htm'
p459
I726000
sS'https://www.cardekho.com/overview/Chevrolet_Tavera/Chevrolet_Tavera_Neo_3_LS_10_Seats_BSIII.htm'
p460
I989000
sS'https://www.cardekho.com/overview/Mahindra_Ssangyong_Rexton/Mahindra_Ssangyong_Rexton_RX7.htm'
p461
I2517000
sS'https://www.cardekho.com/overview/Maruti_Celerio/Maruti_Celerio_ZDi_Option.htm'
p462
I600000
sS'https://www.cardekho.com/overview/Renault_KWID/Renault_KWID_RXT.htm'
p463
I378000
sS'https://www.cardekho.com/overview/Mahindra_KUV_100/Mahindra_KUV_100_mFALCON_G80_K4_5str.htm'
p464
I509000
sS'https://www.cardekho.com/overview/Audi_Q5/Audi_Q5_30_TDI_quattro_Premium_Plus.htm'
p465
I5330000
sS'https://www.cardekho.com/overview/Tata_Bolt/Tata_Bolt_Quadrajet_XM.htm'
p466
I647000
sS'https://www.cardekho.com/overview/Toyota_Corolla_Altis/Toyota_Corolla_Altis_D-4D_G.htm'
p467
I1673000
sS'https://www.cardekho.com/overview/Hyundai_i10/Hyundai_i10_Sportz_1.1L.htm'
p468
I496000
sS'https://www.cardekho.com/overview/Maruti_Wagon_R/Maruti_Wagon_R_AMT_VXI.htm'
p469
I497000
sS'https://www.cardekho.com/overview/Mahindra_NuvoSport/Mahindra_NuvoSport_N4.htm'
p470
I770000
sS'https://www.cardekho.com/overview/Rolls-Royce_Phantom/Rolls-Royce_Phantom_Drophead_Coupe.htm'
p471
I40000000
sS'https://www.cardekho.com/overview/Lamborghini_Huracan/Lamborghini_Huracan_LP_610_4.htm'
p472
I34300000
sS'https://www.cardekho.com/overview/Volvo_S60/Volvo_S60_D4_Momentum.htm'
p473
I3913000
sS'https://www.cardekho.com/overview/BMW_Z4/BMW_Z4_35i.htm'
p474
I7750000
sS'https://www.cardekho.com/overview/Honda_CR-V/Honda_CR-V_2.0L_2WD_MT.htm'
p475
I2294000
sS'https://www.cardekho.com/overview/Mahindra_Bolero/Mahindra_Bolero_Special_Edition.htm'
p476
I861999
sS'https://www.cardekho.com/overview/Hyundai_EON/Hyundai_EON_D_Lite.htm'
p477
I329000
sS'https://www.cardekho.com/overview/Maruti_Alto_K10/Maruti_Alto_K10_LXI_CNG.htm'
p478
I424000
sS'https://www.cardekho.com/overview/Hyundai_Creta/Hyundai_Creta_1.6_CRDi_SX.htm'
p479
I1265000
sS'https://www.cardekho.com/overview/Mahindra_Thar/Mahindra_Thar_DI_4X2_PS.htm'
p480
I591000
sS'https://www.cardekho.com/overview/Tata_Nano/Tata_Nano_XTA.htm'
p481
I317000
sS'https://www.cardekho.com/overview/Mahindra_Verito/Mahindra_Verito_1.5_D2_BSIV.htm'
p482
I739000
sS'https://www.cardekho.com/overview/Fiat_Grande_Punto/Fiat_Grande_Punto_EVO_Power_Up_1.2_Dynamic.htm'
p483
I601000
sS'https://www.cardekho.com/overview/Chevrolet_Beat/Chevrolet_Beat_LT.htm'
p484
I522000
sS'https://www.cardekho.com/overview/Toyota_Prius/Toyota_Prius_Z6.htm'
p485
I4050000
sS'https://www.cardekho.com/overview/Porsche_911/Porsche_911_Turbo_S.htm'
p486
I26600000
sS'https://www.cardekho.com/overview/Toyota_Prius/Toyota_Prius_Z5.htm'
p487
I3879000
sS'https://www.cardekho.com/overview/Rolls-Royce_Phantom/Rolls-Royce_Phantom_Extended_Wheelbase.htm'
p488
I82500000
sS'https://www.cardekho.com/overview/Rolls-Royce_Wraith/Rolls-Royce_Wraith_Coupe.htm'
p489
I55000000
sS'https://www.cardekho.com/overview/Volkswagen_Ameo/Volkswagen_Ameo_1.5_TDI_Highline_AT.htm'
p490
I994999
sS'https://www.cardekho.com/overview/Hyundai_EON/Hyundai_EON_Magna_Plus.htm'
p491
I401999
sS'https://www.cardekho.com/overview/Mahindra_TUV_300/Mahindra_TUV_300_T6_Plus.htm'
p492
I844999
sS'https://www.cardekho.com/overview/Tata_Tiago/Tata_Tiago_1.2_Revotron_XM_Option.htm'
p493
I433000
sS'https://www.cardekho.com/overview/Mahindra_Scorpio/Mahindra_Scorpio_Intelli_Hybrid_S10.htm'
p494
I1350000
sS'https://www.cardekho.com/overview/Lamborghini_Huracan/Lamborghini_Huracan_LP_610_4_Spyder.htm'
p495
I38900000
sS'https://www.cardekho.com/overview/Mahindra_Quanto/Mahindra_Quanto_C2.htm'
p496
I712000
sS'https://www.cardekho.com/overview/Tata_Nano/Tata_Nano_XM.htm'
p497
I258000
sS'https://www.cardekho.com/overview/Ford_Figo_Aspire/Ford_Figo_Aspire_1.2_Ti-VCT_Trend.htm'
p498
I587000
sS'https://www.cardekho.com/overview/Renault_Duster/Renault_Duster_110PS_Diesel_RxL_AMT.htm'
p499
I1195000
sS'https://www.cardekho.com/overview/Maruti_Ertiga/Maruti_Ertiga_SHVS_VDI.htm'
p500
I881000
sS'https://www.cardekho.com/overview/Maruti_Swift_Dzire/Maruti_Swift_Dzire_VXI_AT_Optional.htm'
p501
I712000
sS'https://www.cardekho.com/overview/Porsche_Macan/Porsche_Macan_2L.htm'
p502
I7000000
sS'https://www.cardekho.com/overview/Volkswagen_Polo/Volkswagen_Polo_1.2_MPI_Comfortline.htm'
p503
I621000
sS'https://www.cardekho.com/overview/Mahindra_TUV_300/Mahindra_TUV_300_T6_Plus_AMT.htm'
p504
I919999
sS'https://www.cardekho.com/overview/Chevrolet_Enjoy/Chevrolet_Enjoy_1.4_LT_7.htm'
p505
I574000
sS'https://www.cardekho.com/overview/Maruti_Alto_800/Maruti_Alto_800_STD.htm'
p506
I261000
sS'https://www.cardekho.com/overview/Skoda_Yeti/Skoda_Yeti_Style_4X4.htm'
p507
I2376000
sS'https://www.cardekho.com/overview/Chevrolet_Sail/Chevrolet_Sail_1.2_LS_ABS.htm'
p508
I682000
sS'https://www.cardekho.com/overview/Volkswagen_Ameo/Volkswagen_Ameo_1.5_TDI_Comfortline.htm'
p509
I780000
sS'https://www.cardekho.com/overview/Honda_Amaze/Honda_Amaze_VX_CVT_i-VTEC.htm'
p510
I848000
sS'https://www.cardekho.com/overview/Mahindra_XUV500/Mahindra_XUV500_W10_2WD.htm'
p511
I1660000
sS'https://www.cardekho.com/overview/Mahindra_Scorpio/Mahindra_Scorpio_S2_7_Seater.htm'
p512
I973000
sS'https://www.cardekho.com/overview/Mercedes-Benz_GL-Class/Mercedes-Benz_GL-Class_63_AMG.htm'
p513
I23900000
sS'https://www.cardekho.com/overview/Mahindra_TUV_300/Mahindra_TUV_300_T8.htm'
p514
I908000
sS'https://www.cardekho.com/overview/Land_Rover_Range_Rover_Sport/Land_Rover_Range_Rover_Sport_HSE.htm'
p515
I15400000
sS'https://www.cardekho.com/overview/Mercedes-Benz_GLA_Class/Mercedes-Benz_GLA_Class_200.htm'
p516
I3550000
sS'https://www.cardekho.com/overview/Tata_Sumo/Tata_Sumo_Gold_EX_BSIII.htm'
p517
I774000
sS'https://www.cardekho.com/overview/Maruti_Swift/Maruti_Swift_LXI_Optional-O.htm'
p518
I515000
sS'https://www.cardekho.com/overview/Tata_Tiago/Tata_Tiago_1.2_Revotron_XZ_WO_Alloy.htm'
p519
I484000
sS'https://www.cardekho.com/overview/Ford_Endeavour/Ford_Endeavour_3.2_Trend_AT_4X4.htm'
p520
I2820000
sS'https://www.cardekho.com/overview/Land_Rover_Discovery_Sport/Land_Rover_Discovery_Sport_TD4_HSE_7S.htm'
p521
I5601000
sS'https://www.cardekho.com/overview/Hyundai_Grand_i10/Hyundai_Grand_i10_Sportz.htm'
p522
I574000
sS'https://www.cardekho.com/overview/Honda_Amaze/Honda_Amaze_S_i-DTEC.htm'
p523
I761000
sS'https://www.cardekho.com/overview/BMW_5_Series/BMW_5_Series_520i_Luxury_Line.htm'
p524
I5400000
sS'https://www.cardekho.com/overview/Volvo_XC_90/Volvo_XC_90_T8_Excellence.htm'
p525
I13100000
sS'https://www.cardekho.com/overview/Honda_Brio/Honda_Brio_1.2_VX_AT.htm'
p526
I697000
sS'https://www.cardekho.com/overview/Porsche_Panamera/Porsche_Panamera_Diesel.htm'
p527
I12300000
sS'https://www.cardekho.com/overview/Mercedes-Benz_GLE_Class/Mercedes-Benz_GLE_Class_Coupe.htm'
p528
I8956000
sS'https://www.cardekho.com/overview/BMW_3_Series/BMW_3_Series_320d_Luxury_Line.htm'
p529
I4270000
sS'https://www.cardekho.com/overview/BMW_3_Series/BMW_3_Series_320i_Luxury_Line.htm'
p530
I4270000
sS'https://www.cardekho.com/overview/Toyota_Innova_Crysta/Toyota_Innova_Crysta_2.8_GX_AT_8S.htm'
p531
I1641000
sS'https://www.cardekho.com/overview/Mahindra_KUV_100/Mahindra_KUV_100_mFALCON_G80_K4_Plus.htm'
p532
I538000
sS'https://www.cardekho.com/overview/Nissan_Micra_Active/Nissan_Micra_Active_XL.htm'
p533
I459000
sS'https://www.cardekho.com/overview/Volvo_V40/Volvo_V40_D3_R_Design.htm'
p534
I2820000
sS'https://www.cardekho.com/overview/Ford_Figo/Ford_Figo_1.5D_Base_MT.htm'
p535
I573000
sS'https://www.cardekho.com/overview/Tata_Tiago/Tata_Tiago_1.05_Revotorq_XE_Option.htm'
p536
I474000
sS'https://www.cardekho.com/overview/Maruti_Ritz/Maruti_Ritz_VDI_(ABS)_BS_IV.htm'
p537
I637000
sS'https://www.cardekho.com/overview/Honda_Amaze/Honda_Amaze_VX_i-VTEC.htm'
p538
I748000
sS'https://www.cardekho.com/overview/Audi_A4/Audi_A4_30_TFSI_Premium_Plus.htm'
p539
I3902000
sS'https://www.cardekho.com/overview/Ford_Figo/Ford_Figo_1.5P_Titanium_AT.htm'
p540
I741000
sS'https://www.cardekho.com/overview/Maruti_Wagon_R/Maruti_Wagon_R_AMT_VXI_Option.htm'
p541
I531000
sS'https://www.cardekho.com/overview/Skoda_Rapid/Skoda_Rapid_1.5_TDI_AT_Style_Plus_Black_Package.htm'
p542
I1254000
sS'https://www.cardekho.com/overview/Datsun_RediGO/Datsun_RediGO_D.htm'
p543
I242000
sS'https://www.cardekho.com/overview/Tata_Bolt/Tata_Bolt_Revotron_XE.htm'
p544
I468000
sS'https://www.cardekho.com/overview/Toyota_Corolla_Altis/Toyota_Corolla_Altis_D-4D_JS.htm'
p545
I1532000
sS'https://www.cardekho.com/overview/Chevrolet_Sail_Hatchback/Chevrolet_Sail_Hatchback_1.3_TCDi_LS_ABS.htm'
p546
I673000
sS'https://www.cardekho.com/overview/Mahindra_Supro/Mahindra_Supro_VX_8_Str.htm'
p547
I509999
sS'https://www.cardekho.com/overview/BMW_3_Series/BMW_3_Series_320d_M_Sport.htm'
p548
I4590000
sS'https://www.cardekho.com/overview/Mahindra_KUV_100/Mahindra_KUV_100_mFALCON_G80_K8.htm'
p549
I633000
sS'https://www.cardekho.com/overview/Mahindra_Ssangyong_Rexton/Mahindra_Ssangyong_Rexton_RX5.htm'
p550
I2130000
sS'https://www.cardekho.com/overview/BMW_3_Series/BMW_3_Series_320i_Prestige.htm'
p551
I3690000
sS'https://www.cardekho.com/overview/Ford_Ecosport/Ford_Ecosport_1.5_TDCi_Trend_Plus_BE.htm'
p552
I919999
sS'https://www.cardekho.com/overview/Toyota_Innova/Toyota_Innova_2.5_G_(Diesel)_7_Seater_BS_IV.htm'
p553
I1363000
sS'https://www.cardekho.com/overview/Mercedes-Benz_S-Class/Mercedes-Benz_S-Class_Maybach_S500.htm'
p554
I17300000
sS'https://www.cardekho.com/overview/Mitsubishi_Pajero/Mitsubishi_Pajero_Sport_4X4_Dual_Tone.htm'
p555
I2822000
sS'https://www.cardekho.com/overview/Ford_Figo_Aspire/Ford_Figo_Aspire_1.5_TDCi_Ambiente.htm'
p556
I650000
sS'https://www.cardekho.com/overview/Rolls-Royce_Dawn/Rolls-Royce_Dawn_Convertible.htm'
p557
I62500000
sS'https://www.cardekho.com/overview/BMW_7_Series/BMW_7_Series_750Li_Design_Pure_Excellence_CBU.htm'
p558
I16000000
sS'https://www.cardekho.com/overview/Honda_Brio/Honda_Brio_1.2_S_MT.htm'
p559
I533000
sS'https://www.cardekho.com/overview/Ford_Ecosport/Ford_Ecosport_1.5_TDCi_Trend.htm'
p560
I848000
sS'https://www.cardekho.com/overview/Jaguar_XF/Jaguar_XF_R_Supercharged_5.0_Litre_V8_Petrol.htm'
p561
I7420999
sS'https://www.cardekho.com/overview/Honda_CR-V/Honda_CR-V_2.0L_2WD_AT.htm'
p562
I2477000
sS'https://www.cardekho.com/overview/Mini_3_DOOR/Mini_3_DOOR_Cooper_S.htm'
p563
I3150000
sS'https://www.cardekho.com/overview/Datsun_GO/Datsun_GO_D.htm'
p564
I331000
sS'https://www.cardekho.com/overview/Hyundai_Verna/Hyundai_Verna_1.6_VTVT_AT_S.htm'
p565
I1011999
sS'https://www.cardekho.com/overview/Volkswagen_Vento/Volkswagen_Vento_1.5_TDI_Highline_AT.htm'
p566
I1273000
sS'https://www.cardekho.com/overview/Mahindra_Supro/Mahindra_Supro_LX_8_Str.htm'
p567
I484000
sS'https://www.cardekho.com/overview/Premier_Rio/Premier_Rio_Petrol_GX.htm'
p568
I653000
sS'https://www.cardekho.com/overview/Hyundai_Creta/Hyundai_Creta_1.6_CRDi_Anniversary_Edition.htm'
p569
I1406000
sS'https://www.cardekho.com/overview/Conquest_Evade/Conquest_Evade_SUV.htm'
p570
I85000000
sS'https://www.cardekho.com/overview/Volkswagen_Vento/Volkswagen_Vento_Celeste_1.5_TDI_Highline_AT.htm'
p571
I1283000
sS'https://www.cardekho.com/overview/Tata_Tiago/Tata_Tiago_1.05_Revotorq_XZ_WO_Alloy.htm'
p572
I564000
sS'https://www.cardekho.com/overview/Audi_RS7/Audi_RS7_Sportback.htm'
p573
I14300000
sS'https://www.cardekho.com/overview/Skoda_Rapid/Skoda_Rapid_1.5_TDI_Active.htm'
p574
I926000
sS'https://www.cardekho.com/overview/Volvo_XC60/Volvo_XC60_D4_KINETIC.htm'
p575
I4550000
sS'https://www.cardekho.com/overview/Toyota_Etios_Liva/Toyota_Etios_Liva_1.2_VX.htm'
p576
I641000
sS'https://www.cardekho.com/overview/Land_Rover_Range_Rover_Evoque/Land_Rover_Range_Rover_Evoque_HSE_Dynamic.htm'
p577
I6431999
sS'https://www.cardekho.com/overview/Hyundai_EON/Hyundai_EON_Era_Plus_Option.htm'
p578
I384000
sS'https://www.cardekho.com/overview/Porsche_Cayenne/Porsche_Cayenne_Turbo.htm'
p579
I17800000
sS'https://www.cardekho.com/overview/Toyota_Land_Cruiser_Prado/Toyota_Land_Cruiser_Prado_VX_L.htm'
p580
I9392000
sS'https://www.cardekho.com/overview/Tata_Indica_V2/Tata_Indica_V2_eLS.htm'
p581
I497000
sS'https://www.cardekho.com/overview/Honda_Mobilio/Honda_Mobilio_S_i-VTEC.htm'
p582
I869999
sS'https://www.cardekho.com/overview/Hyundai_i20/Hyundai_i20_Sportz_1.4_CRDi.htm'
p583
I813000
sS'https://www.cardekho.com/overview/Honda_Amaze/Honda_Amaze_E_i-VTEC.htm'
p584
I556000
sS'https://www.cardekho.com/overview/Hyundai_EON/Hyundai_EON_1.0_Magna_Plus_Option_O.htm'
p585
I459000
sS'https://www.cardekho.com/overview/ICML_Extreme/ICML_Extreme_LD_DI_Non-Ac_9Seater_BSIII.htm'
p586
I709000
sS'https://www.cardekho.com/overview/Tata_Tiago/Tata_Tiago_1.2_Revotron_XE_Option.htm'
p587
I401999
sS'https://www.cardekho.com/overview/Maruti_Celerio/Maruti_Celerio_Green_VXI_Optional.htm'
p588
I520000
sS'https://www.cardekho.com/overview/Tata_Indica_V2/Tata_Indica_V2_DLX_BSIII.htm'
p589
I511000
sS'https://www.cardekho.com/overview/Skoda_Rapid/Skoda_Rapid_1.5_TDI_AT_Ambition.htm'
p590
I1171000
sS'https://www.cardekho.com/overview/Volvo_XC60/Volvo_XC60_D4_Momentum.htm'
p591
I4790000
sS'https://www.cardekho.com/overview/Maruti_Swift/Maruti_Swift_VDI_Optional.htm'
p592
I690000
sS'https://www.cardekho.com/overview/Toyota_Etios_Liva/Toyota_Etios_Liva_1.4_VD.htm'
p593
I715000
sS'https://www.cardekho.com/overview/Land_Rover_Range_Rover/Land_Rover_Range_Rover_LWB_4.4_SDV8_Vogue_SE.htm'
p594
I25200000
sS'https://www.cardekho.com/overview/Mahindra_E_Verito/Mahindra_E_Verito_D6.htm'
p595
I1000000
sS'https://www.cardekho.com/overview/Audi_A3_cabriolet/Audi_A3_cabriolet_40_TFSI_Premium_Plus.htm'
p596
I5314000
sS'https://www.cardekho.com/overview/Honda_City/Honda_City_i_DTec_SV.htm'
p597
I1073000
sS'https://www.cardekho.com/overview/Renault_KWID/Renault_KWID_STD.htm'
p598
I279000
sS'https://www.cardekho.com/overview/Land_Rover_Range_Rover_Evoque/Land_Rover_Range_Rover_Evoque_HSE.htm'
p599
I5873000
sS'https://www.cardekho.com/overview/Porsche_Macan/Porsche_Macan_Turbo.htm'
p600
I11000000
sS'https://www.cardekho.com/overview/Mahindra_Scorpio/Mahindra_Scorpio_Getaway_4WD.htm'
p601
I1005000
sS'https://www.cardekho.com/overview/Land_Rover_Range_Rover_Sport/Land_Rover_Range_Rover_Sport_SVR.htm'
p602
I20700000
sS'https://www.cardekho.com/overview/Toyota_Etios_Liva/Toyota_Etios_Liva_1.2_G.htm'
p603
I570000
sS'https://www.cardekho.com/overview/Toyota_Innova_Crysta/Toyota_Innova_Crysta_2.7_GX_AT_8S.htm'
p604
I1510000
sS'https://www.cardekho.com/overview/Hyundai_Grand_i10/Hyundai_Grand_i10_Asta_Option.htm'
p605
I622000
sS'https://www.cardekho.com/overview/Mahindra_Xylo/Mahindra_Xylo_D2_Maxx_BSIV.htm'
p606
I864000
sS'https://www.cardekho.com/overview/Force_One/Force_One_SX_ABS_6_Seating.htm'
p607
I1333000
sS'https://www.cardekho.com/overview/Mahindra_Verito/Mahindra_Verito_1.5_Executive_edition.htm'
p608
I819999
sS'https://www.cardekho.com/overview/Ford_Figo/Ford_Figo_1.2P_Titanium_Plus_MT.htm'
p609
I641000
sS'https://www.cardekho.com/overview/Hyundai_Xcent/Hyundai_Xcent_1.2_Kappa_S_Celebration_Edition.htm'
p610
I644000
sS'https://www.cardekho.com/overview/Tata_Tiago/Tata_Tiago_1.05_Revotorq_XZ.htm'
p611
I581000
sS'https://www.cardekho.com/overview/Aston_Martin_Vanquish/Aston_Martin_Vanquish_V12.htm'
p612
I38500000
sS'https://www.cardekho.com/overview/Volkswagen_Vento/Volkswagen_Vento_1.5_TDI_Trendline.htm'
p613
I956000
sS'https://www.cardekho.com/overview/Land_Rover_Range_Rover/Land_Rover_Range_Rover_LWB_4.4_SDV8_Autobiography_Black_Edition.htm'
p614
I38500000
sS'https://www.cardekho.com/overview/Maruti_Baleno/Maruti_Baleno_1.2_CVT_Delta.htm'
p615
I718000
sS'https://www.cardekho.com/overview/Volkswagen_Jetta/Volkswagen_Jetta_2.0L_TDI_Highline.htm'
p616
I1837000
sS'https://www.cardekho.com/overview/Hyundai_Verna/Hyundai_Verna_1.6_CRDi_SX.htm'
p617
I1121000
sS'https://www.cardekho.com/overview/Honda_Amaze/Honda_Amaze_SX_i_DTEC.htm'
p618
I813000
sS'https://www.cardekho.com/overview/Mahindra_KUV_100/Mahindra_KUV_100_mFALCON_G80_K2.htm'
p619
I467000
sS'https://www.cardekho.com/overview/Jaguar_XF/Jaguar_XF_2.0_Diesel_Prestige.htm'
p620
I7023999
sS'https://www.cardekho.com/overview/Tata_Safari_Storme/Tata_Safari_Storme_EX.htm'
p621
I1242000
sS'https://www.cardekho.com/overview/Maruti_Alto_K10/Maruti_Alto_K10_LXI.htm'
p622
I360000
sS'https://www.cardekho.com/overview/Hyundai_i20/Hyundai_i20_Magna_1.2.htm'
p623
I629000
sS'https://www.cardekho.com/overview/Mini_5_DOOR/Mini_5_DOOR_Cooper_D.htm'
p624
I3190000
sS'https://www.cardekho.com/overview/Skoda_Rapid/Skoda_Rapid_1.6_MPI_Style_Plus_Black_Package.htm'
p625
I1015000
sS'https://www.cardekho.com/overview/Skoda_Octavia/Skoda_Octavia_Ambition_Plus_2.0_TDI_AT.htm'
p626
I2105000
sS'https://www.cardekho.com/overview/Honda_Mobilio/Honda_Mobilio_RS_i-DTEC.htm'
p627
I1242000
sS'https://www.cardekho.com/overview/Toyota_Fortuner/Toyota_Fortuner_2.5_4x2_AT_TRD_Sportivo.htm'
p628
I2672000
sS'https://www.cardekho.com/overview/ICML_Extreme/ICML_Extreme_Van_BSIII_Non_AC.htm'
p629
I711000
sS'https://www.cardekho.com/overview/Jaguar_XF/Jaguar_XF_2.0_Diesel_Pure.htm'
p630
I5345000
sS'https://www.cardekho.com/overview/Mercedes-Benz_E-Class/Mercedes-Benz_E-Class_E350_CDI_Avantgrade.htm'
p631
I6096000
sS'https://www.cardekho.com/overview/Chevrolet_Trailblazer/Chevrolet_Trailblazer_LTZ_4X2_AT.htm'
p632
I2750000
sS'https://www.cardekho.com/overview/Hyundai_Santa_Fe/Hyundai_Santa_Fe_2WD_MT.htm'
p633
I2902000
sS'https://www.cardekho.com/overview/Honda_Amaze/Honda_Amaze_S_Option_CVT_i-VTEC.htm'
p634
I760000
sS'https://www.cardekho.com/overview/Maruti_Celerio/Maruti_Celerio_LXI_AT_Optional.htm'
p635
I484000
sS'https://www.cardekho.com/overview/Ford_Endeavour/Ford_Endeavour_2.2_Titanium_AT_4X2.htm'
p636
I2806000
sS'https://www.cardekho.com/overview/Mercedes-Benz_GLC_Class/Mercedes-Benz_GLC_Class_220d_4MATIC_Style.htm'
p637
I5314000
sS'https://www.cardekho.com/overview/Mahindra_NuvoSport/Mahindra_NuvoSport_N8_AMT.htm'
p638
I1022000
sS'https://www.cardekho.com/overview/Maruti_Ertiga/Maruti_Ertiga_ZXI.htm'
p639
I853999
sS'https://www.cardekho.com/overview/Ford_Ecosport/Ford_Ecosport_1.5_Ti_VCT_MT_Titanium.htm'
p640
I886999
sS'https://www.cardekho.com/overview/Hyundai_Grand_i10/Hyundai_Grand_i10_Era.htm'
p641
I500000
sS'https://www.cardekho.com/overview/Honda_Amaze/Honda_Amaze_S_Option_i-DTEC.htm'
p642
I773000
sS'https://www.cardekho.com/overview/Honda_Brio/Honda_Brio_1.2_E_MT.htm'
p643
I482000
sS'https://www.cardekho.com/overview/Porsche_911/Porsche_911_Carrera_Cabriolet.htm'
p644
I15600000
sS'https://www.cardekho.com/overview/Maruti_Wagon_R_Stingray/Maruti_Wagon_R_Stingray_LXI_Optional.htm'
p645
I478000
sS'https://www.cardekho.com/overview/Volkswagen_Polo/Volkswagen_Polo_1.5_TDI_Highline.htm'
p646
I857000
sS'https://www.cardekho.com/overview/Ford_Endeavour/Ford_Endeavour_2.2_Trend_MT_4X4.htm'
p647
I2713000
sS'https://www.cardekho.com/overview/Maruti_Celerio/Maruti_Celerio_LDi.htm'
p648
I495000
sS'https://www.cardekho.com/overview/Porsche_Cayman/Porsche_Cayman_S_Tiptronic.htm'
p649
I10700000
sS'https://www.cardekho.com/overview/Ford_Figo/Ford_Figo_1.2P_Base_MT.htm'
p650
I462000
sS'https://www.cardekho.com/overview/Mahindra_Xylo/Mahindra_Xylo_H8.htm'
p651
I1028999
sS'https://www.cardekho.com/overview/Mahindra_XUV500/Mahindra_XUV500_W10_AWD.htm'
p652
I1772000
sS'https://www.cardekho.com/overview/Fiat_Linea_Classic/Fiat_Linea_Classic_1.3_Multijet.htm'
p653
I764000
sS'https://www.cardekho.com/overview/Land_Rover_Range_Rover_Evoque/Land_Rover_Range_Rover_Evoque_Pure.htm'
p654
I4794000
sS'https://www.cardekho.com/overview/Maruti_Alto_800/Maruti_Alto_800_LX.htm'
p655
I296000
sS'https://www.cardekho.com/overview/Hyundai_Grand_i10/Hyundai_Grand_i10_CRDi_Asta_Option.htm'
p656
I714000
sS'https://www.cardekho.com/overview/Honda_Amaze/Honda_Amaze_SX_i_VTEC.htm'
p657
I709000
sS'https://www.cardekho.com/overview/Nissan_Terrano/Nissan_Terrano_XL.htm'
p658
I998000
sS'https://www.cardekho.com/overview/Tata_New_Safari/Tata_New_Safari_DICOR_2.2_EX_4x2_BS_IV.htm'
p659
I1091000
sS'https://www.cardekho.com/overview/Honda_Jazz/Honda_Jazz_1.5_S_i_DTEC.htm'
p660
I782000
sS'https://www.cardekho.com/overview/Maruti_Swift/Maruti_Swift_1.2_DLX.htm'
p661
I480999
sS'https://www.cardekho.com/overview/Honda_Mobilio/Honda_Mobilio_V_Option_i-DTEC.htm'
p662
I1174000
sS'https://www.cardekho.com/overview/Mercedes-Benz_E-Class/Mercedes-Benz_E-Class_E_63_AMG.htm'
p663
I13100000
sS'https://www.cardekho.com/overview/Maruti_Ciaz/Maruti_Ciaz_VXi_Option.htm'
p664
I813000
sS'https://www.cardekho.com/overview/Audi_A3/Audi_A3_35_TDI_Premium.htm'
p665
I2814000
sS'https://www.cardekho.com/overview/Jaguar_F_Type/Jaguar_F_Type_5.0_V8_S.htm'
p666
I18400000
sS'https://www.cardekho.com/overview/Maruti_Swift/Maruti_Swift_VXI_Glory_Limited_Edition.htm'
p667
I548000
sS'https://www.cardekho.com/overview/Chevrolet_Beat/Chevrolet_Beat_LTZ.htm'
p668
I569000
sS'https://www.cardekho.com/overview/Volkswagen_Ameo/Volkswagen_Ameo_1.2_MPI_Trendline.htm'
p669
I544000
sS'https://www.cardekho.com/overview/Mahindra_KUV_100/Mahindra_KUV_100_mFALCON_D75_K4_Plus.htm'
p670
I625000
sS'https://www.cardekho.com/overview/Maruti_Wagon_R/Maruti_Wagon_R_LXI_BS_IV.htm'
p671
I428000
sS'https://www.cardekho.com/overview/Porsche_Panamera/Porsche_Panamera_Turbo.htm'
p672
I20099999
sS'https://www.cardekho.com/overview/Tata_Aria/Tata_Aria_Pride_4x4.htm'
p673
I1653000
sS'https://www.cardekho.com/overview/Maruti_SX4_S_Cross/Maruti_SX4_S_Cross_DDiS_200_Zeta.htm'
p674
I986000
sS'https://www.cardekho.com/overview/Land_Rover_Discovery_Sport/Land_Rover_Discovery_Sport_TD4_S.htm'
p675
I4692000
sS'https://www.cardekho.com/overview/Fiat_Linea/Fiat_Linea_Power_Up_1.4_Fire_Active.htm'
p676
I796000
sS'https://www.cardekho.com/overview/Ford_Figo_Aspire/Ford_Figo_Aspire_1.5_TDCi_Titanium_Plus.htm'
p677
I805000
sS'https://www.cardekho.com/overview/Mahindra_KUV_100/Mahindra_KUV_100_mFALCON_D75_K6_Plus.htm'
p678
I691000
sS'https://www.cardekho.com/overview/Hyundai_EON/Hyundai_EON_1.0_Kappa_Magna_Plus_Optional.htm'
p679
I449000
sS'https://www.cardekho.com/overview/Porsche_Cayman/Porsche_Cayman_GT4.htm'
p680
I13100000
sS'https://www.cardekho.com/overview/Fiat_Avventura_Urban_Cross/Fiat_Avventura_Urban_Cross_1.3_Multijet_Active.htm'
p681
I704000
sS'https://www.cardekho.com/overview/Maruti_Swift/Maruti_Swift_VDI_BS_IV.htm'
p682
I678000
sS'https://www.cardekho.com/overview/Maruti_Alto_K10/Maruti_Alto_K10_LXI_CNG_Optional.htm'
p683
I430000
sS'https://www.cardekho.com/overview/Volkswagen_Vento/Volkswagen_Vento_Celeste_1.5_TDI_Highline.htm'
p684
I1159000
sS'https://www.cardekho.com/overview/Mitsubishi_Pajero/Mitsubishi_Pajero_Sport_4X4.htm'
p685
I2773000
sS'https://www.cardekho.com/overview/Toyota_Etios/Toyota_Etios_1.5_G.htm'
p686
I692000
sS'https://www.cardekho.com/overview/Toyota_Innova_Crysta/Toyota_Innova_Crysta_2.7_GX_MT_8S.htm'
p687
I1399000
sS'https://www.cardekho.com/overview/Land_Rover_Range_Rover_Sport/Land_Rover_Range_Rover_Sport_S.htm'
p688
I11800000
sS'https://www.cardekho.com/overview/Hyundai_i20/Hyundai_i20_Magna_AT_1.4.htm'
p689
I919000
sS'https://www.cardekho.com/overview/Mercedes-Benz_CLA/Mercedes-Benz_CLA_200_CGI.htm'
p690
I3447999
sS'https://www.cardekho.com/overview/Maruti_Wagon_R_Stingray/Maruti_Wagon_R_Stingray_VXI.htm'
p691
I469000
sS'https://www.cardekho.com/overview/Audi_Q3/Audi_Q3_30_TDI_S_Edition.htm'
p692
I3165000
sS'https://www.cardekho.com/overview/Mahindra_KUV_100/Mahindra_KUV_100_mFALCON_G80_K4.htm'
p693
I516000
sS'https://www.cardekho.com/overview/Chevrolet_Beat/Chevrolet_Beat_Diesel_LT.htm'
p694
I621000
sS'https://www.cardekho.com/overview/Maruti_Celerio/Maruti_Celerio_VDi.htm'
p695
I521000
sS'https://www.cardekho.com/overview/Chevrolet_Beat/Chevrolet_Beat_Diesel_LS.htm'
p696
I572000
sS'https://www.cardekho.com/overview/Honda_Jazz/Honda_Jazz_1.2_S_i_VTEC.htm'
p697
I644000
sS'https://www.cardekho.com/overview/Porsche_911/Porsche_911_Carrera_S_Cabriolet.htm'
p698
I17600000
sS'https://www.cardekho.com/overview/Skoda_Rapid/Skoda_Rapid_1.5_TDI_Style_Plus.htm'
p699
I1111000
sS'https://www.cardekho.com/overview/Toyota_Corolla_Altis/Toyota_Corolla_Altis_D-4D_Limited_Edition.htm'
p700
I1630000
sS'https://www.cardekho.com/overview/Ford_Ecosport/Ford_Ecosport_1.5_TDCi_Titanium_Plus_BE.htm'
p701
I1018000
sS'https://www.cardekho.com/overview/Fiat_Avventura_Urban_Cross/Fiat_Avventura_Urban_Cross_1.4_T-Jet_Emotion.htm'
p702
I985000
sS'https://www.cardekho.com/overview/Nissan_Micra/Nissan_Micra_XL_CVT.htm'
p703
I598000
sS'https://www.cardekho.com/overview/Lamborghini_Huracan/Lamborghini_Huracan_AVIO.htm'
p704
I37100000
sS'https://www.cardekho.com/overview/Maruti_Eeco/Maruti_Eeco_7_Seater_Standard.htm'
p705
I376000
sS'https://www.cardekho.com/overview/Mercedes-Benz_CLA/Mercedes-Benz_CLA_200_CDI_Sport.htm'
p706
I3552000
sS'https://www.cardekho.com/overview/Land_Rover_Range_Rover_Sport/Land_Rover_Range_Rover_Sport_Autobiography.htm'
p707
I17800000
sS'https://www.cardekho.com/overview/BMW_M_Series/BMW_M_Series_M3_Sedan.htm'
p708
I12600000
sS'https://www.cardekho.com/overview/Audi_Q7/Audi_Q7_45_TDI_Quattro_Technology.htm'
p709
I7919000
sS'https://www.cardekho.com/overview/Lamborghini_Aventador/Lamborghini_Aventador_LP700_4.htm'
p710
I36900000
sS'https://www.cardekho.com/overview/Mahindra_Bolero/Mahindra_Bolero_SLX.htm'
p711
I830000
sS'https://www.cardekho.com/overview/Tata_New_Safari/Tata_New_Safari_DICOR_2.2_LX_4x2_BS_IV.htm'
p712
I967000
sS'https://www.cardekho.com/overview/Tata_Safari_Storme/Tata_Safari_Storme_VX_Varicor_400.htm'
p713
I1406000
sS'https://www.cardekho.com/overview/Chevrolet_Tavera/Chevrolet_Tavera_Neo_3_10_Seats_BSIII.htm'
p714
I811999
sS'https://www.cardekho.com/overview/Mercedes-Benz_E-Class/Mercedes-Benz_E-Class_E200_Edition_E.htm'
p715
I5188000
sS'https://www.cardekho.com/overview/Ford_Mustang/Ford_Mustang_V8.htm'
p716
I6609000
sS'https://www.cardekho.com/overview/Mahindra_Bolero/Mahindra_Bolero_LX_4WD_NON_AC_BS3.htm'
p717
I753000
sS'https://www.cardekho.com/overview/Hyundai_Elantra/Hyundai_Elantra_1.6_SX_Option.htm'
p718
I1800000
sS'https://www.cardekho.com/overview/Hyundai_i20/Hyundai_i20_Asta_Option_1.2.htm'
p719
I789000
sS'https://www.cardekho.com/overview/Toyota_Etios/Toyota_Etios_1.5_V.htm'
p720
I726000
sS'https://www.cardekho.com/overview/Maruti_Swift_Dzire/Maruti_Swift_Dzire_LXI_Optional-O.htm'
p721
I556000
sS'https://www.cardekho.com/overview/Maruti_Baleno/Maruti_Baleno_1.3_Delta.htm'
p722
I724000
sS'https://www.cardekho.com/overview/Tata_Indica_V2/Tata_Indica_V2_eLX.htm'
p723
I546000
sS'https://www.cardekho.com/overview/Renault_Lodgy/Renault_Lodgy_World_Edition_110PS.htm'
p724
I1084000
sS'https://www.cardekho.com/overview/Jaguar_XE/Jaguar_XE_Prestige.htm'
p725
I4491000
sS'https://www.cardekho.com/overview/Mahindra_NuvoSport/Mahindra_NuvoSport_N8.htm'
p726
I958000
sS'https://www.cardekho.com/overview/Porsche_911/Porsche_911_Turbo.htm'
p727
I22599999
sS'https://www.cardekho.com/overview/Mahindra_NuvoSport/Mahindra_NuvoSport_N4_Plus.htm'
p728
I806000
sS'https://www.cardekho.com/overview/Hyundai_Creta/Hyundai_Creta_1.6_CRDi_SX_Option.htm'
p729
I1475000
sS'https://www.cardekho.com/overview/Hyundai_Verna/Hyundai_Verna_1.6_CRDI_AT_SX_Option.htm'
p730
I1333000
sS'https://www.cardekho.com/overview/Maruti_Swift_Dzire/Maruti_Swift_Dzire_LXI.htm'
p731
I531000
sS'https://www.cardekho.com/overview/Fiat_Avventura_Urban_Cross/Fiat_Avventura_Urban_Cross_1.3_Multijet_Dynamic.htm'
p732
I766000
sS'https://www.cardekho.com/overview/Maruti_Wagon_R_Stingray/Maruti_Wagon_R_Stingray_LXI.htm'
p733
I444000
sS'https://www.cardekho.com/overview/Maruti_Swift_Dzire/Maruti_Swift_Dzire_VXi_AT.htm'
p734
I692000
sS'https://www.cardekho.com/overview/Skoda_Yeti/Skoda_Yeti_Style_4X2.htm'
p735
I2192000
sS'https://www.cardekho.com/overview/Maserati_Gran_Cabrio/Maserati_Gran_Cabrio_4.7_V8.htm'
p736
I20600000
sS'https://www.cardekho.com/overview/Honda_City/Honda_City_i_VTEC_CVT_VX.htm'
p737
I1234000
sS'https://www.cardekho.com/overview/Honda_Amaze/Honda_Amaze_E_Option_i-VTEC.htm'
p738
I568000
sS'https://www.cardekho.com/overview/Maruti_Alto_K10/Maruti_Alto_K10_LX_Optional.htm'
p739
I350000
sS'https://www.cardekho.com/overview/Toyota_Innova/Toyota_Innova_2.5_GX_(Diesel)_8_Seater_BS_IV.htm'
p740
I1428000
sS'https://www.cardekho.com/overview/Ford_Ecosport/Ford_Ecosport_1.5_TDCi_Signature.htm'
p741
I991000
sS'https://www.cardekho.com/overview/Tata_Bolt/Tata_Bolt_Revotron_XMS.htm'
p742
I563000
sS'https://www.cardekho.com/overview/Mahindra_Bolero/Mahindra_Bolero_LX_NON_AC_BS3.htm'
p743
I707000
sS'https://www.cardekho.com/overview/Tata_Aria/Tata_Aria_Pure_LX_4x2.htm'
p744
I1104000
sS'https://www.cardekho.com/overview/Chevrolet_Sail/Chevrolet_Sail_1.3_Base.htm'
p745
I720000
sS'https://www.cardekho.com/overview/Mahindra_TUV_300/Mahindra_TUV_300_T4_Plus.htm'
p746
I788000
sS'https://www.cardekho.com/overview/Maruti_Swift_Dzire/Maruti_Swift_Dzire_LXI_Option.htm'
p747
I535000
sS'https://www.cardekho.com/overview/Maruti_Baleno/Maruti_Baleno_1.2_Zeta.htm'
p748
I672000
sS'https://www.cardekho.com/overview/Hyundai_i20/Hyundai_i20_Era_1.2.htm'
p749
I569000
sS'https://www.cardekho.com/overview/Porsche_Cayenne/Porsche_Cayenne_S_Hybrid.htm'
p750
I15900000
sS'https://www.cardekho.com/overview/BMW_X3/BMW_X3_xDrive20d_Expedition.htm'
p751
I4750000
sS'https://www.cardekho.com/overview/Renault_Scala/Renault_Scala_Diesel_RxL.htm'
p752
I907000
sS'https://www.cardekho.com/overview/Premier_Rio/Premier_Rio_DX.htm'
p753
I607000
sS'https://www.cardekho.com/overview/Maruti_Ritz/Maruti_Ritz_ZDi.htm'
p754
I679000
sS'https://www.cardekho.com/overview/Mercedes-Benz_A_Class/Mercedes-Benz_A_Class_A200_D_Sport.htm'
p755
I2896000
sS'https://www.cardekho.com/overview/Nissan_Micra_Active/Nissan_Micra_Active_XV_S.htm'
p756
I533000
sS'https://www.cardekho.com/overview/Hyundai_Elantra/Hyundai_Elantra_2.0_SX_Option.htm'
p757
I1688000
sS'https://www.cardekho.com/overview/Datsun_RediGO/Datsun_RediGO_T.htm'
p758
I312000
sS'https://www.cardekho.com/overview/Mahindra_Quanto/Mahindra_Quanto_C6.htm'
p759
I818000
sS'https://www.cardekho.com/overview/Audi_S5/Audi_S5_Sportback.htm'
p760
I6434000
sS'https://www.cardekho.com/overview/Mahindra_Scorpio/Mahindra_Scorpio_1.99_S10_4WD.htm'
p761
I1445000
sS'https://www.cardekho.com/overview/Premier_Rio/Premier_Rio_CRDi4_DX.htm'
p762
I721000
sS'https://www.cardekho.com/overview/Bentley_Flying_Spur/Bentley_Flying_Spur_W12.htm'
p763
I34100000
sS'https://www.cardekho.com/overview/Maruti_Baleno/Maruti_Baleno_1.2_Sigma.htm'
p764
I544000
sS'https://www.cardekho.com/overview/Maruti_Wagon_R/Maruti_Wagon_R_LXI_CNG.htm'
p765
I483000
sS'https://www.cardekho.com/overview/Mahindra_Thar/Mahindra_Thar_DI_4X4.htm'
p766
I644000
sS'https://www.cardekho.com/overview/Mahindra_Scorpio/Mahindra_Scorpio_S8_7C_Seater.htm'
p767
I1255000
sS'https://www.cardekho.com/overview/Maruti_Swift_Dzire/Maruti_Swift_Dzire_VDI_Optional.htm'
p768
I725000
sS'https://www.cardekho.com/overview/Mahindra_Supro/Mahindra_Supro_ZX_5_Str.htm'
p769
I542000
sS'https://www.cardekho.com/overview/Toyota_Innova_Crysta/Toyota_Innova_Crysta_2.4_GX_MT.htm'
p770
I1506000
sS'https://www.cardekho.com/overview/Aston_Martin_Vantage/Aston_Martin_Vantage_V12_6.0L.htm'
p771
I35000000
sS'https://www.cardekho.com/overview/Chevrolet_Enjoy/Chevrolet_Enjoy_1.4_LS_7.htm'
p772
I508000
sS'https://www.cardekho.com/overview/Maruti_Baleno/Maruti_Baleno_1.2_Delta.htm'
p773
I610000
sS'https://www.cardekho.com/overview/Tata_Nano/Tata_Nano_XE.htm'
p774
I224000
sS'https://www.cardekho.com/overview/Audi_A4/Audi_A4_30_TFSI_Technology.htm'
p775
I4217000
sS'https://www.cardekho.com/overview/Mahindra_Bolero/Mahindra_Bolero_EX_AC.htm'
p776
I743000
sS'https://www.cardekho.com/overview/BMW_5_Series/BMW_5_Series_530d_M_Sport.htm'
p777
I6200000
sS'https://www.cardekho.com/overview/Ford_Figo_Aspire/Ford_Figo_Aspire_1.2_Ti-VCT_Ambiente.htm'
p778
I538000
sS'https://www.cardekho.com/overview/Maruti_Ciaz/Maruti_Ciaz_VDi_Option_SHVS.htm'
p779
I888000
sS'https://www.cardekho.com/overview/Fiat_Linea/Fiat_Linea_Power_Up_1.3_Active.htm'
p780
I919000
sS'https://www.cardekho.com/overview/Mahindra_XUV500/Mahindra_XUV500_W8_1.99_mHawk.htm'
p781
I1559000
sS'https://www.cardekho.com/overview/Ford_Figo/Ford_Figo_1.5D_Titanium_Plus_MT.htm'
p782
I731000
sS'https://www.cardekho.com/overview/Hyundai_Creta/Hyundai_Creta_1.4_CRDi_S.htm'
p783
I1147000
sS'https://www.cardekho.com/overview/Datsun_GO/Datsun_GO_A_EPS.htm'
p784
I380000
sS'https://www.cardekho.com/overview/Maruti_Swift/Maruti_Swift_ZXI.htm'
p785
I654000
sS'https://www.cardekho.com/overview/Tata_Zest/Tata_Zest_Revotron_1.2T_XMS.htm'
p786
I605000
sS'https://www.cardekho.com/overview/Mahindra_KUV_100/Mahindra_KUV_100_mFALCON_D75_K6.htm'
p787
I668000
sS'https://www.cardekho.com/overview/Ford_Endeavour/Ford_Endeavour_2.2_Trend_AT_4X2.htm'
p788
I2601000
sS'https://www.cardekho.com/overview/BMW_3_Series/BMW_3_Series_320d.htm'
p789
I3690000
sS'https://www.cardekho.com/overview/Datsun_GO_Plus/Datsun_GO_Plus_Style.htm'
p790
I476999
sS'https://www.cardekho.com/overview/Maruti_Ciaz/Maruti_Ciaz_AT_ZXi.htm'
p791
I1024000
sS'https://www.cardekho.com/overview/Nissan_Terrano/Nissan_Terrano_XV_D_Premium_AMT.htm'
p792
I1429000
sS'https://www.cardekho.com/overview/Mahindra_Bolero/Mahindra_Bolero_mHAWK_D70_ZLX.htm'
p793
I787000
sS'https://www.cardekho.com/overview/Chevrolet_Sail/Chevrolet_Sail_1.3_LS.htm'
p794
I763000
sS'https://www.cardekho.com/overview/Volkswagen_Polo/Volkswagen_Polo_Select_1.2_MPI_Highline.htm'
p795
I710000
sS'https://www.cardekho.com/overview/Renault_Duster/Renault_Duster_85PS_Diesel_RxL.htm'
p796
I1054000
sS'https://www.cardekho.com/overview/Tata_Zest/Tata_Zest_Revotron_1.2T_XE.htm'
p797
I520000
sS'https://www.cardekho.com/overview/Hyundai_Verna/Hyundai_Verna_1.6_CRDI_SX_Option.htm'
p798
I1250000
sS'https://www.cardekho.com/overview/Chevrolet_Beat/Chevrolet_Beat_PS.htm'
p799
I440000
sS'https://www.cardekho.com/overview/Mahindra_NuvoSport/Mahindra_NuvoSport_N6.htm'
p800
I878999
sS'https://www.cardekho.com/overview/BMW_i8/BMW_i8_Hybrid.htm'
p801
I21400000
sS'https://www.cardekho.com/overview/Hyundai_i20/Hyundai_i20_Asta_Option_1.4_CRDi.htm'
p802
I917000
sS'https://www.cardekho.com/overview/Maruti_Vitara_Brezza/Maruti_Vitara_Brezza_ZDi_Plus_Dual_Tone.htm'
p803
I1014000
sS'https://www.cardekho.com/overview/BMW_1_Series/BMW_1_Series_118d_Sport_Line.htm'
p804
I3100000
sS'https://www.cardekho.com/overview/Land_Rover_Range_Rover_Sport/Land_Rover_Range_Rover_Sport_SE.htm'
p805
I13400000
sS'https://www.cardekho.com/overview/Mahindra_KUV_100/Mahindra_KUV_100_mFALCON_G80_K6_Plus.htm'
p806
I599000
sS'https://www.cardekho.com/overview/Hyundai_Xcent/Hyundai_Xcent_1.2_Kappa_S.htm'
p807
I627000
sS'https://www.cardekho.com/overview/Honda_Mobilio/Honda_Mobilio_V_Option_i-VTEC.htm'
p808
I1055000
sS'https://www.cardekho.com/overview/Audi_A6/Audi_A6_35_TFSI_Matrix.htm'
p809
I5355000
sS'https://www.cardekho.com/overview/Porsche_Cayenne/Porsche_Cayenne_Turbo_S.htm'
p810
I24400000
sS'https://www.cardekho.com/overview/Hyundai_Xcent/Hyundai_Xcent_1.2_Kappa_SX_Option.htm'
p811
I730000
sS'https://www.cardekho.com/overview/Maruti_Wagon_R/Maruti_Wagon_R_LXI_CNG_Optional.htm'
p812
I503000
sS'https://www.cardekho.com/overview/Volkswagen_Vento/Volkswagen_Vento_1.2_TSI_Highline_AT.htm'
p813
I1142000
sS'https://www.cardekho.com/overview/Maruti_Celerio/Maruti_Celerio_ZXI_AT_Optional.htm'
p814
I533000
sS'https://www.cardekho.com/overview/Volkswagen_Vento/Volkswagen_Vento_1.6_Trendline.htm'
p815
I833000
sS'https://www.cardekho.com/overview/Premier_Rio/Premier_Rio_DX_Beige_Interior.htm'
p816
I712000
sS'https://www.cardekho.com/overview/Hyundai_Creta/Hyundai_Creta_1.4_CRDi_S_Plus.htm'
p817
I1239000
sS'https://www.cardekho.com/overview/Fiat_Linea_Classic/Fiat_Linea_Classic_Plus_1.3_Multijet.htm'
p818
I823000
sS'https://www.cardekho.com/overview/Volkswagen_Ameo/Volkswagen_Ameo_1.5_TDI_Trendline.htm'
p819
I650000
sS'https://www.cardekho.com/overview/Maserati_Ghibli/Maserati_Ghibli_Diesel.htm'
p820
I11200000
sS'https://www.cardekho.com/overview/ICML_Extreme/ICML_Extreme_LD_CRDFi_AC_M_Stg_9Seater_BSIV.htm'
p821
I808000
sS'https://www.cardekho.com/overview/Ford_Ecosport/Ford_Ecosport_1.5_TDCi_Titanium.htm'
p822
I948000
sS'https://www.cardekho.com/overview/Toyota_Innova_Crysta/Toyota_Innova_Crysta_2.8_GX_AT.htm'
p823
I1636000
sS'https://www.cardekho.com/overview/Honda_BR-V/Honda_BR-V_i-VTEC_V_MT.htm'
p824
I1125000
sS'https://www.cardekho.com/overview/Toyota_Etios_Cross/Toyota_Etios_Cross_1.2L_G.htm'
p825
I667000
sS'https://www.cardekho.com/overview/Honda_Jazz/Honda_Jazz_1.2_V_AT_i_VTEC.htm'
p826
I844000
sS'https://www.cardekho.com/overview/Mercedes-Benz_GLE_Class/Mercedes-Benz_GLE_Class_250d.htm'
p827
I6300000
sS'https://www.cardekho.com/overview/Audi_R8/Audi_R8_V10_Plus.htm'
p828
I22300000
sS'https://www.cardekho.com/overview/Bentley_Continental/Bentley_Continental_GT_Speed_Convertible.htm'
p829
I44300000
sS'https://www.cardekho.com/overview/Ford_Figo_Aspire/Ford_Figo_Aspire_1.2_Ti-VCT_Titanium_Plus.htm'
p830
I693000
sS'https://www.cardekho.com/overview/Toyota_Innova_Crysta/Toyota_Innova_Crysta_2.8_ZX_AT.htm'
p831
I2118000
sS'https://www.cardekho.com/overview/Maruti_Swift/Maruti_Swift_VXI_Deca.htm'
p832
I548000
sS'https://www.cardekho.com/overview/Hyundai_Creta/Hyundai_Creta_1.6_VTVT_E.htm'
p833
I938000
sS'https://www.cardekho.com/overview/Tata_Aria/Tata_Aria_Pleasure_4x2.htm'
p834
I1342000
sS'https://www.cardekho.com/overview/Maruti_Eeco/Maruti_Eeco_CNG_HTR_5-STR.htm'
p835
I426000
sS'https://www.cardekho.com/overview/Ford_Ecosport/Ford_Ecosport_1.5_TDCi_Ambiente.htm'
p836
I775000
sS'https://www.cardekho.com/overview/ICML_Extreme/ICML_Extreme_SD_DI_9Seater_BSIII.htm'
p837
I880000
sS'https://www.cardekho.com/overview/Renault_KWID/Renault_KWID_RXL.htm'
p838
I345000
sS'https://www.cardekho.com/overview/Maruti_Ertiga/Maruti_Ertiga_SHVS_ZDI.htm'
p839
I938000
sS'https://www.cardekho.com/overview/Tata_Indica_V2/Tata_Indica_V2_DLS_BSIII.htm'
p840
I472000
sS'https://www.cardekho.com/overview/Nissan_Terrano/Nissan_Terrano_XV_Premium_110_PS.htm'
p841
I1314000
sS'https://www.cardekho.com/overview/Toyota_Innova_Crysta/Toyota_Innova_Crysta_2.4_VX_MT.htm'
p842
I1793000
sS'https://www.cardekho.com/overview/Maruti_Celerio/Maruti_Celerio_LXI.htm'
p843
I415000
sS'https://www.cardekho.com/overview/Honda_Mobilio/Honda_Mobilio_E_i-DTEC.htm'
p844
I919999
sS'https://www.cardekho.com/overview/Maruti_Ertiga/Maruti_Ertiga_SHVS_LDI.htm'
p845
I809000
sS'https://www.cardekho.com/overview/Mahindra_Supro/Mahindra_Supro_LX_8_Str_BSIII.htm'
p846
I467000
sS'https://www.cardekho.com/overview/Audi_A8/Audi_A8_L_W12_quattro.htm'
p847
I18500000
sS'https://www.cardekho.com/overview/Ford_Ecosport/Ford_Ecosport_1.5_Ti_VCT_MT_Signature.htm'
p848
I944999
sS'https://www.cardekho.com/overview/Mercedes-Benz_GLC_Class/Mercedes-Benz_GLC_Class_220d_4MATIC_Sport.htm'
p849
I5757000
sS'https://www.cardekho.com/overview/ICML_Extreme/ICML_Extreme_LD_CRDFi_PS_AC_9Seater_BSIV.htm'
p850
I897000
sS'https://www.cardekho.com/overview/Bentley_Continental/Bentley_Continental_GT_V8_S_Convertible.htm'
p851
I39200000
sS'https://www.cardekho.com/overview/Land_Rover_Range_Rover/Land_Rover_Range_Rover_LWB_5.0_V8_Autobiography_Black_Edition.htm'
p852
I39500000
sS'https://www.cardekho.com/overview/Renault_Duster/Renault_Duster_110PS_Diesel_RxZ_AWD.htm'
p853
I1387000
sS'https://www.cardekho.com/overview/Bugatti_Veyron/Bugatti_Veyron_16.4_Grand_Sport.htm'
p854
I120000000
sS'https://www.cardekho.com/overview/ICML_Extreme/ICML_Extreme_LD_DI_PS_AC_9Seater_BSIII.htm'
p855
I815000
sS'https://www.cardekho.com/overview/Audi_A3/Audi_A3_35_TDI_Technology.htm'
p856
I3694000
sS'https://www.cardekho.com/overview/Mahindra_NuvoSport/Mahindra_NuvoSport_N6_AMT.htm'
p857
I944999
sS'https://www.cardekho.com/overview/Honda_City/Honda_City_i_DTec_VX_Option.htm'
p858
I1275000
sS'https://www.cardekho.com/overview/Datsun_GO/Datsun_GO_Style.htm'
p859
I397000
sS'https://www.cardekho.com/overview/Hyundai_Grand_i10/Hyundai_Grand_i10_Asta_Option_AT.htm'
p860
I698000
sS'https://www.cardekho.com/overview/Mercedes-Benz_GLA_Class/Mercedes-Benz_GLA_Class_200_CDI.htm'
p861
I3343000
sS'https://www.cardekho.com/overview/Maruti_Celerio/Maruti_Celerio_ZDi.htm'
p862
I552000
sS'https://www.cardekho.com/overview/Nissan_Terrano/Nissan_Terrano_XL_Plus_85_PS.htm'
p863
I1168000
sS'https://www.cardekho.com/overview/Audi_A6/Audi_A6_35_TDI.htm'
p864
I5355000
sS'https://www.cardekho.com/overview/Mercedes-Benz_SLC/Mercedes-Benz_SLC_43_AMG.htm'
p865
I7750000
sS'https://www.cardekho.com/overview/BMW_5_Series/BMW_5_Series_520d_Luxury_Line.htm'
p866
I5400000
sS'https://www.cardekho.com/overview/Audi_Q7/Audi_Q7_45_TDI_Quattro_Premium_Plus.htm'
p867
I7654000
sS'https://www.cardekho.com/overview/Maruti_SX4_S_Cross/Maruti_SX4_S_Cross_DDiS_200_Sigma.htm'
p868
I846000
sS'https://www.cardekho.com/overview/Volkswagen_Vento/Volkswagen_Vento_1.6_Highline.htm'
p869
I1015000
sS'https://www.cardekho.com/overview/Ferrari_California/Ferrari_California_T.htm'
p870
I32900000
sS'https://www.cardekho.com/overview/Volkswagen_Polo/Volkswagen_Polo_1.5_TDI_Trendline.htm'
p871
I704000
sS'https://www.cardekho.com/overview/BMW_5_Series/BMW_5_Series_520d_M_Sport.htm'
p872
I5400000
sS'https://www.cardekho.com/overview/Mahindra_Bolero/Mahindra_Bolero_Plus_-_AC_BSIII.htm'
p873
I750000
sS'https://www.cardekho.com/overview/Toyota_Fortuner/Toyota_Fortuner_4x2_AT.htm'
p874
I2655000
sS'https://www.cardekho.com/overview/Hyundai_Xcent/Hyundai_Xcent_1.1_CRDi_SX_Option.htm'
p875
I824000
sS'https://www.cardekho.com/overview/Tata_Bolt/Tata_Bolt_Quadrajet_XMS.htm'
p876
I670000
sS'https://www.cardekho.com/overview/Renault_Duster/Renault_Duster_110PS_Diesel_RxZ_AMT.htm'
p877
I1316000
sS'https://www.cardekho.com/overview/Mercedes-Benz_CLA/Mercedes-Benz_CLA_45_AMG.htm'
p878
I6970999
sS'https://www.cardekho.com/overview/Hyundai_i20/Hyundai_i20_Era_1.4_CRDi.htm'
p879
I693000
sS'https://www.cardekho.com/overview/Maruti_Ritz/Maruti_Ritz_VXi.htm'
p880
I505000
sS'https://www.cardekho.com/overview/Maruti_Ciaz/Maruti_Ciaz_ZXi.htm'
p881
I923000
sS'https://www.cardekho.com/overview/Toyota_Etios/Toyota_Etios_1.4_GD.htm'
p882
I805000
sS'https://www.cardekho.com/overview/Maruti_Alto_800/Maruti_Alto_800_Std_Optional.htm'
p883
I267000
sS'https://www.cardekho.com/overview/Maruti_Swift/Maruti_Swift_LXI.htm'
p884
I490000
sS'https://www.cardekho.com/overview/Honda_City/Honda_City_i_DTec_V.htm'
p885
I1142000
sS'https://www.cardekho.com/overview/Hyundai_Creta/Hyundai_Creta_1.6_VTVT_Anniversary_Edition.htm'
p886
I1250000
sS'https://www.cardekho.com/overview/Mahindra_KUV_100/Mahindra_KUV_100_mFALCON_D75_K2.htm'
p887
I561000
sS'https://www.cardekho.com/overview/Toyota_Corolla_Altis/Toyota_Corolla_Altis_D-4D_GL.htm'
p888
I1784000
sS'https://www.cardekho.com/overview/Isuzu_D-Max_V-Cross/Isuzu_D-Max_V-Cross_4X4.htm'
p889
I1249000
sS'https://www.cardekho.com/overview/Renault_Duster/Renault_Duster_Petrol_RxL.htm'
p890
I953999
sS'https://www.cardekho.com/overview/Land_Rover_Discovery_Sport/Land_Rover_Discovery_Sport_TD4_SE_7S.htm'
p891
I5343000
sS'https://www.cardekho.com/overview/Toyota_Fortuner/Toyota_Fortuner_4x4_AT.htm'
p892
I2840000
sS'https://www.cardekho.com/overview/Maruti_Celerio/Maruti_Celerio_ZXI.htm'
p893
I472000
sS'https://www.cardekho.com/overview/Tata_Tiago/Tata_Tiago_1.05_Revotorq_XM.htm'
p894
I495000
sS'https://www.cardekho.com/overview/Honda_City/Honda_City_i_VTEC_V.htm'
p895
I1015000
sS'https://www.cardekho.com/overview/Jaguar_XE/Jaguar_XE_Pure.htm'
p896
I4101000
sS'https://www.cardekho.com/overview/Hyundai_Xcent/Hyundai_Xcent_1.2_Kappa_Base.htm'
p897
I555000
sS'https://www.cardekho.com/overview/Hyundai_Verna/Hyundai_Verna_1.6_VTVT_AT_SX.htm'
p898
I1078000
sS'https://www.cardekho.com/overview/Hyundai_Verna/Hyundai_Verna_1.6_VTVT_SX_Option.htm'
p899
I1103000
sS'https://www.cardekho.com/overview/Chevrolet_Enjoy/Chevrolet_Enjoy_1.3_TCDi_LTZ_8.htm'
p900
I828999
sS'https://www.cardekho.com/overview/BMW_M_Series/BMW_M_Series_X5_M.htm'
p901
I16200000
sS'https://www.cardekho.com/overview/Toyota_Innova_Crysta/Toyota_Innova_Crysta_2.4_ZX_MT.htm'
p902
I1988000
sS'https://www.cardekho.com/overview/Hyundai_Grand_i10/Hyundai_Grand_i10_CRDi_Magna.htm'
p903
I619000
sS'https://www.cardekho.com/overview/Mahindra_e2o/Mahindra_e2o_T2.htm'
p904
I677000
sS'https://www.cardekho.com/overview/Audi_Q5/Audi_Q5_45_TDI_quattro_Technology.htm'
p905
I6431999
sS'https://www.cardekho.com/overview/Mahindra_Scorpio/Mahindra_Scorpio_Intelli_Hybrid_S4.htm'
p906
I1042000
sS'https://www.cardekho.com/overview/Fiat_Punto_Pure/Fiat_Punto_Pure_1.3L_Advanced_Multi-Jet.htm'
p907
I591000
sS'https://www.cardekho.com/overview/Hyundai_i20_Active/Hyundai_i20_Active_1.4_SX_with_AVN.htm'
p908
I988000
sS'https://www.cardekho.com/overview/Maruti_Baleno/Maruti_Baleno_1.3_Sigma.htm'
p909
I657000
sS'https://www.cardekho.com/overview/Chevrolet_Enjoy/Chevrolet_Enjoy_1.3_TCDi_LT_7.htm'
p910
I769000
sS'https://www.cardekho.com/overview/Fiat_Avventura/Fiat_Avventura_Power_Up_1.3_Active.htm'
p911
I806000
sS'https://www.cardekho.com/overview/Toyota_Corolla_Altis/Toyota_Corolla_Altis_G_MT.htm'
p912
I1561000
sS'https://www.cardekho.com/overview/Maruti_Ciaz/Maruti_Ciaz_VXi.htm'
p913
I795000
sS'https://www.cardekho.com/overview/Nissan_Sunny/Nissan_Sunny_XL.htm'
p914
I844999
sS'https://www.cardekho.com/overview/Renault_Pulse/Renault_Pulse_RxL_Optional.htm'
p915
I628000
sS'https://www.cardekho.com/overview/Volvo_S60/Volvo_S60_D5_Inscription.htm'
p916
I4243000
sS'https://www.cardekho.com/overview/Porsche_Boxster/Porsche_Boxster_GTS.htm'
p917
I9202000
sS'https://www.cardekho.com/overview/Fiat_Punto_Abarth/Fiat_Punto_Abarth_1.4_T-Jet.htm'
p918
I999000
sS'https://www.cardekho.com/overview/Maruti_Swift/Maruti_Swift_LDI_Optional.htm'
p919
I636000
sS'https://www.cardekho.com/overview/Renault_Duster/Renault_Duster_110PS_Diesel_RxZ.htm'
p920
I1256000
sS'https://www.cardekho.com/overview/Jaguar_XE/Jaguar_XE_Portfolio.htm'
p921
I4933000
sS'https://www.cardekho.com/overview/Rolls-Royce_Ghost/Rolls-Royce_Ghost_Series_II_Extended_Wheelbase.htm'
p922
I30500000
sS'https://www.cardekho.com/overview/Lamborghini_Aventador/Lamborghini_Aventador_Roadster_LP_700_4.htm'
p923
I47800000
sS'https://www.cardekho.com/overview/Tata_Safari_Storme/Tata_Safari_Storme_LX.htm'
p924
I1039000
sS'https://www.cardekho.com/overview/Tata_Indigo_CS/Tata_Indigo_CS_eGLS_BS_IV.htm'
p925
I501000
sS'https://www.cardekho.com/overview/Toyota_Etios/Toyota_Etios_1.5_VX.htm'
p926
I783000
sS'https://www.cardekho.com/overview/Skoda_Octavia/Skoda_Octavia_Style_Plus_1.8_TSI_AT.htm'
p927
I2159000
sS'https://www.cardekho.com/overview/BMW_X1/BMW_X1_xDrive_20d_xLine.htm'
p928
I3699000
sS'https://www.cardekho.com/overview/Honda_BR-V/Honda_BR-V_i-DTEC_VX_MT.htm'
p929
I1328000
sS'https://www.cardekho.com/overview/Hyundai_Elantra/Hyundai_Elantra_2.0_SX_Option_AT.htm'
p930
I1830999
sS'https://www.cardekho.com/overview/Tata_Zest/Tata_Zest_Quadrajet_1.3_XMA.htm'
p931
I782000
sS'https://www.cardekho.com/overview/Datsun_GO_Plus/Datsun_GO_Plus_A_EPS.htm'
p932
I451000
sS'https://www.cardekho.com/overview/Maruti_SX4_S_Cross/Maruti_SX4_S_Cross_DDiS_200_Delta.htm'
p933
I919000
sS'https://www.cardekho.com/overview/ICML_Extreme/ICML_Extreme_Ambulance_DI_Non_AC_BSIII.htm'
p934
I691000
sS'https://www.cardekho.com/overview/Ford_Ecosport/Ford_Ecosport_1.5_Ti_VCT_MT_Trend.htm'
p935
I787000
sS'https://www.cardekho.com/overview/Toyota_Innova_Crysta/Toyota_Innova_Crysta_2.4_GX_MT_8S.htm'
p936
I1511000
sS'https://www.cardekho.com/overview/Mahindra_Scorpio/Mahindra_Scorpio_1.99_S4_Plus_4WD.htm'
p937
I1172000
sS'https://www.cardekho.com/overview/Tata_Tiago/Tata_Tiago_1.05_Revotorq_XE.htm'
p938
I454000
sS'https://www.cardekho.com/overview/Hyundai_Elantra/Hyundai_Elantra_2.0_SX.htm'
p939
I1505000
sS'https://www.cardekho.com/overview/BMW_M_Series/BMW_M_Series_M5_Sedan.htm'
p940
I13600000
sS'https://www.cardekho.com/overview/Datsun_RediGO/Datsun_RediGO_A.htm'
p941
I286000
sS'https://www.cardekho.com/overview/Audi_A8/Audi_A8_L_60_TFSI_Quattro.htm'
p942
I14100000
sS'https://www.cardekho.com/overview/Mahindra_XUV500/Mahindra_XUV500_W6_1.99_mHawk.htm'
p943
I1385000
sS'https://www.cardekho.com/overview/Mahindra_KUV_100/Mahindra_KUV_100_mFALCON_G80_K6.htm'
p944
I576000
sS'https://www.cardekho.com/overview/Maruti_Ritz/Maruti_Ritz_VXi_(ABS)_BS_IV.htm'
p945
I531000
sS'https://www.cardekho.com/overview/Maruti_Ciaz/Maruti_Ciaz_RS_ZXi_Plus.htm'
p946
I948000
sS'https://www.cardekho.com/overview/Ford_Ecosport/Ford_Ecosport_1.5_Ti_VCT_AT_Titanium.htm'
p947
I994000
sS'https://www.cardekho.com/overview/Toyota_Fortuner/Toyota_Fortuner_2.5_4x2_MT_TRD_Sportivo.htm'
p948
I2572000
sS'https://www.cardekho.com/overview/Hyundai_EON/Hyundai_EON_Era_Plus.htm'
p949
I370000
sS'https://www.cardekho.com/overview/Fiat_Linea/Fiat_Linea_Power_Up_1.3_Dynamic.htm'
p950
I999000
sS'https://www.cardekho.com/overview/Jaguar_XJ/Jaguar_XJ_3.0L_Premium_Luxury.htm'
p951
I10100000
sS'https://www.cardekho.com/overview/BMW_X6/BMW_X6_xDrive_40d_M_Sport.htm'
p952
I12000000
sS'https://www.cardekho.com/overview/Porsche_911/Porsche_911_Turbo_S_Cabriolet.htm'
p953
I28200000
sS'https://www.cardekho.com/overview/Ford_Ecosport/Ford_Ecosport_1.0_Ecoboost_Trend_Plus.htm'
p954
I849000
sS'https://www.cardekho.com/overview/Bentley_Continental/Bentley_Continental_GTC.htm'
p955
I39100000
sS'https://www.cardekho.com/overview/Mahindra_Supro/Mahindra_Supro_VX_5_Str.htm'
p956
I505000
sS'https://www.cardekho.com/overview/Nissan_Sunny/Nissan_Sunny_XE.htm'
p957
I797000
sS'https://www.cardekho.com/overview/Mahindra_Bolero/Mahindra_Bolero_Plus_AC_BSIII_PS.htm'
p958
I767000
sS'https://www.cardekho.com/overview/Skoda_Octavia/Skoda_Octavia_Ambition_2.0_TDI_MT.htm'
p959
I1898999
sS'https://www.cardekho.com/overview/Renault_Lodgy/Renault_Lodgy_85PS_RxE_7_Seater.htm'
p960
I901000
sS'https://www.cardekho.com/overview/Maruti_Swift/Maruti_Swift_LXI_Option.htm'
p961
I494000
sS'https://www.cardekho.com/overview/Toyota_Innova/Toyota_Innova_2.5_G_(Diesel)_8_Seater_BS_IV.htm'
p962
I1368000
sS'https://www.cardekho.com/overview/Hyundai_i20_Active/Hyundai_i20_Active_1.2_SX_with_AVN.htm'
p963
I847000
sS'https://www.cardekho.com/overview/BMW_X3/BMW_X3_xDrive20d_xLine.htm'
p964
I5390000
sS'https://www.cardekho.com/overview/Toyota_Corolla_Altis/Toyota_Corolla_Altis_D-4D_J.htm'
p965
I1512000
sS'https://www.cardekho.com/overview/Skoda_Octavia/Skoda_Octavia_Ambition_Plus_2.0_TDI_MT.htm'
p966
I1968000
sS'https://www.cardekho.com/overview/Skoda_Superb/Skoda_Superb_LK_1.8_TSI_AT.htm'
p967
I2942000
sS'https://www.cardekho.com/overview/Volvo_S_80/Volvo_S_80_D4.htm'
p968
I4662000
sS'https://www.cardekho.com/overview/Tata_Indigo_CS/Tata_Indigo_CS_eLX_BS_IV.htm'
p969
I605000
sS'https://www.cardekho.com/overview/Toyota_Innova_Crysta/Toyota_Innova_Crysta_2.4_G_MT.htm'
p970
I1413000
sS'https://www.cardekho.com/overview/Mahindra_Bolero/Mahindra_Bolero_LX_4WD_NON_AC_BSIV.htm'
p971
I798000
sS'https://www.cardekho.com/overview/Mahindra_Scorpio/Mahindra_Scorpio_1.99_S4_Plus.htm'
p972
I1050000
sS'https://www.cardekho.com/overview/Maruti_Celerio/Maruti_Celerio_Green_VXI.htm'
p973
I508000
sS'https://www.cardekho.com/overview/Toyota_Etios_Liva/Toyota_Etios_Liva_1.2_V.htm'
p974
I585000
sS'https://www.cardekho.com/overview/BMW_7_Series/BMW_7_Series_750Li_M_Sport_CBU.htm'
p975
I15500000
sS'https://www.cardekho.com/overview/Mahindra_Scorpio/Mahindra_Scorpio_S10_AT_4WD.htm'
p976
I1563000
sS'https://www.cardekho.com/overview/Mercedes-Benz_E-Class/Mercedes-Benz_E-Class_E_200_CGI.htm'
p977
I5188000
sS'https://www.cardekho.com/overview/Jaguar_F_Type/Jaguar_F_Type_Coupe.htm'
p978
I12800000
sS'https://www.cardekho.com/overview/Maruti_Alto_K10/Maruti_Alto_K10_LXI_Optional.htm'
p979
I366000
sS'https://www.cardekho.com/overview/Porsche_Cayenne/Porsche_Cayenne_GTS.htm'
p980
I17000000
sS'https://www.cardekho.com/overview/Honda_Amaze/Honda_Amaze_E_i-DTEC.htm'
p981
I680000
sS'https://www.cardekho.com/overview/Tata_Zest/Tata_Zest_Quadrajet_1.3_75PS_XE.htm'
p982
I636000
sS'https://www.cardekho.com/overview/Mahindra_Bolero/Mahindra_Bolero_LX_NON_AC.htm'
p983
I723000
sS'https://www.cardekho.com/overview/Land_Rover_Range_Rover_Evoque/Land_Rover_Range_Rover_Evoque_SE.htm'
p984
I5384000
sS'https://www.cardekho.com/overview/Honda_BR-V/Honda_BR-V_i-VTEC_V_CVT.htm'
p985
I1234000
sS'https://www.cardekho.com/overview/Datsun_GO_Plus/Datsun_GO_Plus_T_Option.htm'
p986
I495000
sS'https://www.cardekho.com/overview/Honda_BR-V/Honda_BR-V_i-VTEC_VX_MT.htm'
p987
I1219000
sS'https://www.cardekho.com/overview/Honda_Jazz/Honda_Jazz_1.5_V_i_DTEC.htm'
p988
I883000
sS'https://www.cardekho.com/overview/Nissan_Sunny/Nissan_Sunny_XV_D_Premium_Safety.htm'
p989
I1051000
sS'https://www.cardekho.com/overview/Hyundai_Elantra/Hyundai_Elantra_1.6_S.htm'
p990
I1505000
sS'https://www.cardekho.com/overview/Chevrolet_Tavera/Chevrolet_Tavera_Neo_3_Max_9_Str_BSIII.htm'
p991
I886999
sS'https://www.cardekho.com/overview/Maruti_Swift/Maruti_Swift_VXI.htm'
p992
I560000
sS'https://www.cardekho.com/overview/Maruti_Gypsy/Maruti_Gypsy_King_Hard_Top_Ambulance_BSIV.htm'
p993
I607000
sS'https://www.cardekho.com/overview/Mahindra_Bolero/Mahindra_Bolero_Plus_-_Non-AC_BSIII.htm'
p994
I709000
sS'https://www.cardekho.com/overview/Maruti_Celerio/Maruti_Celerio_VDI_Optional.htm'
p995
I542000
sS'https://www.cardekho.com/overview/Mahindra_Bolero/Mahindra_Bolero_mHAWK_D70_SLE.htm'
p996
I687000
sS'https://www.cardekho.com/overview/Mahindra_Xylo/Mahindra_Xylo_H4_ABS.htm'
p997
I999000
sS'https://www.cardekho.com/overview/Datsun_RediGO/Datsun_RediGO_Sport.htm'
p998
I352000
sS'https://www.cardekho.com/overview/Hyundai_i20_Active/Hyundai_i20_Active_1.2.htm'
p999
I682000
sS'https://www.cardekho.com/overview/Maruti_Swift/Maruti_Swift_1.3_DLX.htm'
p1000
I576000
sS'https://www.cardekho.com/overview/Bentley_Continental/Bentley_Continental_GT_Speed.htm'
p1001
I40400000
sS'https://www.cardekho.com/overview/Hyundai_Grand_i10/Hyundai_Grand_i10_Magna.htm'
p1002
I528000
sS'https://www.cardekho.com/overview/Bentley_Flying_Spur/Bentley_Flying_Spur_V8.htm'
p1003
I32200000
sS'https://www.cardekho.com/overview/Skoda_Rapid/Skoda_Rapid_1.6_MPI_AT_Style.htm'
p1004
I1074000
sS'https://www.cardekho.com/overview/Mahindra_Supro/Mahindra_Supro_ZX_5_Str_BSIII.htm'
p1005
I525000
sS'https://www.cardekho.com/overview/Aston_Martin_Vantage/Aston_Martin_Vantage_V8_Roadster.htm'
p1006
I27500000
sS'https://www.cardekho.com/overview/Maruti_Alto_K10/Maruti_Alto_K10_VXI.htm'
p1007
I377000
sS'https://www.cardekho.com/overview/Audi_TT/Audi_TT_45_TFSI.htm'
p1008
I6170000
sS'https://www.cardekho.com/overview/Porsche_Boxster/Porsche_Boxster_S.htm'
p1009
I9202000
sS'https://www.cardekho.com/overview/Force_One/Force_One_4x4.htm'
p1010
I1463000
sS'https://www.cardekho.com/overview/Maruti_Ertiga/Maruti_Ertiga_SHVS_ZDI_Plus.htm'
p1011
I981000
sS'https://www.cardekho.com/overview/Renault_Pulse/Renault_Pulse_Petrol_RxL.htm'
p1012
I509000
sS'https://www.cardekho.com/overview/Maruti_Wagon_R/Maruti_Wagon_R_VXI_Optional.htm'
p1013
I483000
sS'https://www.cardekho.com/overview/BMW_X5/BMW_X5_xDrive_30d_Design_Pure_Experience_7_Seater.htm'
p1014
I7500000
sS'https://www.cardekho.com/overview/Mahindra_KUV_100/Mahindra_KUV_100_mFALCON_D75_K8.htm'
p1015
I725000
sS'https://www.cardekho.com/overview/Chevrolet_Cruze/Chevrolet_Cruze_LTZ_AT.htm'
p1016
I1776000
sS'https://www.cardekho.com/overview/Chevrolet_Enjoy/Chevrolet_Enjoy_1.4_LTZ_7.htm'
p1017
I635000
sS'https://www.cardekho.com/overview/Mahindra_XUV500/Mahindra_XUV500_W8_2WD.htm'
p1018
I1569000
sS'https://www.cardekho.com/overview/Mahindra_Verito_Vibe/Mahindra_Verito_Vibe_1.5_dCi_D2.htm'
p1019
I652000
sS'https://www.cardekho.com/overview/Hyundai_EON/Hyundai_EON_LPG_Era_Plus.htm'
p1020
I398000
sS'https://www.cardekho.com/overview/Ford_Ecosport/Ford_Ecosport_1.5_TDCi_Titanium_Plus.htm'
p1021
I999000
sS'https://www.cardekho.com/overview/Porsche_911/Porsche_911_Carrera.htm'
p1022
I14200000
sS'https://www.cardekho.com/overview/Maruti_Eeco/Maruti_Eeco_Ambulance_Petrol_AC_Plus_HTR.htm'
p1023
I425000
sS'https://www.cardekho.com/overview/ICML_Extreme/ICML_Extreme_LD_CRDFi_PS_AC_9Seater_BSIII.htm'
p1024
I866000
sS'https://www.cardekho.com/overview/Maruti_Vitara_Brezza/Maruti_Vitara_Brezza_VDi.htm'
p1025
I813000
sS'https://www.cardekho.com/overview/Renault_Scala/Renault_Scala_Diesel_RxZ.htm'
p1026
I949000
sS'https://www.cardekho.com/overview/Mercedes-Benz_G_Class/Mercedes-Benz_G_Class_G63_AMG.htm'
p1027
I32400000
sS'https://www.cardekho.com/overview/Hyundai_Grand_i10/Hyundai_Grand_i10_CRDi_Sportz.htm'
p1028
I652000
sS'https://www.cardekho.com/overview/BMW_M_Series/BMW_M_Series_M6_Gran_Coupe.htm'
p1029
I17700000
sS'https://www.cardekho.com/overview/Ford_Ecosport/Ford_Ecosport_1.5_Ti_VCT_AT_Titanium_BE.htm'
p1030
I1013000
sS'https://www.cardekho.com/overview/Mercedes-Benz_AMG_GT/Mercedes-Benz_AMG_GT_S.htm'
p1031
I24500000
sS'https://www.cardekho.com/overview/Tata_Zest/Tata_Zest_Quadrajet_1.3_XTA.htm'
p1032
I867000
sS'https://www.cardekho.com/overview/Honda_Jazz/Honda_Jazz_1.2_E_i_VTEC.htm'
p1033
I578000
sS'https://www.cardekho.com/overview/Fiat_Linea/Fiat_Linea_Power_Up_1.3_Emotion.htm'
p1034
I1096000
sS'https://www.cardekho.com/overview/Tata_Sumo/Tata_Sumo_Gold_CX_PS.htm'
p1035
I735000
sS'https://www.cardekho.com/overview/Mahindra_Scorpio/Mahindra_Scorpio_Adventure_Edition_2WD.htm'
p1036
I1391000
sS'https://www.cardekho.com/overview/Jeep_Grand_Cherokee/Jeep_Grand_Cherokee_Summit_4X4.htm'
p1037
I11000000
sS'https://www.cardekho.com/overview/BMW_X5/BMW_X5_xDrive_30d_M_Sport.htm'
p1038
I7850000
sS'https://www.cardekho.com/overview/Ford_Figo/Ford_Figo_1.2P_Titanium_MT.htm'
p1039
I576000
sS'https://www.cardekho.com/overview/Hyundai_Creta/Hyundai_Creta_1.6_CRDi_AT_S_Plus.htm'
p1040
I1388000
sS'https://www.cardekho.com/overview/Mahindra_Bolero/Mahindra_Bolero_mHAWK_D70_SLX.htm'
p1041
I752000
sS'https://www.cardekho.com/overview/Maruti_Swift_Dzire/Maruti_Swift_Dzire_VXI_Optional.htm'
p1042
I627000
sS'https://www.cardekho.com/overview/Skoda_Superb/Skoda_Superb_Style_2.0_TDI_AT.htm'
p1043
I2889000
sS'https://www.cardekho.com/overview/Maruti_Swift_Dzire/Maruti_Swift_Dzire_LDI_Optional.htm'
p1044
I685000
sS'https://www.cardekho.com/overview/Tata_Bolt/Tata_Bolt_Revotron_XM.htm'
p1045
I539000
sS'https://www.cardekho.com/overview/Toyota_Innova_Crysta/Toyota_Innova_Crysta_2.7_ZX_AT.htm'
p1046
I1987000
sS'https://www.cardekho.com/overview/ICML_Extreme/ICML_Extreme_VD_CRDFi_7Seater_BSIII.htm'
p1047
I998000
sS'https://www.cardekho.com/overview/Maruti_Alto_K10/Maruti_Alto_K10_VXI_AGS_Optional.htm'
p1048
I430999
sS'https://www.cardekho.com/overview/Chevrolet_Sail/Chevrolet_Sail_1.2_LS.htm'
p1049
I644000
sS'https://www.cardekho.com/overview/Chevrolet_Sail/Chevrolet_Sail_LT_ABS.htm'
p1050
I859000
sS'https://www.cardekho.com/overview/Hyundai_Creta/Hyundai_Creta_1.6_VTVT_AT_SX_Plus.htm'
p1051
I1316000
sS'https://www.cardekho.com/overview/Maruti_Alto_800/Maruti_Alto_800_LX_Optional.htm'
p1052
I302000
sS'https://www.cardekho.com/overview/Chevrolet_Sail/Chevrolet_Sail_LS_ABS.htm'
p1053
I796000
sS'https://www.cardekho.com/overview/Bentley_Continental/Bentley_Continental_GT_V8_Convertible.htm'
p1054
I36400000
sS'https://www.cardekho.com/overview/Renault_Duster/Renault_Duster_Adventure_Edition_85PS_RXL.htm'
p1055
I1075000
sS'https://www.cardekho.com/overview/Honda_Mobilio/Honda_Mobilio_RS_Option_i-DTEC.htm'
p1056
I1299000
sS'https://www.cardekho.com/overview/Mahindra_Supro/Mahindra_Supro_VX_5_Str_BSIII.htm'
p1057
I488000
sS'https://www.cardekho.com/overview/Tata_Indigo_CS/Tata_Indigo_CS_eLS_BS_IV.htm'
p1058
I587000
sS'https://www.cardekho.com/overview/Chevrolet_Tavera/Chevrolet_Tavera_Neo_3_LS_9_Str_BSIII.htm'
p1059
I969000
sS'https://www.cardekho.com/overview/Maruti_Omni/Maruti_Omni_MPI_CARGO_BSIV.htm'
p1060
I265000
sS'https://www.cardekho.com/overview/Mahindra_Xylo/Mahindra_Xylo_D4_BS_III.htm'
p1061
I931000
sS'https://www.cardekho.com/overview/Ford_Figo/Ford_Figo_1.5D_Ambiente_MT.htm'
p1062
I603000
sS'https://www.cardekho.com/overview/Tata_Zest/Tata_Zest_Revotron_1.2T_XM.htm'
p1063
I584000
sS'https://www.cardekho.com/overview/Maruti_Ritz/Maruti_Ritz_ZXi.htm'
p1064
I568000
sS'https://www.cardekho.com/overview/Fiat_Avventura/Fiat_Avventura_Power_Up_1.3_Emotion.htm'
p1065
I951000
sS'https://www.cardekho.com/overview/Land_Rover_Discovery_Sport/Land_Rover_Discovery_Sport_SD4_HSE_Luxury_7S.htm'
p1066
I6329000
sS'https://www.cardekho.com/overview/Porsche_911/Porsche_911_Carrera_S.htm'
p1067
I16299999
sS'https://www.cardekho.com/overview/Mercedes-Benz_M-Class/Mercedes-Benz_M-Class_ML_63_AMG_4MATIC.htm'
p1068
I15200000
sS'https://www.cardekho.com/overview/Maruti_Gypsy/Maruti_Gypsy_King_Hard_Top_MPI_BSIV.htm'
p1069
I677000
sS'https://www.cardekho.com/overview/Mahindra_XUV500/Mahindra_XUV500_AT_W10_1.99_mHawk.htm'
p1070
I1753000
sS'https://www.cardekho.com/overview/ICML_Extreme/ICML_Extreme_Ambulance_DI_AC_BSIII.htm'
p1071
I734000
sS'https://www.cardekho.com/overview/Chevrolet_Sail_Hatchback/Chevrolet_Sail_Hatchback_1.3_TCDi_LS.htm'
p1072
I656000
sS'https://www.cardekho.com/overview/Mahindra_Scorpio/Mahindra_Scorpio_Intelli_Hybrid_S6_Plus.htm'
p1073
I1182000
sS'https://www.cardekho.com/overview/Audi_A3/Audi_A3_35_TDI_Premium_Plus.htm'
p1074
I3188000
sS'https://www.cardekho.com/overview/Tata_Nano/Tata_Nano_XT.htm'
p1075
I278000
sS'https://www.cardekho.com/overview/Mahindra_Xylo/Mahindra_Xylo_D2_Maxx.htm'
p1076
I850000
sS'https://www.cardekho.com/overview/Tata_Tiago/Tata_Tiago_1.2_Revotron_XZ.htm'
p1077
I501000
sS'https://www.cardekho.com/overview/Maruti_Celerio/Maruti_Celerio_VXI.htm'
p1078
I441000
sS'https://www.cardekho.com/overview/Mercedes-Benz_S-Class/Mercedes-Benz_S-Class_Maybach_S600_Guard.htm'
p1079
I112500000
sS'https://www.cardekho.com/overview/Skoda_Superb/Skoda_Superb_Style_1.8_TSI_AT.htm'
p1080
I2621000
sS'https://www.cardekho.com/overview/Volkswagen_CrossPolo/Volkswagen_CrossPolo_1.2_MPI.htm'
p1081
I818000
sS'https://www.cardekho.com/overview/Maruti_Vitara_Brezza/Maruti_Vitara_Brezza_ZDi.htm'
p1082
I891000
sS'https://www.cardekho.com/overview/Mahindra_KUV_100/Mahindra_KUV_100_mFALCON_D75_K4_Plus_5str.htm'
p1083
I619000
sS'https://www.cardekho.com/overview/Chevrolet_Cruze/Chevrolet_Cruze_LT.htm'
p1084
I1395000
sS'https://www.cardekho.com/overview/Honda_Brio/Honda_Brio_1.2_VX_MT.htm'
p1085
I610000
sS'https://www.cardekho.com/overview/Volkswagen_Vento/Volkswagen_Vento_1.5_TDI_Comfortline.htm'
p1086
I1050000
sS'https://www.cardekho.com/overview/Maruti_Ciaz/Maruti_Ciaz_ZDi_SHVS.htm'
p1087
I984000
sS'https://www.cardekho.com/overview/Renault_Scala/Renault_Scala_RxL.htm'
p1088
I800000
sS'https://www.cardekho.com/overview/Hyundai_Creta/Hyundai_Creta_1.6_Gamma_SX_Plus.htm'
p1089
I1211000
sS'https://www.cardekho.com/overview/Mercedes-Benz_GLS/Mercedes-Benz_GLS_400_4MATIC.htm'
p1090
I8290000
sS'https://www.cardekho.com/overview/Land_Rover_Discovery_Sport/Land_Rover_Discovery_Sport_TD4_HSE.htm'
p1091
I5449000
sS'https://www.cardekho.com/overview/Maruti_Ciaz/Maruti_Ciaz_VDi_Plus_SHVS.htm'
p1092
I933000
sS'https://www.cardekho.com/overview/Tata_Sumo/Tata_Sumo_Gold_CX_PS_BSIII.htm'
p1093
I703000
sS'https://www.cardekho.com/overview/Mini_Cooper_Countryman/Mini_Cooper_Countryman_Cooper_D.htm'
p1094
I3650000
sS'https://www.cardekho.com/overview/Volkswagen_Vento/Volkswagen_Vento_1.6_Comfortline.htm'
p1095
I923000
sS'https://www.cardekho.com/overview/Toyota_Etios_Liva/Toyota_Etios_Liva_1.4_VXD.htm'
p1096
I757000
sS'https://www.cardekho.com/overview/Maruti_Alto_800/Maruti_Alto_800_VXI_Optional.htm'
p1097
I347000
sS'https://www.cardekho.com/overview/Hyundai_Xcent/Hyundai_Xcent_1.2_Kappa_S_AT.htm'
p1098
I704000
sS'https://www.cardekho.com/overview/Tata_Safari_Storme/Tata_Safari_Storme_VX_4WD_Varicor_400.htm'
p1099
I1547000
sS'https://www.cardekho.com/overview/Ford_Ecosport/Ford_Ecosport_1.0_Ecoboost_Titanium_Plus.htm'
p1100
I971000
sS'https://www.cardekho.com/overview/Chevrolet_Tavera/Chevrolet_Tavera_Neo_3_9_Str_BSIII.htm'
p1101
I795000
sS'https://www.cardekho.com/overview/Hyundai_EON/Hyundai_EON_D_Lite_Plus_Option.htm'
p1102
I369000
sS'https://www.cardekho.com/overview/Toyota_Etios_Liva/Toyota_Etios_Liva_1.4_GD.htm'
p1103
I707000
sS'https://www.cardekho.com/overview/Hyundai_Grand_i10/Hyundai_Grand_i10_Sportz_Celebration_Edition.htm'
p1104
I584000
sS'https://www.cardekho.com/overview/Ferrari_F12berlinetta/Ferrari_F12berlinetta_V12.htm'
p1105
I47100000
sS'https://www.cardekho.com/overview/Mahindra_TUV_300/Mahindra_TUV_300_mHAWK100_T8.htm'
p1106
I900000
sS'https://www.cardekho.com/overview/Maruti_Ertiga/Maruti_Ertiga_VXI.htm'
p1107
I791000
sS'https://www.cardekho.com/overview/Mahindra_XUV500/Mahindra_XUV500_AT_W10_AWD.htm'
p1108
I1875000
sS'https://www.cardekho.com/overview/Bentley_Bentayga/Bentley_Bentayga_6.0_W12.htm'
p1109
I38500000
sS'https://www.cardekho.com/overview/Fiat_Grande_Punto/Fiat_Grande_Punto_EVO_Power_UP_1.3_Emotion.htm'
p1110
I811000
sS'https://www.cardekho.com/overview/Renault_Duster/Renault_Duster_Adventure_Edition_RXZ_AWD.htm'
p1111
I1416000
sS'https://www.cardekho.com/overview/Mercedes-Benz_S-Class/Mercedes-Benz_S-Class_S_63_AMG_Coupe.htm'
p1112
I26700000
sS'https://www.cardekho.com/overview/Mercedes-Benz_E-Class/Mercedes-Benz_E-Class_E250_Edition_E.htm'
p1113
I5419000
sS'https://www.cardekho.com/overview/Chevrolet_Enjoy/Chevrolet_Enjoy_1.3_TCDi_LS_8.htm'
p1114
I699000
sS'https://www.cardekho.com/overview/Toyota_Corolla_Altis/Toyota_Corolla_Altis_JS_MT.htm'
p1115
I1408000
sS'https://www.cardekho.com/overview/Mahindra_Scorpio/Mahindra_Scorpio_1.99_S6_Plus.htm'
p1116
I1144000
sS'https://www.cardekho.com/overview/Audi_Q3/Audi_Q3_35_TDI_Quattro_Premium.htm'
p1117
I3811000
sS'https://www.cardekho.com/overview/Fiat_Punto_Pure/Fiat_Punto_Pure_1.2L_FIRE.htm'
p1118
I480000
sS'https://www.cardekho.com/overview/Mahindra_Scorpio/Mahindra_Scorpio_1.99_S8.htm'
p1119
I1255000
sS'https://www.cardekho.com/overview/BMW_X1/BMW_X1_sDrive20d_Expedition.htm'
p1120
I2990000
sS'https://www.cardekho.com/overview/Chevrolet_Enjoy/Chevrolet_Enjoy_1.4_LS_8.htm'
p1121
I508000
sS'https://www.cardekho.com/overview/Tata_Indigo_CS/Tata_Indigo_CS_Emax_CNG_GLS.htm'
p1122
I509999
sS'https://www.cardekho.com/overview/Mahindra_Thar/Mahindra_Thar_CRDe.htm'
p1123
I892000
sS'https://www.cardekho.com/overview/Bentley_Continental/Bentley_Continental_GT.htm'
p1124
I35800000
sS'https://www.cardekho.com/overview/Maruti_Celerio/Maruti_Celerio_LXI_AT.htm'
p1125
I463000
sS'https://www.cardekho.com/overview/Mahindra_Quanto/Mahindra_Quanto_C4.htm'
p1126
I769000
sS'https://www.cardekho.com/overview/Hyundai_i20_Active/Hyundai_i20_Active_1.4_S.htm'
p1127
I894999
sS'https://www.cardekho.com/overview/Mahindra_KUV_100/Mahindra_KUV_100_mFALCON_D75_K6_5str.htm'
p1128
I662000
sS'https://www.cardekho.com/overview/Hyundai_Verna/Hyundai_Verna_1.6_CRDi_S.htm'
p1129
I1048000
sS'https://www.cardekho.com/overview/Chevrolet_Spark/Chevrolet_Spark_1.0.htm'
p1130
I370000
sS'https://www.cardekho.com/overview/Toyota_Innova_Crysta/Toyota_Innova_Crysta_2.7_VX_MT.htm'
p1131
I1680999
sS'https://www.cardekho.com/overview/BMW_5_Series/BMW_5_Series_520d_Prestige_Plus.htm'
p1132
I5050000
sS'https://www.cardekho.com/overview/Maruti_Wagon_R_Stingray/Maruti_Wagon_R_Stingray_VXI_Optional.htm'
p1133
I501999
sS'https://www.cardekho.com/overview/Honda_Amaze/Honda_Amaze_E_Option_i-DTEC.htm'
p1134
I692000
sS'https://www.cardekho.com/overview/Mahindra_Bolero/Mahindra_Bolero_DI_NON_AC_BS_III_SILVER.htm'
p1135
I681000
sS'https://www.cardekho.com/overview/Hyundai_EON/Hyundai_EON_LPG_Era_Plus_Option.htm'
p1136
I411000
sS'https://www.cardekho.com/overview/Mercedes-Benz_E-Class/Mercedes-Benz_E-Class_E350_Edition_E.htm'
p1137
I6470000
sS'https://www.cardekho.com/overview/Maruti_Alto_800/Maruti_Alto_800_LXI.htm'
p1138
I322000
sS'https://www.cardekho.com/overview/Maruti_Vitara_Brezza/Maruti_Vitara_Brezza_ZDi_Plus.htm'
p1139
I992000
sS'https://www.cardekho.com/overview/Honda_Amaze/Honda_Amaze_S_i-VTEC.htm'
p1140
I641000
sS'https://www.cardekho.com/overview/Hyundai_Grand_i10/Hyundai_Grand_i10_CRDi_Sportz_Celebration_Edition.htm'
p1141
I676000
sS'https://www.cardekho.com/overview/Maruti_Baleno/Maruti_Baleno_1.3_Alpha.htm'
p1142
I859000
sS'https://www.cardekho.com/overview/Datsun_GO_Plus/Datsun_GO_Plus_A.htm'
p1143
I408000
sS'https://www.cardekho.com/overview/Mahindra_Bolero/Mahindra_Bolero_SLX_2WD_BSIII.htm'
p1144
I814000
sS'https://www.cardekho.com/overview/Honda_City/Honda_City_i_DTec_VX.htm'
p1145
I1245000
sS'https://www.cardekho.com/overview/Mahindra_TUV_300/Mahindra_TUV_300_T8_AMT.htm'
p1146
I982000
sS'https://www.cardekho.com/overview/Chevrolet_Spark/Chevrolet_Spark_1.0_LS.htm'
p1147
I399000
sS'https://www.cardekho.com/overview/Maruti_Ciaz/Maruti_Ciaz_ZXi_Plus.htm'
p1148
I978999
sS'https://www.cardekho.com/overview/Chevrolet_Spark/Chevrolet_Spark_1.0_LT.htm'
p1149
I429000
sS'https://www.cardekho.com/overview/Maruti_Ciaz/Maruti_Ciaz_VXi_Plus.htm'
p1150
I855000
sS'https://www.cardekho.com/overview/Porsche_Cayenne/Porsche_Cayenne_Diesel.htm'
p1151
I10400000
sS'https://www.cardekho.com/overview/Tata_Indigo_CS/Tata_Indigo_CS_LX_(TDI)_BS-III.htm'
p1152
I578000
sS'https://www.cardekho.com/overview/Ford_Figo_Aspire/Ford_Figo_Aspire_1.5_Ti-VCT_Titanium.htm'
p1153
I835000
sS'https://www.cardekho.com/overview/Maruti_Wagon_R/Maruti_Wagon_R_LXI_Optional.htm'
p1154
I461000
sS'https://www.cardekho.com/overview/BMW_X1/BMW_X1_sDrive_20d_xLine.htm'
p1155
I3499000
sS'https://www.cardekho.com/overview/Maruti_Swift/Maruti_Swift_VXI_Optional.htm'
p1156
I580000
sS'https://www.cardekho.com/overview/ICML_Extreme/ICML_Extreme_VD_CRDFi_7Seater_BSIV.htm'
p1157
I1027000
sS'https://www.cardekho.com/overview/Tata_Tiago/Tata_Tiago_1.05_Revotorq_XT.htm'
p1158
I525000
sS'https://www.cardekho.com/overview/Toyota_Land_Cruiser/Toyota_Land_Cruiser_VX.htm'
p1159
I13600000
sS'https://www.cardekho.com/overview/Porsche_Cayman/Porsche_Cayman_GTS.htm'
p1160
I11800000
sS'https://www.cardekho.com/overview/Toyota_Innova/Toyota_Innova_2.5_VX_(Diesel)_8_Seater_BS_IV.htm'
p1161
I1632999
sS'https://www.cardekho.com/overview/Volkswagen_Jetta/Volkswagen_Jetta_2.0L_TDI_Highline_AT.htm'
p1162
I1923999
sS'https://www.cardekho.com/overview/Tata_Bolt/Tata_Bolt_Quadrajet_XT.htm'
p1163
I738000
sS'https://www.cardekho.com/overview/Volkswagen_Vento/Volkswagen_Vento_1.2_TSI_Comfortline_AT.htm'
p1164
I1049000
sS'https://www.cardekho.com/overview/Tata_Tiago/Tata_Tiago_1.05_Revotorq_XM_Option.htm'
p1165
I513999
sS'https://www.cardekho.com/overview/Mahindra_XUV500/Mahindra_XUV500_W10_1.99_mHawk.htm'
p1166
I1650000
sS'https://www.cardekho.com/overview/Maruti_Ritz/Maruti_Ritz_AT.htm'
p1167
I632000
s.