(lp0
(dp1
S'Sedans'
p2
(dp3
S'Skoda Superb'
p4
S'https://www.cardekho.com/carmodels/Skoda/Skoda_Superb'
p5
sS'Tata Zest'
p6
S'https://www.cardekho.com/carmodels/Tata/Tata_Zest'
p7
sS'Tata Indigo eCS'
p8
S'https://www.cardekho.com/carmodels/Tata/Tata_Indigo_CS'
p9
sS'Mahindra E Verito'
p10
S'https://www.cardekho.com/mahindra/e-verito'
p11
sS'Ford Aspire'
p12
S'https://www.cardekho.com/carmodels/Ford/Ford_Figo_Aspire'
p13
sS'Toyota Platinum Etios'
p14
S'https://www.cardekho.com/carmodels/Toyota/Toyota_Etios'
p15
sS'Renault Scala'
p16
S'https://www.cardekho.com/carmodels/Renault/Renault_Scala'
p17
sS'Volkswagen Jetta'
p18
S'https://www.cardekho.com/carmodels/Volkswagen/Volkswagen_Jetta'
p19
sS'Fiat Linea Classic'
p20
S'https://www.cardekho.com/carmodels/Fiat/Fiat_Linea_Classic'
p21
sS'Hyundai Verna'
p22
S'https://www.cardekho.com/carmodels/Hyundai/Hyundai_Verna'
p23
sS'Hyundai Elantra'
p24
S'https://www.cardekho.com/carmodels/Hyundai/Hyundai_Elantra'
p25
sS'Fiat Linea'
p26
S'https://www.cardekho.com/carmodels/Fiat/Fiat_Linea'
p27
sS'Audi A3'
p28
S'https://www.cardekho.com/carmodels/Audi/Audi_A3'
p29
sS'Audi A6'
p30
S'https://www.cardekho.com/carmodels/Audi/Audi_A6'
p31
sS'Chevrolet Cruze'
p32
S'https://www.cardekho.com/carmodels/Chevrolet/Chevrolet_Cruze'
p33
sS'Nissan Sunny'
p34
S'https://www.cardekho.com/carmodels/Nissan/Nissan_Sunny'
p35
sS'Volkswagen Ameo'
p36
S'https://www.cardekho.com/carmodels/Volkswagen/Volkswagen_Ameo'
p37
sS'Mahindra Verito'
p38
S'https://www.cardekho.com/carmodels/Mahindra/Mahindra_Verito'
p39
sS'Mercedes-Benz C-Class'
p40
S'https://www.cardekho.com/carmodels/Mercedes-Benz/Mercedes-Benz_New_C-Class'
p41
sS'Mercedes-Benz CLA'
p42
S'https://www.cardekho.com/carmodels/Mercedes-Benz/Mercedes-Benz_CLA'
p43
sS'Honda City'
p44
S'https://www.cardekho.com/carmodels/Honda/Honda_City'
p45
sS'Maruti Ciaz'
p46
S'https://www.cardekho.com/carmodels/Maruti/Maruti_Ciaz'
p47
sS'Volvo S60'
p48
S'https://www.cardekho.com/carmodels/Volvo/Volvo_S60'
p49
sS'Maruti Swift Dzire'
p50
S'https://www.cardekho.com/carmodels/Maruti/Maruti_Swift_Dzire'
p51
sS'Chevrolet Sail'
p52
S'https://www.cardekho.com/carmodels/Chevrolet/Chevrolet_Sail'
p53
sS'Toyota Corolla Altis'
p54
S'https://www.cardekho.com/carmodels/Toyota/Toyota_Corolla_Altis'
p55
sS'Hyundai Xcent'
p56
S'https://www.cardekho.com/carmodels/Hyundai/Hyundai_Xcent'
p57
sS'Skoda Octavia'
p58
S'https://www.cardekho.com/carmodels/Skoda/Skoda_Octavia'
p59
sS'Mercedes-Benz E-Class'
p60
S'https://www.cardekho.com/carmodels/Mercedes-Benz/Mercedes-Benz_E-Class'
p61
sS'Skoda Rapid'
p62
S'https://www.cardekho.com/carmodels/Skoda/Skoda_Rapid'
p63
sS'Mercedes-Benz S-Class'
p64
S'https://www.cardekho.com/carmodels/Mercedes-Benz/Mercedes-Benz_S-Class'
p65
sS'Toyota Camry'
p66
S'https://www.cardekho.com/carmodels/Toyota/Toyota_Camry'
p67
sS'Honda Amaze'
p68
S'https://www.cardekho.com/carmodels/Honda/Honda_Amaze'
p69
sS'Ford Mustang'
p70
S'https://www.cardekho.com/carmodels/Ford/Ford_Mustang'
p71
sS'Volkswagen Vento'
p72
S'https://www.cardekho.com/carmodels/Volkswagen/Volkswagen_Vento'
p73
ssS'MUV'
p74
(dp75
S'Mercedes-Benz B-Class'
p76
S'https://www.cardekho.com/carmodels/Mercedes-Benz/Mercedes-Benz_B_Class'
p77
sS'Honda Mobilio'
p78
S'https://www.cardekho.com/carmodels/Honda/Honda_Mobilio'
p79
sS'Chevrolet Tavera'
p80
S'https://www.cardekho.com/carmodels/Chevrolet/Chevrolet_Tavera'
p81
sS'Chevrolet Enjoy'
p82
S'https://www.cardekho.com/carmodels/Chevrolet/Chevrolet_Enjoy'
p83
sS'ICML Extreme'
p84
S'https://www.cardekho.com/carmodels/ICML/ICML_Extreme'
p85
sS'Tata Xenon XT'
p86
S'https://www.cardekho.com/carmodels/Tata/Tata_Xenon_XT'
p87
sS'Maruti Ertiga'
p88
S'https://www.cardekho.com/carmodels/Maruti/Maruti_Ertiga'
p89
sS'Renault Lodgy'
p90
S'https://www.cardekho.com/carmodels/Renault/Renault_Lodgy'
p91
sS'Datsun GO Plus'
p92
S'https://www.cardekho.com/carmodels/Datsun/Datsun_GO_Plus'
p93
sS'Toyota Innova'
p94
S'https://www.cardekho.com/carmodels/Toyota/Toyota_Innova'
p95
sS'Toyota Innova Crysta'
p96
S'https://www.cardekho.com/carmodels/Toyota/Toyota_Innova_Crysta'
p97
sS'Mahindra Xylo'
p98
S'https://www.cardekho.com/carmodels/Mahindra/Mahindra_Xylo'
p99
sS'Tata Aria'
p100
S'https://www.cardekho.com/carmodels/Tata/Tata_Aria'
p101
ssS'Convertibles'
p102
(dp103
S'Lamborghini Aventador'
p104
S'https://www.cardekho.com/carmodels/Lamborghini/Lamborghini_Aventador'
p105
sS'Bugatti Veyron'
p106
S'https://www.cardekho.com/carmodels/Bugatti/Bugatti_Veyron'
p107
sS'Rolls-Royce Dawn'
p108
S'https://www.cardekho.com/rolls-royce/dawn'
p109
sS'BMW Z4'
p110
S'https://www.cardekho.com/carmodels/BMW/BMW_Z4'
p111
sS'Mercedes-Benz SLC'
p112
S'https://www.cardekho.com/mercedes-benz/slc'
p113
sS'Porsche Boxster'
p114
S'https://www.cardekho.com/carmodels/Porsche/Porsche_Boxster'
p115
sS'Ferrari California T'
p116
S'https://www.cardekho.com/carmodels/Ferrari/Ferrari_California'
p117
sS'Mercedes-Benz E-Class'
p118
S'https://www.cardekho.com/carmodels/Mercedes-Benz/Mercedes-Benz_E-Class'
p119
sS'Maserati Gran Cabrio'
p120
S'https://www.cardekho.com/carmodels/Maserati/Maserati_Gran_Cabrio'
p121
sS'Audi A3 cabriolet'
p122
S'https://www.cardekho.com/carmodels/Audi/Audi_A3_cabriolet'
p123
sS'Porsche 911'
p124
S'https://www.cardekho.com/carmodels/Porsche/Porsche_911'
p125
sS'Jaguar F-Type'
p126
S'https://www.cardekho.com/carmodels/Jaguar/Jaguar_F_Type'
p127
sS'Rolls-Royce Phantom'
p128
S'https://www.cardekho.com/carmodels/Rolls-Royce/Rolls-Royce_Phantom'
p129
sS'Mini Cooper Convertible'
p130
S'https://www.cardekho.com/carmodels/Mini/Mini_Cooper_Convertible'
p131
sS'Bentley Continental'
p132
S'https://www.cardekho.com/carmodels/Bentley/Bentley_Continental'
p133
ssS'Minivans'
p134
(dp135
S'Maruti Omni'
p136
S'https://www.cardekho.com/carmodels/Maruti/Maruti_Omni'
p137
sS'Mahindra Supro'
p138
S'https://www.cardekho.com/carmodels/Mahindra/Mahindra_Supro'
p139
sS'Maruti Eeco'
p140
S'https://www.cardekho.com/carmodels/Maruti/Maruti_Eeco'
p141
ssS'Hybrid'
p142
(dp143
S'Volvo XC90'
p144
S'https://www.cardekho.com/carmodels/Volvo/Volvo_XC_90'
p145
sS'Toyota Prius'
p146
S'https://www.cardekho.com/carmodels/Toyota/Toyota_Prius'
p147
sS'BMW i8'
p148
S'https://www.cardekho.com/carmodels/BMW/BMW_i8'
p149
sS'Toyota Camry'
p150
S'https://www.cardekho.com/carmodels/Toyota/Toyota_Camry'
p151
ssS'Coupe'
p152
(dp153
S'Rolls-Royce Wraith'
p154
S'https://www.cardekho.com/carmodels/Rolls-Royce/Rolls-Royce_Wraith'
p155
sS'Porsche Cayman'
p156
S'https://www.cardekho.com/carmodels/Porsche/Porsche_Cayman'
p157
sS'Aston Martin DB11'
p158
S'https://www.cardekho.com/aston-martin/db11'
p159
sS'BMW M Series'
p160
S'https://www.cardekho.com/carmodels/BMW/BMW_M_Series'
p161
sS'Mercedes-Benz GLE'
p162
S'https://www.cardekho.com/carmodels/Mercedes-Benz/Mercedes-Benz_GLE_Class'
p163
sS'Audi R8'
p164
S'https://www.cardekho.com/carmodels/Audi/Audi_R8'
p165
sS'Ferrari F12berlinetta'
p166
S'https://www.cardekho.com/carmodels/Ferrari/Ferrari_F12berlinetta'
p167
sS'Lamborghini Huracan'
p168
S'https://www.cardekho.com/carmodels/Lamborghini/Lamborghini_Huracan'
p169
sS'Lamborghini Aventador'
p170
S'https://www.cardekho.com/carmodels/Lamborghini/Lamborghini_Aventador'
p171
sS'Mercedes-Benz AMG GT'
p172
S'https://www.cardekho.com/carmodels/Mercedes-Benz/Mercedes-Benz_AMG_GT'
p173
sS'Ferrari 488'
p174
S'https://www.cardekho.com/carmodels/Ferrari/Ferrari_488_GTB'
p175
sS'DC Avanti'
p176
S'https://www.cardekho.com/carmodels/DC/DC_Avanti'
p177
sS'Land Rover Range Rover Evoque'
p178
S'https://www.cardekho.com/carmodels/Land_Rover/Land_Rover_Range_Rover_Evoque'
p179
sS'Rolls-Royce Phantom'
p180
S'https://www.cardekho.com/carmodels/Rolls-Royce/Rolls-Royce_Phantom'
p181
sS'Mercedes-Benz S-Class'
p182
S'https://www.cardekho.com/carmodels/Mercedes-Benz/Mercedes-Benz_S-Class'
p183
sS'Ferrari 458 Speciale'
p184
S'https://www.cardekho.com/carmodels/Ferrari/Ferrari_458_Speciale'
p185
sS'Aston Martin Vanquish'
p186
S'https://www.cardekho.com/carmodels/Aston_Martin/Aston_Martin_Vanquish'
p187
sS'Audi TT'
p188
S'https://www.cardekho.com/carmodels/Audi/Audi_TT'
p189
sS'Ferrari FF'
p190
S'https://www.cardekho.com/carmodels/Ferrari/Ferrari_FF'
p191
sS'Porsche 911'
p192
S'https://www.cardekho.com/carmodels/Porsche/Porsche_911'
p193
sS'Aston Martin Vantage'
p194
S'https://www.cardekho.com/carmodels/Aston_Martin/Aston_Martin_Vantage'
p195
sS'Jaguar F-Type'
p196
S'https://www.cardekho.com/carmodels/Jaguar/Jaguar_F_Type'
p197
sS'Bentley Continental'
p198
S'https://www.cardekho.com/carmodels/Bentley/Bentley_Continental'
p199
sS'Maserati Gran Turismo'
p200
S'https://www.cardekho.com/carmodels/Maserati/Maserati_Gran_Turismo'
p201
ssS'SUV'
p202
(dp203
S'New Toyota Fortuner'
p204
S'https://www.cardekho.com/carmodels/Toyota/Toyota_Fortuner'
p205
sS'Ford Endeavour'
p206
S'https://www.cardekho.com/carmodels/Ford/Ford_Endeavour'
p207
sS'Mercedes-Benz GLS'
p208
S'https://www.cardekho.com/mercedes-benz/gls'
p209
sS'Maruti Vitara Brezza'
p210
S'https://www.cardekho.com/carmodels/Maruti/Maruti_Vitara_Brezza'
p211
sS'Toyota Land Cruiser'
p212
S'https://www.cardekho.com/carmodels/Toyota/Toyota_Land_Cruiser'
p213
sS'Mercedes-Benz GLA 45 AMG'
p214
S'https://www.cardekho.com/carmodels/Mercedes-Benz/Mercedes-Benz_GLA'
p215
sS'BMW X1'
p216
S'https://www.cardekho.com/carmodels/BMW/BMW_X1'
p217
sS'BMW M Series'
p218
S'https://www.cardekho.com/carmodels/BMW/BMW_M_Series'
p219
sS'Mercedes-Benz GLC'
p220
S'https://www.cardekho.com/mercedes-benz/glc-class'
p221
sS'Mahindra Bolero'
p222
S'https://www.cardekho.com/carmodels/Mahindra/Mahindra_Bolero'
p223
sS'Mercedes-Benz GLE'
p224
S'https://www.cardekho.com/carmodels/Mercedes-Benz/Mercedes-Benz_GLE_Class'
p225
sS'Mahindra Ssangyong Rexton'
p226
S'https://www.cardekho.com/carmodels/Mahindra_Ssangyong/Mahindra_Ssangyong_Rexton'
p227
sS'Force One SUV'
p228
S'https://www.cardekho.com/carmodels/Force/Force_One'
p229
sS'Mercedes-Benz G-Class'
p230
S'https://www.cardekho.com/carmodels/Mercedes-Benz/Mercedes-Benz_G_Class'
p231
sS'Jeep Wrangler Unlimited'
p232
S'https://www.cardekho.com/jeep/wrangler'
p233
sS'Premier Rio'
p234
S'https://www.cardekho.com/carmodels/Premier/Premier_Rio'
p235
sS'Land Rover Discovery Sport'
p236
S'https://www.cardekho.com/carmodels/Land_Rover/Land_Rover_Discovery_Sport'
p237
sS'Mercedes-Benz M-Class'
p238
S'https://www.cardekho.com/carmodels/Mercedes-Benz/Mercedes-Benz_M-Class'
p239
sS'Mahindra KUV100'
p240
S'https://www.cardekho.com/carmodels/Mahindra/Mahindra_KUV_100'
p241
sS'Volvo XC60'
p242
S'https://www.cardekho.com/carmodels/Volvo/Volvo_XC60'
p243
sS'BMW X5'
p244
S'https://www.cardekho.com/carmodels/BMW/BMW_X5'
p245
sS'BMW X6'
p246
S'https://www.cardekho.com/carmodels/BMW/BMW_X6'
p247
sS'Skoda Yeti'
p248
S'https://www.cardekho.com/carmodels/Skoda/Skoda_Yeti'
p249
sS'BMW X3'
p250
S'https://www.cardekho.com/carmodels/BMW/BMW_X3'
p251
sS'Chevrolet Tavera'
p252
S'https://www.cardekho.com/carmodels/Chevrolet/Chevrolet_Tavera'
p253
sS'Land Rover Range Rover Sport'
p254
S'https://www.cardekho.com/carmodels/Land_Rover/Land_Rover_Range_Rover_Sport'
p255
sS'Tata Safari'
p256
S'https://www.cardekho.com/carmodels/Tata/Tata_New_Safari'
p257
sS'Nissan Terrano'
p258
S'https://www.cardekho.com/carmodels/Nissan/Nissan_Terrano'
p259
sS'Porsche Cayenne'
p260
S'https://www.cardekho.com/carmodels/Porsche/Porsche_Cayenne'
p261
sS'Mahindra Quanto'
p262
S'https://www.cardekho.com/carmodels/Mahindra/Mahindra_Quanto'
p263
sS'Maruti S-Cross'
p264
S'https://www.cardekho.com/carmodels/Maruti/Maruti_SX4_S_Cross'
p265
sS'Mahindra XUV500'
p266
S'https://www.cardekho.com/carmodels/Mahindra/Mahindra_XUV500'
p267
sS'Hyundai Santa Fe'
p268
S'https://www.cardekho.com/carmodels/Hyundai/Hyundai_Santa_Fe'
p269
sS'Mahindra Thar'
p270
S'https://www.cardekho.com/carmodels/Mahindra/Mahindra_Thar'
p271
sS'Mahindra NuvoSport'
p272
S'https://www.cardekho.com/carmodels/Mahindra/Mahindra_NuvoSport'
p273
sS'Tata Sumo'
p274
S'https://www.cardekho.com/carmodels/Tata/Tata_Sumo'
p275
sS'Land Rover Range Rover'
p276
S'https://www.cardekho.com/carmodels/Land_Rover/Land_Rover_Range_Rover'
p277
sS'Land Rover Discovery 4'
p278
S'https://www.cardekho.com/carmodels/Land_Rover/Land_Rover_Discovery_4'
p279
sS'Bentley Bentayga'
p280
S'https://www.cardekho.com/carmodels/Bentley/Bentley_Bentayga'
p281
sS'Mahindra Scorpio'
p282
S'https://www.cardekho.com/carmodels/Mahindra/Mahindra_Scorpio'
p283
sS'Conquest Evade'
p284
S'https://www.cardekho.com/carmodels/Conquest/Conquest_Evade'
p285
sS'Hyundai Creta'
p286
S'https://www.cardekho.com/hyundai-cars/creta'
p287
sS'Land Rover Range Rover Evoque'
p288
S'https://www.cardekho.com/carmodels/Land_Rover/Land_Rover_Range_Rover_Evoque'
p289
sS'Maruti Gypsy'
p290
S'https://www.cardekho.com/carmodels/Maruti/Maruti_Gypsy'
p291
sS'Audi Q3'
p292
S'https://www.cardekho.com/carmodels/Audi/Audi_Q3'
p293
sS'Chevrolet Trailblazer'
p294
S'https://www.cardekho.com/carmodels/Chevrolet/Chevrolet_Trailblazer'
p295
sS'Audi Q5'
p296
S'https://www.cardekho.com/carmodels/Audi/Audi_Q5'
p297
sS'Isuzu MU 7'
p298
S'https://www.cardekho.com/carmodels/Isuzu/Isuzu_MU_7'
p299
sS'Audi Q7'
p300
S'https://www.cardekho.com/carmodels/Audi/Audi_Q7'
p301
sS'Honda CR-V'
p302
S'https://www.cardekho.com/carmodels/Honda/Honda_CR-V'
p303
sS'Mercedes-Benz GLA Class'
p304
S'https://www.cardekho.com/carmodels/Mercedes-Benz/Mercedes-Benz_GLA_Class'
p305
sS'Renault Duster'
p306
S'https://www.cardekho.com/carmodels/Renault/Renault_Duster'
p307
sS'Mercedes-Benz GL-Class'
p308
S'https://www.cardekho.com/carmodels/Mercedes-Benz/Mercedes-Benz_GL-Class'
p309
sS'Force Gurkha'
p310
S'https://www.cardekho.com/carmodels/Force/Force_Gurkha'
p311
sS'Mahindra TUV 300'
p312
S'https://www.cardekho.com/carmodels/Mahindra/Mahindra_TUV_300'
p313
sS'Toyota Land Cruiser Prado'
p314
S'https://www.cardekho.com/carmodels/Toyota/Toyota_Land_Cruiser_Prado'
p315
sS'Honda BRV'
p316
S'https://www.cardekho.com/carmodels/Honda/Honda_BR-V'
p317
sS'Ford EcoSport'
p318
S'https://www.cardekho.com/carmodels/Ford/Ford_Ecosport'
p319
sS'Jeep Grand Cherokee'
p320
S'https://www.cardekho.com/jeep/grand-cherokee'
p321
sS'Tata Safari Storme'
p322
S'https://www.cardekho.com/carmodels/Tata/Tata_Safari_Storme'
p323
sS'Porsche Macan'
p324
S'https://www.cardekho.com/carmodels/Porsche/Porsche_Macan'
p325
sS'Volvo XC90'
p326
S'https://www.cardekho.com/carmodels/Volvo/Volvo_XC_90'
p327
sS'Mitsubishi Pajero Sport'
p328
S'https://www.cardekho.com/carmodels/Mitsubishi/Mitsubishi_Pajero'
p329
ssS'Pickup'
p330
(dp331
S'Isuzu D-Max V-Cross'
p332
S'https://www.cardekho.com/isuzu/d-max-v-cross'
p333
ssS'Luxury'
p334
(dp335
S'Aston Martin Rapide'
p336
S'https://www.cardekho.com/carmodels/Aston_Martin/Aston_Martin_Rapide'
p337
sS'Bentley Flying Spur'
p338
S'https://www.cardekho.com/carmodels/Bentley/Bentley_Flying_Spur'
p339
sS'Rolls-Royce Phantom'
p340
S'https://www.cardekho.com/carmodels/Rolls-Royce/Rolls-Royce_Phantom'
p341
sS'BMW M Series'
p342
S'https://www.cardekho.com/carmodels/BMW/BMW_M_Series'
p343
sS'Porsche Panamera'
p344
S'https://www.cardekho.com/carmodels/Porsche/Porsche_Panamera'
p345
sS'Audi A4'
p346
S'https://www.cardekho.com/carmodels/Audi/Audi_A4'
p347
sS'Audi A6'
p348
S'https://www.cardekho.com/carmodels/Audi/Audi_A6'
p349
sS'Audi A8'
p350
S'https://www.cardekho.com/carmodels/Audi/Audi_A8'
p351
sS'BMW 7 Series'
p352
S'https://www.cardekho.com/carmodels/BMW/BMW_7_Series'
p353
sS'BMW 6 Series'
p354
S'https://www.cardekho.com/carmodels/BMW/BMW_6_Series'
p355
sS'BMW 3 Series'
p356
S'https://www.cardekho.com/carmodels/BMW/BMW_3_Series'
p357
sS'Maserati Ghibli'
p358
S'https://www.cardekho.com/carmodels/Maserati/Maserati_Ghibli'
p359
sS'Volvo S60 Cross Country'
p360
S'https://www.cardekho.com/carmodels/Volvo/Volvo_S60_Cross_Country'
p361
sS'Mercedes-Benz CLS'
p362
S'https://www.cardekho.com/carmodels/Mercedes-Benz/Mercedes-Benz_CLS-Class'
p363
sS'Audi RS6 Avant'
p364
S'https://www.cardekho.com/carmodels/Audi/Audi_RS6'
p365
sS'Rolls-Royce Ghost'
p366
S'https://www.cardekho.com/carmodels/Rolls-Royce/Rolls-Royce_Ghost'
p367
sS'BMW 5 Series'
p368
S'https://www.cardekho.com/carmodels/BMW/BMW_5_Series'
p369
sS'Audi S5'
p370
S'https://www.cardekho.com/carmodels/Audi/Audi_S5'
p371
sS'Mercedes-Benz S-Class'
p372
S'https://www.cardekho.com/carmodels/Mercedes-Benz/Mercedes-Benz_S-Class'
p373
sS'Maserati Quattroporte'
p374
S'https://www.cardekho.com/carmodels/Maserati/Maserati_Quattroporte'
p375
sS'Volvo S60'
p376
S'https://www.cardekho.com/carmodels/Volvo/Volvo_S60'
p377
sS'Mercedes-Benz C-Class'
p378
S'https://www.cardekho.com/carmodels/Mercedes-Benz/Mercedes-Benz_New_C-Class'
p379
sS'Mercedes-Benz E-Class'
p380
S'https://www.cardekho.com/carmodels/Mercedes-Benz/Mercedes-Benz_E-Class'
p381
sS'Audi RS7'
p382
S'https://www.cardekho.com/carmodels/Audi/Audi_RS7'
p383
sS'Volvo S80'
p384
S'https://www.cardekho.com/carmodels/Volvo/Volvo_S_80'
p385
sS'Jaguar XF'
p386
S'https://www.cardekho.com/carmodels/Jaguar/Jaguar_XF'
p387
sS'Jaguar XE'
p388
S'https://www.cardekho.com/carmodels/Jaguar/Jaguar_XE'
p389
sS'Bentley Mulsanne'
p390
S'https://www.cardekho.com/carmodels/Bentley/Bentley_Mulsanne'
p391
sS'Jaguar XJ'
p392
S'https://www.cardekho.com/carmodels/Jaguar/Jaguar_XJ'
p393
ssS'Hatchback'
p394
(dp395
S'Mercedes-Benz A-Class'
p396
S'https://www.cardekho.com/carmodels/Mercedes-Benz/Mercedes-Benz_A_Class'
p397
sS'Chevrolet Beat'
p398
S'https://www.cardekho.com/carmodels/Chevrolet/Chevrolet_Beat'
p399
sS'Maruti Baleno'
p400
S'https://www.cardekho.com/carmodels/Maruti/Maruti_Baleno'
p401
sS'Fiat Punto Pure'
p402
S'https://www.cardekho.com/carmodels/Fiat/Fiat_Punto_Pure'
p403
sS'Nissan Micra Active'
p404
S'https://www.cardekho.com/carmodels/Nissan/Nissan_Micra_Active'
p405
sS'Volkswagen Polo'
p406
S'https://www.cardekho.com/carmodels/Volkswagen/Volkswagen_Polo'
p407
sS'Nissan Micra'
p408
S'https://www.cardekho.com/carmodels/Nissan/Nissan_Micra'
p409
sS'Tata Indica eV2'
p410
S'https://www.cardekho.com/carmodels/Tata/Tata_Indica_V2'
p411
sS'Chevrolet Spark'
p412
S'https://www.cardekho.com/carmodels/Chevrolet/Chevrolet_Spark'
p413
sS'Fiat 500'
p414
S'https://www.cardekho.com/carmodels/Fiat/Fiat_500'
p415
sS'Maruti Alto K10'
p416
S'https://www.cardekho.com/carmodels/Maruti/Maruti_Alto_K10'
p417
sS'Honda Brio'
p418
S'https://www.cardekho.com/carmodels/Honda/Honda_Brio'
p419
sS'Hyundai Grand i10'
p420
S'https://www.cardekho.com/carmodels/Hyundai/Hyundai_Grand_i10'
p421
sS'Renault Pulse'
p422
S'https://www.cardekho.com/carmodels/Renault/Renault_Pulse'
p423
sS'Fiat Avventura'
p424
S'https://www.cardekho.com/carmodels/Fiat/Fiat_Avventura'
p425
sS'Tata Bolt'
p426
S'https://www.cardekho.com/carmodels/Tata/Tata_Bolt'
p427
sS'Toyota Etios Cross'
p428
S'https://www.cardekho.com/carmodels/Toyota/Toyota_Etios_Cross'
p429
sS'Tata Nano'
p430
S'https://www.cardekho.com/carmodels/Tata/Tata_Nano'
p431
sS'Volvo V40'
p432
S'https://www.cardekho.com/carmodels/Volvo/Volvo_V40'
p433
sS'Tata Tiago'
p434
S'https://www.cardekho.com/carmodels/Tata/Tata_Tiago'
p435
sS'Fiat Abarth Punto'
p436
S'https://www.cardekho.com/carmodels/Fiat/Fiat_Punto_Abarth'
p437
sS'Maruti Wagon R Stingray'
p438
S'https://www.cardekho.com/carmodels/Maruti/Maruti_Wagon_R_Stingray'
p439
sS'Fiat Abarth Avventura'
p440
S'https://www.cardekho.com/carmodels/Fiat/Fiat_Abarth_Avventura'
p441
sS'Ford Figo'
p442
S'https://www.cardekho.com/carmodels/Ford/Ford_Figo'
p443
sS'Volkswagen Beetle'
p444
S'https://www.cardekho.com/carmodels/Volkswagen/Volkswagen_Beetle'
p445
sS'Toyota Etios Liva'
p446
S'https://www.cardekho.com/carmodels/Toyota/Toyota_Etios_Liva'
p447
sS'Hyundai i20 Active'
p448
S'https://www.cardekho.com/carmodels/Hyundai/Hyundai_i20_Active'
p449
sS'Hyundai i10'
p450
S'https://www.cardekho.com/carmodels/Hyundai/Hyundai_i10'
p451
sS'Renault KWID'
p452
S'https://www.cardekho.com/carmodels/Renault/Renault_KWID'
p453
sS'Maruti Alto 800'
p454
S'https://www.cardekho.com/carmodels/Maruti/Maruti_Alto_800'
p455
sS'Chevrolet Sail Hatchback'
p456
S'https://www.cardekho.com/carmodels/Chevrolet/Chevrolet_Sail_Hatchback'
p457
sS'BMW 1 Series'
p458
S'https://www.cardekho.com/carmodels/BMW/BMW_1_Series'
p459
sS'Mini 3 DOOR'
p460
S'https://www.cardekho.com/carmodels/Mini/Mini_3_DOOR'
p461
sS'Maruti Wagon R'
p462
S'https://www.cardekho.com/carmodels/Maruti/Maruti_Wagon_R'
p463
sS'Volvo V40 Cross Country'
p464
S'https://www.cardekho.com/carmodels/Volvo/Volvo_V40_Cross_Country'
p465
sS'Maruti Ritz'
p466
S'https://www.cardekho.com/carmodels/Maruti/Maruti_Ritz'
p467
sS'Honda Jazz'
p468
S'https://www.cardekho.com/carmodels/Honda/Honda_Jazz'
p469
sS'Datsun Redi GO'
p470
S'https://www.cardekho.com/carmodels/Datsun/Datsun_RediGO'
p471
sS'Maruti Celerio'
p472
S'https://www.cardekho.com/carmodels/Maruti/Maruti_Celerio'
p473
sS'Fiat Avventura Urban Cross'
p474
S'https://www.cardekho.com/fiat/avventura-urban-cross'
p475
sS'Mahindra e2o'
p476
S'https://www.cardekho.com/carmodels/Mahindra/Mahindra_e2o'
p477
sS'Mini 5 DOOR'
p478
S'https://www.cardekho.com/carmodels/Mini/Mini_5_DOOR'
p479
sS'Hyundai Elite i20'
p480
S'https://www.cardekho.com/carmodels/Hyundai/Hyundai_i20'
p481
sS'Datsun GO'
p482
S'https://www.cardekho.com/carmodels/Datsun/Datsun_GO'
p483
sS'Mahindra Verito Vibe'
p484
S'https://www.cardekho.com/carmodels/Mahindra/Mahindra_Verito_Vibe'
p485
sS'Volkswagen CrossPolo'
p486
S'https://www.cardekho.com/carmodels/Volkswagen/Volkswagen_CrossPolo'
p487
sS'Hyundai EON'
p488
S'https://www.cardekho.com/carmodels/Hyundai/Hyundai_EON'
p489
sS'Mini Countryman'
p490
S'https://www.cardekho.com/carmodels/Mini/Mini_Cooper_Countryman'
p491
sS'Maruti Swift'
p492
S'https://www.cardekho.com/carmodels/Maruti/Maruti_Swift'
p493
sS'Fiat Punto EVO'
p494
S'https://www.cardekho.com/carmodels/Fiat/Fiat_Grande_Punto'
p495
ssa(dp496
g2
(dp497
S'Hyundai Elantra 1.6 S'
p498
S'https://www.cardekho.com/overview/Hyundai_Elantra/Hyundai_Elantra_1.6_S.htm'
p499
sS'Skoda Octavia Ambition 2.0 TDI AT'
p500
S'https://www.cardekho.com/overview/Skoda_Octavia/Skoda_Octavia_Ambition_2.0_TDI_AT.htm'
p501
sS'Mercedes-Benz S-Class Maybach S600'
p502
S'https://www.cardekho.com/overview/Mercedes-Benz_S-Class/Mercedes-Benz_S-Class_Maybach_S600.htm'
p503
sS'Renault Scala RxL'
p504
S'https://www.cardekho.com/overview/Renault_Scala/Renault_Scala_RxL.htm'
p505
sS'Honda Amaze S i-DTEC'
p506
S'https://www.cardekho.com/overview/Honda_Amaze/Honda_Amaze_S_i-DTEC.htm'
p507
sS'Maruti Swift Dzire LXI Option'
p508
S'https://www.cardekho.com/overview/Maruti_Swift_Dzire/Maruti_Swift_Dzire_LXI_Option.htm'
p509
sS'Toyota Camry Hybrid'
p510
S'https://www.cardekho.com/overview/Toyota_Camry/Toyota_Camry_Hybrid.htm'
p511
sS'Toyota Camry 2.5 G'
p512
S'https://www.cardekho.com/overview/Toyota_Camry/Toyota_Camry_2.5_G.htm'
p513
sS'Ford Mustang V8'
p514
S'https://www.cardekho.com/overview/Ford_Mustang/Ford_Mustang_V8.htm'
p515
sS'Toyota Corolla Altis VL AT'
p516
S'https://www.cardekho.com/overview/Toyota_Corolla_Altis/Toyota_Corolla_Altis_VL_AT.htm'
p517
sS'Volkswagen Jetta 2.0L TDI Trendline'
p518
S'https://www.cardekho.com/overview/Volkswagen_Jetta/Volkswagen_Jetta_2.0L_TDI_Trendline.htm'
p519
sS'Skoda Rapid 1.5 TDI AT Style Plus'
p520
S'https://www.cardekho.com/overview/Skoda_Rapid/Skoda_Rapid_1.5_TDI_AT_Style_Plus.htm'
p521
sS'Volkswagen Jetta 2.0L TDI Highline AT'
p522
S'https://www.cardekho.com/overview/Volkswagen_Jetta/Volkswagen_Jetta_2.0L_TDI_Highline_AT.htm'
p523
sS'Volkswagen Vento Celeste 1.2 TSI Highline AT'
p524
S'https://www.cardekho.com/overview/Volkswagen_Vento/Volkswagen_Vento_Celeste_1.2_TSI_Highline_AT.htm'
p525
sS'Hyundai Verna 1.6 CRDi AT S'
p526
S'https://www.cardekho.com/overview/Hyundai_Verna/Hyundai_Verna_1.6_CRDi_AT_S.htm'
p527
sS'Tata Indigo eCS LS (TDI) BS III'
p528
S'https://www.cardekho.com/overview/Tata_Indigo_CS/Tata_Indigo_CS_LS_(TDI)_BS-III.htm'
p529
sS'Maruti Ciaz VDi Option SHVS'
p530
S'https://www.cardekho.com/overview/Maruti_Ciaz/Maruti_Ciaz_VDi_Option_SHVS.htm'
p531
sS'Volvo S60 D4 KINETIC'
p532
S'https://www.cardekho.com/overview/Volvo_S60/Volvo_S60_D4_KINETIC.htm'
p533
sS'Fiat Linea Power Up 1.3 Dynamic'
p534
S'https://www.cardekho.com/overview/Fiat_Linea/Fiat_Linea_Power_Up_1.3_Dynamic.htm'
p535
sS'Toyota Corolla Altis D 4D JS'
p536
S'https://www.cardekho.com/overview/Toyota_Corolla_Altis/Toyota_Corolla_Altis_D-4D_JS.htm'
p537
sS'Tata Indigo eCS LS'
p538
S'https://www.cardekho.com/overview/Tata_Indigo_CS/Tata_Indigo_CS_eLS_BS_IV.htm'
p539
sS'Mercedes-Benz E-Class E350 CDI Avantgrade'
p540
S'https://www.cardekho.com/overview/Mercedes-Benz_E-Class/Mercedes-Benz_E-Class_E350_CDI_Avantgrade.htm'
p541
sS'Volkswagen Vento 1.2 TSI Highline AT'
p542
S'https://www.cardekho.com/overview/Volkswagen_Vento/Volkswagen_Vento_1.2_TSI_Highline_AT.htm'
p543
sS'Tata Indigo eCS LX'
p544
S'https://www.cardekho.com/overview/Tata_Indigo_CS/Tata_Indigo_CS_eLX_BS_IV.htm'
p545
sS'Volkswagen Vento Celeste 1.5 TDI Highline'
p546
S'https://www.cardekho.com/overview/Volkswagen_Vento/Volkswagen_Vento_Celeste_1.5_TDI_Highline.htm'
p547
sS'Ford Aspire 1.5 TDCi Titanium'
p548
S'https://www.cardekho.com/overview/Ford_Figo_Aspire/Ford_Figo_Aspire_1.5_TDCi_Titanium.htm'
p549
sS'Mahindra Verito 1.5 Executive edition'
p550
S'https://www.cardekho.com/overview/Mahindra_Verito/Mahindra_Verito_1.5_Executive_edition.htm'
p551
sS'Volkswagen Ameo 1.5 TDI Highline AT'
p552
S'https://www.cardekho.com/overview/Volkswagen_Ameo/Volkswagen_Ameo_1.5_TDI_Highline_AT.htm'
p553
sS'Mercedes-Benz E-Class E 63 AMG'
p554
S'https://www.cardekho.com/overview/Mercedes-Benz_E-Class/Mercedes-Benz_E-Class_E_63_AMG.htm'
p555
sS'Tata Zest Revotron 1.2T XMS'
p556
S'https://www.cardekho.com/overview/Tata_Zest/Tata_Zest_Revotron_1.2T_XMS.htm'
p557
sS'Maruti Swift Dzire VDI'
p558
S'https://www.cardekho.com/overview/Maruti_Swift_Dzire/Maruti_Swift_Dzire_VDI.htm'
p559
sS'Maruti Ciaz RS ZDi Plus SHVS'
p560
S'https://www.cardekho.com/overview/Maruti_Ciaz/Maruti_Ciaz_RS_ZDi_Plus_SHVS.htm'
p561
sS'Maruti Ciaz RS ZXi Plus'
p562
S'https://www.cardekho.com/overview/Maruti_Ciaz/Maruti_Ciaz_RS_ZXi_Plus.htm'
p563
sS'Hyundai Verna 1.6 VTVT AT SX'
p564
S'https://www.cardekho.com/overview/Hyundai_Verna/Hyundai_Verna_1.6_VTVT_AT_SX.htm'
p565
sS'Mercedes-Benz CLA 200 CDI Style'
p566
S'https://www.cardekho.com/overview/Mercedes-Benz_CLA/Mercedes-Benz_CLA_200_CDI_Style.htm'
p567
sS'Honda Amaze S Option i-DTEC'
p568
S'https://www.cardekho.com/overview/Honda_Amaze/Honda_Amaze_S_Option_i-DTEC.htm'
p569
sS'Honda Amaze S i-VTEC'
p570
S'https://www.cardekho.com/overview/Honda_Amaze/Honda_Amaze_S_i-VTEC.htm'
p571
sS'Hyundai Verna 1.6 SX VTVT'
p572
S'https://www.cardekho.com/overview/Hyundai_Verna/Hyundai_Verna_1.6_SX_VTVT.htm'
p573
sS'Skoda Octavia Style Plus 1.8 TSI AT'
p574
S'https://www.cardekho.com/overview/Skoda_Octavia/Skoda_Octavia_Style_Plus_1.8_TSI_AT.htm'
p575
sS'Toyota Platinum Etios 1.5 VX'
p576
S'https://www.cardekho.com/overview/Toyota_Etios/Toyota_Etios_1.5_VX.htm'
p577
sS'Skoda Octavia Ambition 2.0 TDI MT'
p578
S'https://www.cardekho.com/overview/Skoda_Octavia/Skoda_Octavia_Ambition_2.0_TDI_MT.htm'
p579
sS'Skoda Rapid 1.6 MPI Style Plus'
p580
S'https://www.cardekho.com/overview/Skoda_Rapid/Skoda_Rapid_1.6_MPI_Style_Plus.htm'
p581
sS'Maruti Ciaz VDi Plus SHVS'
p582
S'https://www.cardekho.com/overview/Maruti_Ciaz/Maruti_Ciaz_VDi_Plus_SHVS.htm'
p583
sS'Chevrolet Sail 1.2 LS ABS'
p584
S'https://www.cardekho.com/overview/Chevrolet_Sail/Chevrolet_Sail_1.2_LS_ABS.htm'
p585
sS'Maruti Swift Dzire VXI AT Optional'
p586
S'https://www.cardekho.com/overview/Maruti_Swift_Dzire/Maruti_Swift_Dzire_VXI_AT_Optional.htm'
p587
sS'Tata Indigo eCS GLS'
p588
S'https://www.cardekho.com/overview/Tata_Indigo_CS/Tata_Indigo_CS_eGLS_BS_IV.htm'
p589
sS'Fiat Linea Power Up 1.3 Emotion'
p590
S'https://www.cardekho.com/overview/Fiat_Linea/Fiat_Linea_Power_Up_1.3_Emotion.htm'
p591
sS'Skoda Rapid 1.6 MPI AT Style'
p592
S'https://www.cardekho.com/overview/Skoda_Rapid/Skoda_Rapid_1.6_MPI_AT_Style.htm'
p593
sS'Ford Aspire 1.2 Ti-VCT Titanium'
p594
S'https://www.cardekho.com/overview/Ford_Figo_Aspire/Ford_Figo_Aspire_1.2_Ti-VCT_Titanium.htm'
p595
sS'Maruti Ciaz AT ZXi'
p596
S'https://www.cardekho.com/overview/Maruti_Ciaz/Maruti_Ciaz_AT_ZXi.htm'
p597
sS'Ford Aspire 1.2 Ti-VCT Trend'
p598
S'https://www.cardekho.com/overview/Ford_Figo_Aspire/Ford_Figo_Aspire_1.2_Ti-VCT_Trend.htm'
p599
sS'Honda City i VTEC CVT SV'
p600
S'https://www.cardekho.com/overview/Honda_City/Honda_City_i_VTEC_CVT_SV.htm'
p601
sS'Skoda Rapid 1.6 MPI Ambition'
p602
S'https://www.cardekho.com/overview/Skoda_Rapid/Skoda_Rapid_1.6_MPI_Ambition.htm'
p603
sS'Skoda Rapid 1.5 TDI Style Plus'
p604
S'https://www.cardekho.com/overview/Skoda_Rapid/Skoda_Rapid_1.5_TDI_Style_Plus.htm'
p605
sS'Tata Zest Quadrajet 1.3 75PS XM'
p606
S'https://www.cardekho.com/overview/Tata_Zest/Tata_Zest_Quadrajet_1.3_75PS_XM.htm'
p607
sS'Tata Zest Quadrajet 1.3 XTA'
p608
S'https://www.cardekho.com/overview/Tata_Zest/Tata_Zest_Quadrajet_1.3_XTA.htm'
p609
sS'Tata Zest Quadrajet 1.3 XMA'
p610
S'https://www.cardekho.com/overview/Tata_Zest/Tata_Zest_Quadrajet_1.3_XMA.htm'
p611
sS'Volkswagen Ameo 1.2 MPI Trendline'
p612
S'https://www.cardekho.com/overview/Volkswagen_Ameo/Volkswagen_Ameo_1.2_MPI_Trendline.htm'
p613
sS'Hyundai Xcent 1.1 CRDi S'
p614
S'https://www.cardekho.com/overview/Hyundai_Xcent/Hyundai_Xcent_1.1_CRDi_S.htm'
p615
sS'Tata Zest Quadrajet 1.3 75PS XE'
p616
S'https://www.cardekho.com/overview/Tata_Zest/Tata_Zest_Quadrajet_1.3_75PS_XE.htm'
p617
sS'Audi A3 35 TDI Premium Plus'
p618
S'https://www.cardekho.com/overview/Audi_A3/Audi_A3_35_TDI_Premium_Plus.htm'
p619
sS'Nissan Sunny XV CVT'
p620
S'https://www.cardekho.com/overview/Nissan_Sunny/Nissan_Sunny_XV_CVT.htm'
p621
sS'Honda City i VTEC V'
p622
S'https://www.cardekho.com/overview/Honda_City/Honda_City_i_VTEC_V.htm'
p623
sS'Mercedes-Benz C-Class C 220 CDI Avantgarde'
p624
S'https://www.cardekho.com/overview/Mercedes-Benz_New_C-Class/Mercedes-Benz_New_C-Class_C_220_CDI_Avantgarde.htm'
p625
sS'Mercedes-Benz S-Class Maybach S500'
p626
S'https://www.cardekho.com/overview/Mercedes-Benz_S-Class/Mercedes-Benz_S-Class_Maybach_S500.htm'
p627
sS'Honda City i VTEC S'
p628
S'https://www.cardekho.com/overview/Honda_City/Honda_City_i_VTEC_S.htm'
p629
sS'Toyota Corolla Altis GL MT'
p630
S'https://www.cardekho.com/overview/Toyota_Corolla_Altis/Toyota_Corolla_Altis_GL_MT.htm'
p631
sS'Maruti Swift Dzire LDI Optional'
p632
S'https://www.cardekho.com/overview/Maruti_Swift_Dzire/Maruti_Swift_Dzire_LDI_Optional.htm'
p633
sS'Hyundai Verna 1.6 VTVT AT S'
p634
S'https://www.cardekho.com/overview/Hyundai_Verna/Hyundai_Verna_1.6_VTVT_AT_S.htm'
p635
sS'Fiat Linea Power Up 1.4 Fire Active'
p636
S'https://www.cardekho.com/overview/Fiat_Linea/Fiat_Linea_Power_Up_1.4_Fire_Active.htm'
p637
sS'Maruti Ciaz AT VXi Plus'
p638
S'https://www.cardekho.com/overview/Maruti_Ciaz/Maruti_Ciaz_AT_VXi_Plus.htm'
p639
sS'Hyundai Verna 1.6 CRDI SX Option'
p640
S'https://www.cardekho.com/overview/Hyundai_Verna/Hyundai_Verna_1.6_CRDI_SX_Option.htm'
p641
sS'Toyota Platinum Etios 1.4 GD'
p642
S'https://www.cardekho.com/overview/Toyota_Etios/Toyota_Etios_1.4_GD.htm'
p643
sS'Skoda Superb Style 1.8 TSI MT'
p644
S'https://www.cardekho.com/overview/Skoda_Superb/Skoda_Superb_Style_1.8_TSI_MT.htm'
p645
sS'Honda City i VTEC E'
p646
S'https://www.cardekho.com/overview/Honda_City/Honda_City_i_VTEC_E.htm'
p647
sS'Volkswagen Jetta 1.4 TSI Trendline'
p648
S'https://www.cardekho.com/overview/Volkswagen_Jetta/Volkswagen_Jetta_1.4_TSI_Trendline.htm'
p649
sS'Tata Indigo eCS LX TDI BS III'
p650
S'https://www.cardekho.com/overview/Tata_Indigo_CS/Tata_Indigo_CS_LX_(TDI)_BS-III.htm'
p651
sS'Toyota Corolla Altis D 4D GL'
p652
S'https://www.cardekho.com/overview/Toyota_Corolla_Altis/Toyota_Corolla_Altis_D-4D_GL.htm'
p653
sS'Volvo S60 D4 Momentum'
p654
S'https://www.cardekho.com/overview/Volvo_S60/Volvo_S60_D4_Momentum.htm'
p655
sS'Maruti Swift Dzire VXI Optional'
p656
S'https://www.cardekho.com/overview/Maruti_Swift_Dzire/Maruti_Swift_Dzire_VXI_Optional.htm'
p657
sS'Volkswagen Ameo 1.2 MPI Highline'
p658
S'https://www.cardekho.com/overview/Volkswagen_Ameo/Volkswagen_Ameo_1.2_MPI_Highline.htm'
p659
sS'Skoda Rapid 1.5 TDI Active'
p660
S'https://www.cardekho.com/overview/Skoda_Rapid/Skoda_Rapid_1.5_TDI_Active.htm'
p661
sS'Volkswagen Vento 1.5 TDI Comfortline AT'
p662
S'https://www.cardekho.com/overview/Volkswagen_Vento/Volkswagen_Vento_1.5_TDI_Comfortline_AT.htm'
p663
sS'Nissan Sunny Diesel XL'
p664
S'https://www.cardekho.com/overview/Nissan_Sunny/Nissan_Sunny_Diesel_XL.htm'
p665
sS'Volkswagen Ameo 1.2 MPI Comfortline'
p666
S'https://www.cardekho.com/overview/Volkswagen_Ameo/Volkswagen_Ameo_1.2_MPI_Comfortline.htm'
p667
sS'Fiat Linea Classic 1.3 Multijet'
p668
S'https://www.cardekho.com/overview/Fiat_Linea_Classic/Fiat_Linea_Classic_1.3_Multijet.htm'
p669
sS'Audi A6 35 TDI Matrix Edition'
p670
S'https://www.cardekho.com/overview/Audi_A6/Audi_A6_35_TDI.htm'
p671
sS'Skoda Octavia Ambition Plus 2.0 TDI AT'
p672
S'https://www.cardekho.com/overview/Skoda_Octavia/Skoda_Octavia_Ambition_Plus_2.0_TDI_AT.htm'
p673
sS'Hyundai Xcent 1.2 Kappa S Celebration Edition'
p674
S'https://www.cardekho.com/overview/Hyundai_Xcent/Hyundai_Xcent_1.2_Kappa_S_Celebration_Edition.htm'
p675
sS'Skoda Rapid 1.6 MPI AT Style Plus'
p676
S'https://www.cardekho.com/overview/Skoda_Rapid/Skoda_Rapid_1.6_MPI_AT_Style_Plus.htm'
p677
sS'Chevrolet Cruze LTZ'
p678
S'https://www.cardekho.com/overview/Chevrolet_Cruze/Chevrolet_Cruze_LTZ.htm'
p679
sS'Ford Aspire 1.5 TDCi Trend'
p680
S'https://www.cardekho.com/overview/Ford_Figo_Aspire/Ford_Figo_Aspire_1.5_TDCi_Trend.htm'
p681
sS'Maruti Swift Dzire AMT ZDI'
p682
S'https://www.cardekho.com/overview/Maruti_Swift_Dzire/Maruti_Swift_Dzire_AMT_ZDI.htm'
p683
sS'Hyundai Elantra 2.0 SX AT'
p684
S'https://www.cardekho.com/overview/Hyundai_Elantra/Hyundai_Elantra_2.0_SX_AT.htm'
p685
sS'Audi A3 35 TDI Technology'
p686
S'https://www.cardekho.com/overview/Audi_A3/Audi_A3_35_TDI_Technology.htm'
p687
sS'Toyota Corolla Altis G AT'
p688
S'https://www.cardekho.com/overview/Toyota_Corolla_Altis/Toyota_Corolla_Altis_G_AT.htm'
p689
sS'Volkswagen Vento 1.5 TDI Highline AT'
p690
S'https://www.cardekho.com/overview/Volkswagen_Vento/Volkswagen_Vento_1.5_TDI_Highline_AT.htm'
p691
sS'Mercedes-Benz C-Class C 220 CDI Style'
p692
S'https://www.cardekho.com/overview/Mercedes-Benz_New_C-Class/Mercedes-Benz_New_C-Class_C_220_CDI_Style.htm'
p693
sS'Honda Amaze E Option i-DTEC'
p694
S'https://www.cardekho.com/overview/Honda_Amaze/Honda_Amaze_E_Option_i-DTEC.htm'
p695
sS'Volkswagen Jetta 1.4 TSI Comfortline'
p696
S'https://www.cardekho.com/overview/Volkswagen_Jetta/Volkswagen_Jetta_1.4_TSI_Comfortline.htm'
p697
sS'Toyota Platinum Etios 1.4 VD'
p698
S'https://www.cardekho.com/overview/Toyota_Etios/Toyota_Etios_1.4_VD.htm'
p699
sS'Hyundai Verna 1.6 CRDi SX'
p700
S'https://www.cardekho.com/overview/Hyundai_Verna/Hyundai_Verna_1.6_CRDi_SX.htm'
p701
sS'Honda City i DTec V'
p702
S'https://www.cardekho.com/overview/Honda_City/Honda_City_i_DTec_V.htm'
p703
sS'Volkswagen Ameo 1.5 TDI Trendline'
p704
S'https://www.cardekho.com/overview/Volkswagen_Ameo/Volkswagen_Ameo_1.5_TDI_Trendline.htm'
p705
sS'Hyundai Verna 1.6 VTVT S'
p706
S'https://www.cardekho.com/overview/Hyundai_Verna/Hyundai_Verna_1.6_VTVT_S.htm'
p707
sS'Honda City i DTec S'
p708
S'https://www.cardekho.com/overview/Honda_City/Honda_City_i_DTec_S.htm'
p709
sS'Nissan Sunny Diesel XE'
p710
S'https://www.cardekho.com/overview/Nissan_Sunny/Nissan_Sunny_Diesel_XE.htm'
p711
sS'Chevrolet Sail 1.2 Base'
p712
S'https://www.cardekho.com/overview/Chevrolet_Sail/Chevrolet_Sail_1.2_Base.htm'
p713
sS'Hyundai Xcent 1.2 Kappa SX Option AT'
p714
S'https://www.cardekho.com/overview/Hyundai_Xcent/Hyundai_Xcent_1.2_Kappa_SX_Option_AT.htm'
p715
sS'Honda City i DTec E'
p716
S'https://www.cardekho.com/overview/Honda_City/Honda_City_i_DTec_E.htm'
p717
sS'Honda Amaze VX i-VTEC'
p718
S'https://www.cardekho.com/overview/Honda_Amaze/Honda_Amaze_VX_i-VTEC.htm'
p719
sS'Nissan Sunny XL'
p720
S'https://www.cardekho.com/overview/Nissan_Sunny/Nissan_Sunny_XL.htm'
p721
sS'Maruti Ciaz ZXi'
p722
S'https://www.cardekho.com/overview/Maruti_Ciaz/Maruti_Ciaz_ZXi.htm'
p723
sS'Hyundai Verna 1.4 VTVT'
p724
S'https://www.cardekho.com/overview/Hyundai_Verna/Hyundai_Verna_1.4_VTVT.htm'
p725
sS'Mahindra E Verito D2'
p726
S'https://www.cardekho.com/overview/Mahindra_E_Verito/Mahindra_E_Verito_D2.htm'
p727
sS'Mercedes-Benz S-Class S 500 Coupe'
p728
S'https://www.cardekho.com/overview/Mercedes-Benz_S-Class/Mercedes-Benz_S-Class_S_500_Coupe.htm'
p729
sS'Audi A3 35 TDI Premium'
p730
S'https://www.cardekho.com/overview/Audi_A3/Audi_A3_35_TDI_Premium.htm'
p731
sS'Mahindra E Verito D6'
p732
S'https://www.cardekho.com/overview/Mahindra_E_Verito/Mahindra_E_Verito_D6.htm'
p733
sS'Nissan Sunny XE'
p734
S'https://www.cardekho.com/overview/Nissan_Sunny/Nissan_Sunny_XE.htm'
p735
sS'Maruti Ciaz ZXi Plus'
p736
S'https://www.cardekho.com/overview/Maruti_Ciaz/Maruti_Ciaz_ZXi_Plus.htm'
p737
sS'Nissan Sunny Diesel XV'
p738
S'https://www.cardekho.com/overview/Nissan_Sunny/Nissan_Sunny_Diesel_XV.htm'
p739
sS'Chevrolet Sail 1.3 LT ABS'
p740
S'https://www.cardekho.com/overview/Chevrolet_Sail/Chevrolet_Sail_LT_ABS.htm'
p741
sS'Skoda Rapid 1.6 MPI Active'
p742
S'https://www.cardekho.com/overview/Skoda_Rapid/Skoda_Rapid_1.6_MPI_Active.htm'
p743
sS'Honda Amaze VX CVT i-VTEC'
p744
S'https://www.cardekho.com/overview/Honda_Amaze/Honda_Amaze_VX_CVT_i-VTEC.htm'
p745
sS'Ford Aspire 1.2 Ti-VCT Ambiente'
p746
S'https://www.cardekho.com/overview/Ford_Figo_Aspire/Ford_Figo_Aspire_1.2_Ti-VCT_Ambiente.htm'
p747
sS'Maruti Swift Dzire ZDI'
p748
S'https://www.cardekho.com/overview/Maruti_Swift_Dzire/Maruti_Swift_Dzire_ZDI.htm'
p749
sS'Maruti Swift Dzire LXI'
p750
S'https://www.cardekho.com/overview/Maruti_Swift_Dzire/Maruti_Swift_Dzire_LXI.htm'
p751
sS'Hyundai Elantra 2.0 S'
p752
S'https://www.cardekho.com/overview/Hyundai_Elantra/Hyundai_Elantra_2.0_S.htm'
p753
sS'Mercedes-Benz S-Class S400'
p754
S'https://www.cardekho.com/overview/Mercedes-Benz_S-Class/Mercedes-Benz_S-Class_S400.htm'
p755
sS'Fiat Linea Classic Plus 1.3 Multijet'
p756
S'https://www.cardekho.com/overview/Fiat_Linea_Classic/Fiat_Linea_Classic_Plus_1.3_Multijet.htm'
p757
sS'Honda Amaze S Option CVT i-VTEC'
p758
S'https://www.cardekho.com/overview/Honda_Amaze/Honda_Amaze_S_Option_CVT_i-VTEC.htm'
p759
sS'Ford Aspire 1.5 Ti-VCT Titanium'
p760
S'https://www.cardekho.com/overview/Ford_Figo_Aspire/Ford_Figo_Aspire_1.5_Ti-VCT_Titanium.htm'
p761
sS'Toyota Corolla Altis D-4D Limited Edition'
p762
S'https://www.cardekho.com/overview/Toyota_Corolla_Altis/Toyota_Corolla_Altis_D-4D_Limited_Edition.htm'
p763
sS'Skoda Rapid 1.5 TDI AT Ambition'
p764
S'https://www.cardekho.com/overview/Skoda_Rapid/Skoda_Rapid_1.5_TDI_AT_Ambition.htm'
p765
sS'Honda Amaze E i-VTEC'
p766
S'https://www.cardekho.com/overview/Honda_Amaze/Honda_Amaze_E_i-VTEC.htm'
p767
sS'Volkswagen Vento 1.6 Trendline'
p768
S'https://www.cardekho.com/overview/Volkswagen_Vento/Volkswagen_Vento_1.6_Trendline.htm'
p769
sS'Mercedes-Benz E-Class E350 Edition E'
p770
S'https://www.cardekho.com/overview/Mercedes-Benz_E-Class/Mercedes-Benz_E-Class_E350_Edition_E.htm'
p771
sS'Volkswagen Ameo 1.5 TDI Highline'
p772
S'https://www.cardekho.com/overview/Volkswagen_Ameo/Volkswagen_Ameo_1.5_TDI_Highline.htm'
p773
sS'Hyundai Elantra 2.0 SX'
p774
S'https://www.cardekho.com/overview/Hyundai_Elantra/Hyundai_Elantra_2.0_SX.htm'
p775
sS'Chevrolet Sail 1.3 LS ABS'
p776
S'https://www.cardekho.com/overview/Chevrolet_Sail/Chevrolet_Sail_LS_ABS.htm'
p777
sS'Honda Amaze S CVT i-VTEC'
p778
S'https://www.cardekho.com/overview/Honda_Amaze/Honda_Amaze_S_CVT_i-VTEC.htm'
p779
sS'Maruti Swift Dzire VDI Optional'
p780
S'https://www.cardekho.com/overview/Maruti_Swift_Dzire/Maruti_Swift_Dzire_VDI_Optional.htm'
p781
sS'Volkswagen Vento Celeste 1.5 TDI Highline AT'
p782
S'https://www.cardekho.com/overview/Volkswagen_Vento/Volkswagen_Vento_Celeste_1.5_TDI_Highline_AT.htm'
p783
sS'Tata Zest Revotron 1.2T XE'
p784
S'https://www.cardekho.com/overview/Tata_Zest/Tata_Zest_Revotron_1.2T_XE.htm'
p785
sS'Skoda Rapid 1.5 TDI Ambition'
p786
S'https://www.cardekho.com/overview/Skoda_Rapid/Skoda_Rapid_1.5_TDI_Ambition.htm'
p787
sS'Honda City i VTEC VX Option'
p788
S'https://www.cardekho.com/overview/Honda_City/Honda_City_i_VTEC_VX_Option.htm'
p789
sS'Mercedes-Benz CLA 200 CGI Sport'
p790
S'https://www.cardekho.com/overview/Mercedes-Benz_CLA/Mercedes-Benz_CLA_200_CGI.htm'
p791
sS'Toyota Platinum Etios 1.5 G'
p792
S'https://www.cardekho.com/overview/Toyota_Etios/Toyota_Etios_1.5_G.htm'
p793
sS'Tata Zest Revotron 1.2T XM'
p794
S'https://www.cardekho.com/overview/Tata_Zest/Tata_Zest_Revotron_1.2T_XM.htm'
p795
sS'Maruti Ciaz VDI SHVS'
p796
S'https://www.cardekho.com/overview/Maruti_Ciaz/Maruti_Ciaz_VDI_SHVS.htm'
p797
sS'Skoda Superb L&K 2.0 TDI AT'
p798
S'https://www.cardekho.com/overview/Skoda_Superb/Skoda_Superb_LK_2.0_TDI_AT.htm'
p799
sS'Mercedes-Benz E-Class E400 Cabriolet'
p800
S'https://www.cardekho.com/overview/Mercedes-Benz_E-Class/Mercedes-Benz_E-Class_E400_Cabriolet.htm'
p801
sS'Honda City i VTEC CVT VX'
p802
S'https://www.cardekho.com/overview/Honda_City/Honda_City_i_VTEC_CVT_VX.htm'
p803
sS'Audi A6 35 TFSI'
p804
S'https://www.cardekho.com/overview/Audi_A6/Audi_A6_35_TFSI.htm'
p805
sS'Toyota Platinum Etios 1.5 V'
p806
S'https://www.cardekho.com/overview/Toyota_Etios/Toyota_Etios_1.5_V.htm'
p807
sS'Honda City i DTec VX Option'
p808
S'https://www.cardekho.com/overview/Honda_City/Honda_City_i_DTec_VX_Option.htm'
p809
sS'Volkswagen Vento 1.6 Highline'
p810
S'https://www.cardekho.com/overview/Volkswagen_Vento/Volkswagen_Vento_1.6_Highline.htm'
p811
sS'Volvo S60 D5 Inscription'
p812
S'https://www.cardekho.com/overview/Volvo_S60/Volvo_S60_D5_Inscription.htm'
p813
sS'Chevrolet Sail 1.3 Base'
p814
S'https://www.cardekho.com/overview/Chevrolet_Sail/Chevrolet_Sail_1.3_Base.htm'
p815
sS'Mercedes-Benz S-Class S 63 AMG Coupe'
p816
S'https://www.cardekho.com/overview/Mercedes-Benz_S-Class/Mercedes-Benz_S-Class_S_63_AMG_Coupe.htm'
p817
sS'Maruti Swift Dzire VXI'
p818
S'https://www.cardekho.com/overview/Maruti_Swift_Dzire/Maruti_Swift_Dzire_VXI.htm'
p819
sS'Hyundai Xcent 1.1 CRDi S Celebration Edition'
p820
S'https://www.cardekho.com/overview/Hyundai_Xcent/Hyundai_Xcent_1.1_CRDi_S_Celebration_Edition.htm'
p821
sS'Hyundai Elantra 1.6 SX'
p822
S'https://www.cardekho.com/overview/Hyundai_Elantra/Hyundai_Elantra_1.6_SX.htm'
p823
sS'Chevrolet Sail 1.2 LT ABS'
p824
S'https://www.cardekho.com/overview/Chevrolet_Sail/Chevrolet_Sail_1.2_LT_ABS.htm'
p825
sS'Mercedes-Benz S-Class S 350 CDI'
p826
S'https://www.cardekho.com/overview/Mercedes-Benz_S-Class/Mercedes-Benz_S-Class_S_350_CDI.htm'
p827
sS'Mahindra E Verito D4'
p828
S'https://www.cardekho.com/overview/Mahindra_E_Verito/Mahindra_E_Verito_D4.htm'
p829
sS'Tata Zest Quadrajet 1.3 XT'
p830
S'https://www.cardekho.com/overview/Tata_Zest/Tata_Zest_Quadrajet_1.3_XT.htm'
p831
sS'Honda City i DTec VX Option BL'
p832
S'https://www.cardekho.com/overview/Honda_City/Honda_City_i_DTec_VX_Option_BL.htm'
p833
sS'Skoda Rapid 1.5 TDI Style Plus Black Package'
p834
S'https://www.cardekho.com/overview/Skoda_Rapid/Skoda_Rapid_1.5_TDI_Style_Plus_Black_Package.htm'
p835
sS'Nissan Sunny XV D Premium Safety'
p836
S'https://www.cardekho.com/overview/Nissan_Sunny/Nissan_Sunny_XV_D_Premium_Safety.htm'
p837
sS'Honda Amaze SX i-VTEC'
p838
S'https://www.cardekho.com/overview/Honda_Amaze/Honda_Amaze_SX_i_VTEC.htm'
p839
sS'Mercedes-Benz E-Class E200 Edition E'
p840
S'https://www.cardekho.com/overview/Mercedes-Benz_E-Class/Mercedes-Benz_E-Class_E200_Edition_E.htm'
p841
sS'Skoda Rapid 1.5 TDI AT Style Plus Black Package'
p842
S'https://www.cardekho.com/overview/Skoda_Rapid/Skoda_Rapid_1.5_TDI_AT_Style_Plus_Black_Package.htm'
p843
sS'Skoda Rapid 1.6 MPI Style Plus Black Package'
p844
S'https://www.cardekho.com/overview/Skoda_Rapid/Skoda_Rapid_1.6_MPI_Style_Plus_Black_Package.htm'
p845
sS'Skoda Octavia Ambition 1.4 TSI MT'
p846
S'https://www.cardekho.com/overview/Skoda_Octavia/Skoda_Octavia_Ambition_1.4_TSI_MT.htm'
p847
sS'Hyundai Xcent 1.1 CRDi SX'
p848
S'https://www.cardekho.com/overview/Hyundai_Xcent/Hyundai_Xcent_1.1_CRDi_SX.htm'
p849
sS'Skoda Octavia Style Plus 2.0 TDI AT'
p850
S'https://www.cardekho.com/overview/Skoda_Octavia/Skoda_Octavia_Style_Plus_2.0_TDI_AT.htm'
p851
sS'Volkswagen Vento 1.5 TDI Highline'
p852
S'https://www.cardekho.com/overview/Volkswagen_Vento/Volkswagen_Vento_1.5_TDI_Highline.htm'
p853
sS'Volkswagen Vento Celeste 1.6 Highline'
p854
S'https://www.cardekho.com/overview/Volkswagen_Vento/Volkswagen_Vento_Celeste_1.6_Highline.htm'
p855
sS'Chevrolet Sail 1.2 LS'
p856
S'https://www.cardekho.com/overview/Chevrolet_Sail/Chevrolet_Sail_1.2_LS.htm'
p857
sS'Mercedes-Benz E-Class E250 Edition E'
p858
S'https://www.cardekho.com/overview/Mercedes-Benz_E-Class/Mercedes-Benz_E-Class_E250_Edition_E.htm'
p859
sS'Honda City i VTEC VX Option BL'
p860
S'https://www.cardekho.com/overview/Honda_City/Honda_City_i_VTEC_VX_Option_BL.htm'
p861
sS'Hyundai Elantra 2.0 SX Option'
p862
S'https://www.cardekho.com/overview/Hyundai_Elantra/Hyundai_Elantra_2.0_SX_Option.htm'
p863
sS'Fiat Linea Power Up 1.3 Active'
p864
S'https://www.cardekho.com/overview/Fiat_Linea/Fiat_Linea_Power_Up_1.3_Active.htm'
p865
sS'Hyundai Xcent 1.1 CRDi Base'
p866
S'https://www.cardekho.com/overview/Hyundai_Xcent/Hyundai_Xcent_1.1_CRDi_Base.htm'
p867
sS'Maruti Ciaz VXi Plus'
p868
S'https://www.cardekho.com/overview/Maruti_Ciaz/Maruti_Ciaz_VXi_Plus.htm'
p869
sS'Maruti Ciaz VXi Option'
p870
S'https://www.cardekho.com/overview/Maruti_Ciaz/Maruti_Ciaz_VXi_Option.htm'
p871
sS'Skoda Superb L&K 1.8 TSI AT'
p872
S'https://www.cardekho.com/overview/Skoda_Superb/Skoda_Superb_LK_1.8_TSI_AT.htm'
p873
sS'Honda Amaze VX i-DTEC'
p874
S'https://www.cardekho.com/overview/Honda_Amaze/Honda_Amaze_VX_i_DTEC.htm'
p875
sS'Tata Indigo eCS eVX'
p876
S'https://www.cardekho.com/overview/Tata_Indigo_CS/Tata_Indigo_CS_eVX.htm'
p877
sS'Volkswagen Ameo 1.5 TDI Comfortline'
p878
S'https://www.cardekho.com/overview/Volkswagen_Ameo/Volkswagen_Ameo_1.5_TDI_Comfortline.htm'
p879
sS'Honda City i DTec VX'
p880
S'https://www.cardekho.com/overview/Honda_City/Honda_City_i_DTec_VX.htm'
p881
sS'Volkswagen Vento 1.5 TDI Comfortline'
p882
S'https://www.cardekho.com/overview/Volkswagen_Vento/Volkswagen_Vento_1.5_TDI_Comfortline.htm'
p883
sS'Chevrolet Sail 1.3 LS'
p884
S'https://www.cardekho.com/overview/Chevrolet_Sail/Chevrolet_Sail_1.3_LS.htm'
p885
sS'Ford Aspire 1.2 Ti-VCT Titanium Plus'
p886
S'https://www.cardekho.com/overview/Ford_Figo_Aspire/Ford_Figo_Aspire_1.2_Ti-VCT_Titanium_Plus.htm'
p887
sS'Tata Zest Revotron 1.2 XT'
p888
S'https://www.cardekho.com/overview/Tata_Zest/Tata_Zest_Revotron_1.2_XT.htm'
p889
sS'Hyundai Xcent 1.2 Kappa SX Option'
p890
S'https://www.cardekho.com/overview/Hyundai_Xcent/Hyundai_Xcent_1.2_Kappa_SX_Option.htm'
p891
sS'Skoda Superb Style 2.0 TDI AT'
p892
S'https://www.cardekho.com/overview/Skoda_Superb/Skoda_Superb_Style_2.0_TDI_AT.htm'
p893
sS'Maruti Ciaz VXi'
p894
S'https://www.cardekho.com/overview/Maruti_Ciaz/Maruti_Ciaz_VXi.htm'
p895
sS'Audi A3 40 TFSI Premium'
p896
S'https://www.cardekho.com/overview/Audi_A3/Audi_A3_40_TFSI_Premium.htm'
p897
sS'Maruti Swift Dzire ZXI'
p898
S'https://www.cardekho.com/overview/Maruti_Swift_Dzire/Maruti_Swift_Dzire_ZXI.htm'
p899
sS'Mahindra Verito 1.5 D2'
p900
S'https://www.cardekho.com/overview/Mahindra_Verito/Mahindra_Verito_1.5_D2_BSIV.htm'
p901
sS'Maruti Ciaz ZDi Plus SHVS'
p902
S'https://www.cardekho.com/overview/Maruti_Ciaz/Maruti_Ciaz_ZDi_Plus_SHVS.htm'
p903
sS'Mercedes-Benz CLA 45 AMG'
p904
S'https://www.cardekho.com/overview/Mercedes-Benz_CLA/Mercedes-Benz_CLA_45_AMG.htm'
p905
sS'Mahindra Verito 1.5 D6'
p906
S'https://www.cardekho.com/overview/Mahindra_Verito/Mahindra_Verito_1.5_D6_BSIV.htm'
p907
sS'Mahindra Verito 1.5 D4'
p908
S'https://www.cardekho.com/overview/Mahindra_Verito/Mahindra_Verito_1.5_D4_BSIV.htm'
p909
sS'Hyundai Verna 1.6 CRDI AT SX Option'
p910
S'https://www.cardekho.com/overview/Hyundai_Verna/Hyundai_Verna_1.6_CRDI_AT_SX_Option.htm'
p911
sS'Hyundai Verna 1.4 CRDi'
p912
S'https://www.cardekho.com/overview/Hyundai_Verna/Hyundai_Verna_1.4_CRDi.htm'
p913
sS'Hyundai Verna 1.6 VTVT SX Option'
p914
S'https://www.cardekho.com/overview/Hyundai_Verna/Hyundai_Verna_1.6_VTVT_SX_Option.htm'
p915
sS'Volkswagen Vento 1.6 Comfortline'
p916
S'https://www.cardekho.com/overview/Volkswagen_Vento/Volkswagen_Vento_1.6_Comfortline.htm'
p917
sS'Fiat Linea Classic 1.4 Petrol'
p918
S'https://www.cardekho.com/overview/Fiat_Linea_Classic/Fiat_Linea_Classic_1.4_Petrol.htm'
p919
sS'Toyota Corolla Altis D 4D J'
p920
S'https://www.cardekho.com/overview/Toyota_Corolla_Altis/Toyota_Corolla_Altis_D-4D_J.htm'
p921
sS'Hyundai Elantra 1.6 SX Option'
p922
S'https://www.cardekho.com/overview/Hyundai_Elantra/Hyundai_Elantra_1.6_SX_Option.htm'
p923
sS'Toyota Corolla Altis D 4D G'
p924
S'https://www.cardekho.com/overview/Toyota_Corolla_Altis/Toyota_Corolla_Altis_D-4D_G.htm'
p925
sS'Hyundai Verna 1.6 CRDi S'
p926
S'https://www.cardekho.com/overview/Hyundai_Verna/Hyundai_Verna_1.6_CRDi_S.htm'
p927
sS'Skoda Octavia Ambition Plus 1.8 TSI AT'
p928
S'https://www.cardekho.com/overview/Skoda_Octavia/Skoda_Octavia_Ambition_Plus_1.8_TSI_AT.htm'
p929
sS'Toyota Corolla Altis JS MT'
p930
S'https://www.cardekho.com/overview/Toyota_Corolla_Altis/Toyota_Corolla_Altis_JS_MT.htm'
p931
sS'Toyota Corolla Altis G MT'
p932
S'https://www.cardekho.com/overview/Toyota_Corolla_Altis/Toyota_Corolla_Altis_G_MT.htm'
p933
sS'Toyota Platinum Etios 1.4 VXD'
p934
S'https://www.cardekho.com/overview/Toyota_Etios/Toyota_Etios_1.4_VXD.htm'
p935
sS'Mercedes-Benz S-Class S 63 AMG'
p936
S'https://www.cardekho.com/overview/Mercedes-Benz_S-Class/Mercedes-Benz_S-Class_S_63_AMG.htm'
p937
sS'Hyundai Elantra 2.0 SX Option AT'
p938
S'https://www.cardekho.com/overview/Hyundai_Elantra/Hyundai_Elantra_2.0_SX_Option_AT.htm'
p939
sS'Mercedes-Benz C-Class C 63 S AMG'
p940
S'https://www.cardekho.com/overview/Mercedes-Benz_New_C-Class/Mercedes-Benz_New_C-Class_C_63_S_AMG.htm'
p941
sS'Maruti Swift Dzire VXi AT'
p942
S'https://www.cardekho.com/overview/Maruti_Swift_Dzire/Maruti_Swift_Dzire_VXi_AT.htm'
p943
sS'Fiat Linea Classic Plus With Alloy 1.3 Multijet'
p944
S'https://www.cardekho.com/overview/Fiat_Linea_Classic/Fiat_Linea_Classic_Plus_With_Alloy_1.3_Multijet.htm'
p945
sS'Ford Aspire 1.5 TDCi Ambiente'
p946
S'https://www.cardekho.com/overview/Ford_Figo_Aspire/Ford_Figo_Aspire_1.5_TDCi_Ambiente.htm'
p947
sS'Volkswagen Vento 1.5 TDI Trendline'
p948
S'https://www.cardekho.com/overview/Volkswagen_Vento/Volkswagen_Vento_1.5_TDI_Trendline.htm'
p949
sS'Mercedes-Benz C-Class C 200 CGI'
p950
S'https://www.cardekho.com/overview/Mercedes-Benz_New_C-Class/Mercedes-Benz_New_C-Class_C_200_CGI.htm'
p951
sS'Mercedes-Benz E-Class E 200 CGI'
p952
S'https://www.cardekho.com/overview/Mercedes-Benz_E-Class/Mercedes-Benz_E-Class_E_200_CGI.htm'
p953
sS'Tata Zest Quadrajet 1.3 75PS XMS'
p954
S'https://www.cardekho.com/overview/Tata_Zest/Tata_Zest_Quadrajet_1.3_75PS_XMS.htm'
p955
sS'Chevrolet Cruze LT'
p956
S'https://www.cardekho.com/overview/Chevrolet_Cruze/Chevrolet_Cruze_LT.htm'
p957
sS'Volkswagen Ameo 1.5 TDI Comfortline AT'
p958
S'https://www.cardekho.com/overview/Volkswagen_Ameo/Volkswagen_Ameo_1.5_TDI_Comfortline_AT.htm'
p959
sS'Volkswagen Vento 1.2 TSI Comfortline AT'
p960
S'https://www.cardekho.com/overview/Volkswagen_Vento/Volkswagen_Vento_1.2_TSI_Comfortline_AT.htm'
p961
sS'Mercedes-Benz S-Class S Guard'
p962
S'https://www.cardekho.com/overview/Mercedes-Benz_S-Class/Mercedes-Benz_S-Class_S_Guard.htm'
p963
sS'Honda City i VTEC VX'
p964
S'https://www.cardekho.com/overview/Honda_City/Honda_City_i_VTEC_VX.htm'
p965
sS'Honda Amaze SX i-DTEC'
p966
S'https://www.cardekho.com/overview/Honda_Amaze/Honda_Amaze_SX_i_DTEC.htm'
p967
sS'Honda City i VTEC SV'
p968
S'https://www.cardekho.com/overview/Honda_City/Honda_City_i_VTEC_SV.htm'
p969
sS'Volvo S60 T6'
p970
S'https://www.cardekho.com/overview/Volvo_S60/Volvo_S60_T6.htm'
p971
sS'Renault Scala Diesel RxL'
p972
S'https://www.cardekho.com/overview/Renault_Scala/Renault_Scala_Diesel_RxL.htm'
p973
sS'Chevrolet Cruze LTZ AT'
p974
S'https://www.cardekho.com/overview/Chevrolet_Cruze/Chevrolet_Cruze_LTZ_AT.htm'
p975
sS'Hyundai Xcent 1.2 Kappa SX'
p976
S'https://www.cardekho.com/overview/Hyundai_Xcent/Hyundai_Xcent_1.2_Kappa_SX.htm'
p977
sS'Toyota Corolla Altis 1.8 Limited Edition'
p978
S'https://www.cardekho.com/overview/Toyota_Corolla_Altis/Toyota_Corolla_Altis_1.8_Limited_Edition.htm'
p979
sS'Honda Amaze E i-DTEC'
p980
S'https://www.cardekho.com/overview/Honda_Amaze/Honda_Amaze_E_i-DTEC.htm'
p981
sS'Mercedes-Benz E-Class E250 CDI Avantgarde'
p982
S'https://www.cardekho.com/overview/Mercedes-Benz_E-Class/Mercedes-Benz_E-Class_E250_CDI_Avantgarde.htm'
p983
sS'Maruti Ciaz ZDi SHVS'
p984
S'https://www.cardekho.com/overview/Maruti_Ciaz/Maruti_Ciaz_ZDi_SHVS.htm'
p985
sS'Hyundai Elantra 1.6 SX Option AT'
p986
S'https://www.cardekho.com/overview/Hyundai_Elantra/Hyundai_Elantra_1.6_SX_Option_AT.htm'
p987
sS'Mercedes-Benz CLA 200 CDI Sport'
p988
S'https://www.cardekho.com/overview/Mercedes-Benz_CLA/Mercedes-Benz_CLA_200_CDI_Sport.htm'
p989
sS'Hyundai Xcent 1.2 Kappa S AT'
p990
S'https://www.cardekho.com/overview/Hyundai_Xcent/Hyundai_Xcent_1.2_Kappa_S_AT.htm'
p991
sS'Renault Scala Diesel RxZ'
p992
S'https://www.cardekho.com/overview/Renault_Scala/Renault_Scala_Diesel_RxZ.htm'
p993
sS'Hyundai Xcent 1.2 Kappa Base'
p994
S'https://www.cardekho.com/overview/Hyundai_Xcent/Hyundai_Xcent_1.2_Kappa_Base.htm'
p995
sS'Honda Amaze S Option i-VTEC'
p996
S'https://www.cardekho.com/overview/Honda_Amaze/Honda_Amaze_S_Option_i-VTEC.htm'
p997
sS'Ford Aspire 1.5 TDCi Titanium Plus'
p998
S'https://www.cardekho.com/overview/Ford_Figo_Aspire/Ford_Figo_Aspire_1.5_TDCi_Titanium_Plus.htm'
p999
sS'Skoda Superb Style 1.8 TSI AT'
p1000
S'https://www.cardekho.com/overview/Skoda_Superb/Skoda_Superb_Style_1.8_TSI_AT.htm'
p1001
sS'Skoda Octavia Ambition Plus 2.0 TDI MT'
p1002
S'https://www.cardekho.com/overview/Skoda_Octavia/Skoda_Octavia_Ambition_Plus_2.0_TDI_MT.htm'
p1003
sS'Maruti Swift Dzire LXI Optional-O'
p1004
S'https://www.cardekho.com/overview/Maruti_Swift_Dzire/Maruti_Swift_Dzire_LXI_Optional-O.htm'
p1005
sS'Mercedes-Benz S-Class Maybach S600 Guard'
p1006
S'https://www.cardekho.com/overview/Mercedes-Benz_S-Class/Mercedes-Benz_S-Class_Maybach_S600_Guard.htm'
p1007
sS'Maruti Swift Dzire LDI'
p1008
S'https://www.cardekho.com/overview/Maruti_Swift_Dzire/Maruti_Swift_Dzire_LDI.htm'
p1009
sS'Audi A6 35 TFSI Matrix'
p1010
S'https://www.cardekho.com/overview/Audi_A6/Audi_A6_35_TFSI_Matrix.htm'
p1011
sS'Hyundai Xcent 1.1 CRDi SX Option'
p1012
S'https://www.cardekho.com/overview/Hyundai_Xcent/Hyundai_Xcent_1.1_CRDi_SX_Option.htm'
p1013
sS'Volkswagen Jetta 2.0L TDI Comfortline'
p1014
S'https://www.cardekho.com/overview/Volkswagen_Jetta/Volkswagen_Jetta_2.0L_TDI_Comfortline.htm'
p1015
sS'Hyundai Xcent 1.2 Kappa S'
p1016
S'https://www.cardekho.com/overview/Hyundai_Xcent/Hyundai_Xcent_1.2_Kappa_S.htm'
p1017
sS'Tata Indigo eCS Emax CNG GLS'
p1018
S'https://www.cardekho.com/overview/Tata_Indigo_CS/Tata_Indigo_CS_Emax_CNG_GLS.htm'
p1019
sS'Honda Amaze E Option i-VTEC'
p1020
S'https://www.cardekho.com/overview/Honda_Amaze/Honda_Amaze_E_Option_i-VTEC.htm'
p1021
sS'Volkswagen Jetta 2.0L TDI Highline'
p1022
S'https://www.cardekho.com/overview/Volkswagen_Jetta/Volkswagen_Jetta_2.0L_TDI_Highline.htm'
p1023
sS'Fiat Linea Power Up 1.4 T-Jet Emotion'
p1024
S'https://www.cardekho.com/overview/Fiat_Linea/Fiat_Linea_125S.htm'
p1025
sS'Honda City i DTec SV'
p1026
S'https://www.cardekho.com/overview/Honda_City/Honda_City_i_DTec_SV.htm'
p1027
ssg74
(dp1028
S'ICML Extreme DI Non Ac 9Seater BSIII'
p1029
S'https://www.cardekho.com/overview/ICML_Extreme/ICML_Extreme_LD_DI_Non-Ac_9Seater_BSIII.htm'
p1030
sS'Toyota Innova 2.5 GX (Diesel) 7 Seater'
p1031
S'https://www.cardekho.com/overview/Toyota_Innova/Toyota_Innova_2.5_GX_(Diesel)_7_Seater_BS_IV.htm'
p1032
sS'Honda Mobilio V i VTEC'
p1033
S'https://www.cardekho.com/overview/Honda_Mobilio/Honda_Mobilio_V_i-VTEC.htm'
p1034
sS'Tata Aria Pleasure 4x2'
p1035
S'https://www.cardekho.com/overview/Tata_Aria/Tata_Aria_Pleasure_4x2.htm'
p1036
sS'Chevrolet Tavera Neo 3 LS 9 Str BSIII'
p1037
S'https://www.cardekho.com/overview/Chevrolet_Tavera/Chevrolet_Tavera_Neo_3_LS_9_Str_BSIII.htm'
p1038
sS'Honda Mobilio RS Option i DTEC'
p1039
S'https://www.cardekho.com/overview/Honda_Mobilio/Honda_Mobilio_RS_Option_i-DTEC.htm'
p1040
sS'Renault Lodgy World Edition 110PS'
p1041
S'https://www.cardekho.com/overview/Renault_Lodgy/Renault_Lodgy_World_Edition_110PS.htm'
p1042
sS'Toyota Innova 2.5 ZX Diesel 7 Seater'
p1043
S'https://www.cardekho.com/overview/Toyota_Innova/Toyota_Innova_2.5_ZX_Diesel_7_Seater.htm'
p1044
sS'ICML Extreme Van BSIII Non AC'
p1045
S'https://www.cardekho.com/overview/ICML_Extreme/ICML_Extreme_Van_BSIII_Non_AC.htm'
p1046
sS'Chevrolet Tavera Neo 3 LS 7 Seats BSIII'
p1047
S'https://www.cardekho.com/overview/Chevrolet_Tavera/Chevrolet_Tavera_Neo_3_LS_7_Seats_BSIII.htm'
p1048
sS'Mahindra Xylo D2 Maxx BSIV'
p1049
S'https://www.cardekho.com/overview/Mahindra_Xylo/Mahindra_Xylo_D2_Maxx_BSIV.htm'
p1050
sS'Honda Mobilio E i VTEC'
p1051
S'https://www.cardekho.com/overview/Honda_Mobilio/Honda_Mobilio_E_i-VTEC.htm'
p1052
sS'Mahindra Xylo D4'
p1053
S'https://www.cardekho.com/overview/Mahindra_Xylo/Mahindra_Xylo_D4.htm'
p1054
sS'Datsun GO Plus A EPS'
p1055
S'https://www.cardekho.com/overview/Datsun_GO_Plus/Datsun_GO_Plus_A_EPS.htm'
p1056
sS'Mahindra Xylo D2'
p1057
S'https://www.cardekho.com/overview/Mahindra_Xylo/Mahindra_Xylo_D2_BS_IV.htm'
p1058
sS'ICML Extreme Xciter CRDFi 9Seater BSIV'
p1059
S'https://www.cardekho.com/overview/ICML_Extreme/ICML_Extreme_SD_CRDFi_9Seater_BSIV.htm'
p1060
sS'Chevrolet Tavera Neo 3 10 Seats BSIII'
p1061
S'https://www.cardekho.com/overview/Chevrolet_Tavera/Chevrolet_Tavera_Neo_3_10_Seats_BSIII.htm'
p1062
sS'Honda Mobilio S i VTEC'
p1063
S'https://www.cardekho.com/overview/Honda_Mobilio/Honda_Mobilio_S_i-VTEC.htm'
p1064
sS'Chevrolet Tavera Neo 3 LS 7 C BSIII'
p1065
S'https://www.cardekho.com/overview/Chevrolet_Tavera/Chevrolet_Tavera_Neo_3_LS_7_C_BSIII.htm'
p1066
sS'Toyota Innova Crysta 2.7 GX MT 8S'
p1067
S'https://www.cardekho.com/overview/Toyota_Innova_Crysta/Toyota_Innova_Crysta_2.7_GX_MT_8S.htm'
p1068
sS'Honda Mobilio V Option i VTEC'
p1069
S'https://www.cardekho.com/overview/Honda_Mobilio/Honda_Mobilio_V_Option_i-VTEC.htm'
p1070
sS'Toyota Innova Crysta 2.7 GX MT'
p1071
S'https://www.cardekho.com/overview/Toyota_Innova_Crysta/Toyota_Innova_Crysta_2.7_GX_MT.htm'
p1072
sS'ICML Extreme Winner DI PS AC 9Seater BSIII'
p1073
S'https://www.cardekho.com/overview/ICML_Extreme/ICML_Extreme_LD_DI_PS_AC_9Seater_BSIII.htm'
p1074
sS'Toyota Innova 2.5 GX (Diesel) 8 Seater'
p1075
S'https://www.cardekho.com/overview/Toyota_Innova/Toyota_Innova_2.5_GX_(Diesel)_8_Seater_BS_IV.htm'
p1076
sS'Chevrolet Enjoy 1.4 LT 8'
p1077
S'https://www.cardekho.com/overview/Chevrolet_Enjoy/Chevrolet_Enjoy_1.4_LT_8.htm'
p1078
sS'Maruti Ertiga SHVS LDI'
p1079
S'https://www.cardekho.com/overview/Maruti_Ertiga/Maruti_Ertiga_SHVS_LDI.htm'
p1080
sS'Chevrolet Enjoy 1.4 LT 7'
p1081
S'https://www.cardekho.com/overview/Chevrolet_Enjoy/Chevrolet_Enjoy_1.4_LT_7.htm'
p1082
sS'Mahindra Xylo D2 Maxx'
p1083
S'https://www.cardekho.com/overview/Mahindra_Xylo/Mahindra_Xylo_D2_Maxx.htm'
p1084
sS'Toyota Innova Crysta 2.4 G MT'
p1085
S'https://www.cardekho.com/overview/Toyota_Innova_Crysta/Toyota_Innova_Crysta_2.4_G_MT.htm'
p1086
sS'Toyota Innova Crysta 2.4 GX MT 8S'
p1087
S'https://www.cardekho.com/overview/Toyota_Innova_Crysta/Toyota_Innova_Crysta_2.4_GX_MT_8S.htm'
p1088
sS'Honda Mobilio V i DTEC'
p1089
S'https://www.cardekho.com/overview/Honda_Mobilio/Honda_Mobilio_V_i-DTEC.htm'
p1090
sS'ICML Extreme  Xciter DI 9Seater BSIII'
p1091
S'https://www.cardekho.com/overview/ICML_Extreme/ICML_Extreme_SD_DI_9Seater_BSIII.htm'
p1092
sS'Toyota Innova Crysta 2.4 VX MT'
p1093
S'https://www.cardekho.com/overview/Toyota_Innova_Crysta/Toyota_Innova_Crysta_2.4_VX_MT.htm'
p1094
sS'Toyota Innova 2.5 VX (Diesel) 8 Seater'
p1095
S'https://www.cardekho.com/overview/Toyota_Innova/Toyota_Innova_2.5_VX_(Diesel)_8_Seater_BS_IV.htm'
p1096
sS'Honda Mobilio S i DTEC'
p1097
S'https://www.cardekho.com/overview/Honda_Mobilio/Honda_Mobilio_S_i-DTEC.htm'
p1098
sS'Mercedes-Benz B-Class B180 Sport'
p1099
S'https://www.cardekho.com/overview/Mercedes-Benz_B_Class/Mercedes-Benz_B_Class_B180_Sport.htm'
p1100
sS'Toyota Innova Crysta 2.4 G MT 8S'
p1101
S'https://www.cardekho.com/overview/Toyota_Innova_Crysta/Toyota_Innova_Crysta_2.4_G_MT_8S.htm'
p1102
sS'Tata Aria Pride 4x4'
p1103
S'https://www.cardekho.com/overview/Tata_Aria/Tata_Aria_Pride_4x4.htm'
p1104
sS'Toyota Innova Crysta 2.7 VX MT'
p1105
S'https://www.cardekho.com/overview/Toyota_Innova_Crysta/Toyota_Innova_Crysta_2.7_VX_MT.htm'
p1106
sS'Renault Lodgy 85PS Std'
p1107
S'https://www.cardekho.com/overview/Renault_Lodgy/Renault_Lodgy_85PS_Std.htm'
p1108
sS'Toyota Innova Crysta 2.8 GX AT 8S'
p1109
S'https://www.cardekho.com/overview/Toyota_Innova_Crysta/Toyota_Innova_Crysta_2.8_GX_AT_8S.htm'
p1110
sS'Chevrolet Tavera Neo 3 Max 10 Seats BSIII'
p1111
S'https://www.cardekho.com/overview/Chevrolet_Tavera/Chevrolet_Tavera_Neo_3_Max_10_Seats_BSIII.htm'
p1112
sS'Chevrolet Enjoy 1.3 TCDi LTZ 8'
p1113
S'https://www.cardekho.com/overview/Chevrolet_Enjoy/Chevrolet_Enjoy_1.3_TCDi_LTZ_8.htm'
p1114
sS'Chevrolet Enjoy 1.3 TCDi LS 8'
p1115
S'https://www.cardekho.com/overview/Chevrolet_Enjoy/Chevrolet_Enjoy_1.3_TCDi_LS_8.htm'
p1116
sS'Chevrolet Enjoy 1.3 TCDi LS 7'
p1117
S'https://www.cardekho.com/overview/Chevrolet_Enjoy/Chevrolet_Enjoy_1.3_TCDi_LS_7.htm'
p1118
sS'Chevrolet Enjoy 1.3 TCDi LTZ 7'
p1119
S'https://www.cardekho.com/overview/Chevrolet_Enjoy/Chevrolet_Enjoy_1.3_TCDi_LTZ_7.htm'
p1120
sS'Toyota Innova 2.5 VX (Diesel) 7 Seater'
p1121
S'https://www.cardekho.com/overview/Toyota_Innova/Toyota_Innova_2.5_VX_(Diesel)_7_Seater_BS_IV.htm'
p1122
sS'Honda Mobilio E i DTEC'
p1123
S'https://www.cardekho.com/overview/Honda_Mobilio/Honda_Mobilio_E_i-DTEC.htm'
p1124
sS'Mahindra Xylo H4 ABS'
p1125
S'https://www.cardekho.com/overview/Mahindra_Xylo/Mahindra_Xylo_H4_ABS.htm'
p1126
sS'Maruti Ertiga SHVS ZDI'
p1127
S'https://www.cardekho.com/overview/Maruti_Ertiga/Maruti_Ertiga_SHVS_ZDI.htm'
p1128
sS'Mahindra Xylo H8'
p1129
S'https://www.cardekho.com/overview/Mahindra_Xylo/Mahindra_Xylo_H8.htm'
p1130
sS'Mahindra Xylo H4'
p1131
S'https://www.cardekho.com/overview/Mahindra_Xylo/Mahindra_Xylo_H4.htm'
p1132
sS'Renault Lodgy 85PS RxE 7 Seater'
p1133
S'https://www.cardekho.com/overview/Renault_Lodgy/Renault_Lodgy_85PS_RxE_7_Seater.htm'
p1134
sS'Chevrolet Tavera Neo 3 LT 9 Seats BSIII'
p1135
S'https://www.cardekho.com/overview/Chevrolet_Tavera/Chevrolet_Tavera_Neo_3_LT_9_Seats_BSIII.htm'
p1136
sS'Toyota Innova Crysta 2.4 GX MT'
p1137
S'https://www.cardekho.com/overview/Toyota_Innova_Crysta/Toyota_Innova_Crysta_2.4_GX_MT.htm'
p1138
sS'Mahindra Xylo D2 BS III'
p1139
S'https://www.cardekho.com/overview/Mahindra_Xylo/Mahindra_Xylo_D2_BS_III.htm'
p1140
sS'Chevrolet Enjoy 1.4 LS 7'
p1141
S'https://www.cardekho.com/overview/Chevrolet_Enjoy/Chevrolet_Enjoy_1.4_LS_7.htm'
p1142
sS'Chevrolet Enjoy 1.4 LS 8'
p1143
S'https://www.cardekho.com/overview/Chevrolet_Enjoy/Chevrolet_Enjoy_1.4_LS_8.htm'
p1144
sS'Toyota Innova Crysta 2.4 ZX MT'
p1145
S'https://www.cardekho.com/overview/Toyota_Innova_Crysta/Toyota_Innova_Crysta_2.4_ZX_MT.htm'
p1146
sS'Honda Mobilio RS i DTEC'
p1147
S'https://www.cardekho.com/overview/Honda_Mobilio/Honda_Mobilio_RS_i-DTEC.htm'
p1148
sS'ICML Extreme Winner CRDFi PS AC 9Seater BSIII'
p1149
S'https://www.cardekho.com/overview/ICML_Extreme/ICML_Extreme_LD_CRDFi_PS_AC_9Seater_BSIII.htm'
p1150
sS'ICML Extreme Xciter CRDFi 9Seater BSIII'
p1151
S'https://www.cardekho.com/overview/ICML_Extreme/ICML_Extreme_SD_CRDFi_9Seater_BSIII.htm'
p1152
sS'Datsun GO Plus Style'
p1153
S'https://www.cardekho.com/overview/Datsun_GO_Plus/Datsun_GO_Plus_Style.htm'
p1154
sS'Datsun GO Plus T Option'
p1155
S'https://www.cardekho.com/overview/Datsun_GO_Plus/Datsun_GO_Plus_T_Option.htm'
p1156
sS'ICML Extreme Delite DI 7Seater BSIII'
p1157
S'https://www.cardekho.com/overview/ICML_Extreme/ICML_Extreme_VD_DI_7Seater_BSIII.htm'
p1158
sS'Maruti Ertiga SHVS LDI Option'
p1159
S'https://www.cardekho.com/overview/Maruti_Ertiga/Maruti_Ertiga_SHVS_LDI_Option.htm'
p1160
sS'Chevrolet Tavera Neo 3 LS 10 Seats BSIII'
p1161
S'https://www.cardekho.com/overview/Chevrolet_Tavera/Chevrolet_Tavera_Neo_3_LS_10_Seats_BSIII.htm'
p1162
sS'Toyota Innova Crysta 2.8 GX AT'
p1163
S'https://www.cardekho.com/overview/Toyota_Innova_Crysta/Toyota_Innova_Crysta_2.8_GX_AT.htm'
p1164
sS'ICML Extreme Winner CRDFi AC M Stg 9Seater BSIV'
p1165
S'https://www.cardekho.com/overview/ICML_Extreme/ICML_Extreme_LD_CRDFi_AC_M_Stg_9Seater_BSIV.htm'
p1166
sS'Maruti Ertiga LXI Option'
p1167
S'https://www.cardekho.com/overview/Maruti_Ertiga/Maruti_Ertiga_LXI_Option.htm'
p1168
sS'Toyota Innova Crysta 2.4 VX MT 8S'
p1169
S'https://www.cardekho.com/overview/Toyota_Innova_Crysta/Toyota_Innova_Crysta_2.4_VX_MT_8S.htm'
p1170
sS'Chevrolet Enjoy 1.3 TCDi LT 7'
p1171
S'https://www.cardekho.com/overview/Chevrolet_Enjoy/Chevrolet_Enjoy_1.3_TCDi_LT_7.htm'
p1172
sS'ICML Extreme Winner CRDFi Non AC 9Seater BSIV'
p1173
S'https://www.cardekho.com/overview/ICML_Extreme/ICML_Extreme_LD_CRDFi_Non-AC_9Seater_BSIV.htm'
p1174
sS'Chevrolet Enjoy 1.3 TCDi LT 8'
p1175
S'https://www.cardekho.com/overview/Chevrolet_Enjoy/Chevrolet_Enjoy_1.3_TCDi_LT_8.htm'
p1176
sS'Chevrolet Enjoy 1.4 LTZ 7'
p1177
S'https://www.cardekho.com/overview/Chevrolet_Enjoy/Chevrolet_Enjoy_1.4_LTZ_7.htm'
p1178
sS'Chevrolet Enjoy 1.4 LTZ 8'
p1179
S'https://www.cardekho.com/overview/Chevrolet_Enjoy/Chevrolet_Enjoy_1.4_LTZ_8.htm'
p1180
sS'Toyota Innova Crysta 2.7 GX AT'
p1181
S'https://www.cardekho.com/overview/Toyota_Innova_Crysta/Toyota_Innova_Crysta_2.7_GX_AT.htm'
p1182
sS'Tata Aria Pure LX 4x2'
p1183
S'https://www.cardekho.com/overview/Tata_Aria/Tata_Aria_Pure_LX_4x2.htm'
p1184
sS'Toyota Innova 2.5 G (Diesel) 8 Seater'
p1185
S'https://www.cardekho.com/overview/Toyota_Innova/Toyota_Innova_2.5_G_(Diesel)_8_Seater_BS_IV.htm'
p1186
sS'Toyota Innova Crysta 2.7 GX AT 8S'
p1187
S'https://www.cardekho.com/overview/Toyota_Innova_Crysta/Toyota_Innova_Crysta_2.7_GX_AT_8S.htm'
p1188
sS'Toyota Innova Crysta 2.7 ZX AT'
p1189
S'https://www.cardekho.com/overview/Toyota_Innova_Crysta/Toyota_Innova_Crysta_2.7_ZX_AT.htm'
p1190
sS'ICML Extreme Van BSIII AC'
p1191
S'https://www.cardekho.com/overview/ICML_Extreme/ICML_Extreme_Van_BSIII_AC.htm'
p1192
sS'Mahindra Xylo D4 BS III'
p1193
S'https://www.cardekho.com/overview/Mahindra_Xylo/Mahindra_Xylo_D4_BS_III.htm'
p1194
sS'Toyota Innova Crysta 2.8 ZX AT'
p1195
S'https://www.cardekho.com/overview/Toyota_Innova_Crysta/Toyota_Innova_Crysta_2.8_ZX_AT.htm'
p1196
sS'Renault Lodgy 85PS RxE'
p1197
S'https://www.cardekho.com/overview/Renault_Lodgy/Renault_Lodgy_85PS_RxE.htm'
p1198
sS'Renault Lodgy 85PS RxL'
p1199
S'https://www.cardekho.com/overview/Renault_Lodgy/Renault_Lodgy_85PS_RxL.htm'
p1200
sS'Renault Lodgy World Edition 85PS'
p1201
S'https://www.cardekho.com/overview/Renault_Lodgy/Renault_Lodgy_World_Edition_85PS.htm'
p1202
sS'ICML Extreme Ambulance DI Non AC BSIII'
p1203
S'https://www.cardekho.com/overview/ICML_Extreme/ICML_Extreme_Ambulance_DI_Non_AC_BSIII.htm'
p1204
sS'ICML Extreme Ambulance DI AC BSIII'
p1205
S'https://www.cardekho.com/overview/ICML_Extreme/ICML_Extreme_Ambulance_DI_AC_BSIII.htm'
p1206
sS'ICML Extreme Delite CRDFi 7Seater BSIII'
p1207
S'https://www.cardekho.com/overview/ICML_Extreme/ICML_Extreme_VD_CRDFi_7Seater_BSIII.htm'
p1208
sS'Chevrolet Tavera Neo 3 Max 9 Str BSIII'
p1209
S'https://www.cardekho.com/overview/Chevrolet_Tavera/Chevrolet_Tavera_Neo_3_Max_9_Str_BSIII.htm'
p1210
sS'Honda Mobilio V Option i DTEC'
p1211
S'https://www.cardekho.com/overview/Honda_Mobilio/Honda_Mobilio_V_Option_i-DTEC.htm'
p1212
sS'Maruti Ertiga LXI'
p1213
S'https://www.cardekho.com/overview/Maruti_Ertiga/Maruti_Ertiga_LXI.htm'
p1214
sS'Maruti Ertiga SHVS ZDI Plus'
p1215
S'https://www.cardekho.com/overview/Maruti_Ertiga/Maruti_Ertiga_SHVS_ZDI_Plus.htm'
p1216
sS'Datsun GO Plus T'
p1217
S'https://www.cardekho.com/overview/Datsun_GO_Plus/Datsun_GO_Plus_T.htm'
p1218
sS'Maruti Ertiga VXI CNG'
p1219
S'https://www.cardekho.com/overview/Maruti_Ertiga/Maruti_Ertiga_VXI_CNG.htm'
p1220
sS'Mercedes-Benz B-Class B200 CDI Sport'
p1221
S'https://www.cardekho.com/overview/Mercedes-Benz_B_Class/Mercedes-Benz_B_Class_B200_CDI_Sport.htm'
p1222
sS'Datsun GO Plus A'
p1223
S'https://www.cardekho.com/overview/Datsun_GO_Plus/Datsun_GO_Plus_A.htm'
p1224
sS'Datsun GO Plus D'
p1225
S'https://www.cardekho.com/overview/Datsun_GO_Plus/Datsun_GO_Plus_D.htm'
p1226
sS'Maruti Ertiga VXI AT'
p1227
S'https://www.cardekho.com/overview/Maruti_Ertiga/Maruti_Ertiga_VXI_AT.htm'
p1228
sS'Maruti Ertiga ZXI Plus'
p1229
S'https://www.cardekho.com/overview/Maruti_Ertiga/Maruti_Ertiga_ZXI_Plus.htm'
p1230
sS'Chevrolet Tavera Neo 3 9 Str BSIII'
p1231
S'https://www.cardekho.com/overview/Chevrolet_Tavera/Chevrolet_Tavera_Neo_3_9_Str_BSIII.htm'
p1232
sS'Tata Xenon XT EX 4X4'
p1233
S'https://www.cardekho.com/overview/Tata_Xenon_XT/Tata_Xenon_XT_EX_4X4.htm'
p1234
sS'Maruti Ertiga ZXI'
p1235
S'https://www.cardekho.com/overview/Maruti_Ertiga/Maruti_Ertiga_ZXI.htm'
p1236
sS'Tata Xenon XT EX 4X2'
p1237
S'https://www.cardekho.com/overview/Tata_Xenon_XT/Tata_Xenon_XT_EX_4X2.htm'
p1238
sS'Toyota Innova 2.5 G (Diesel) 7 Seater'
p1239
S'https://www.cardekho.com/overview/Toyota_Innova/Toyota_Innova_2.5_G_(Diesel)_7_Seater_BS_IV.htm'
p1240
sS'Maruti Ertiga VXI'
p1241
S'https://www.cardekho.com/overview/Maruti_Ertiga/Maruti_Ertiga_VXI.htm'
p1242
sS'ICML Extreme Winner CRDFi PS AC 9Seater BSIV'
p1243
S'https://www.cardekho.com/overview/ICML_Extreme/ICML_Extreme_LD_CRDFi_PS_AC_9Seater_BSIV.htm'
p1244
sS'Mahindra Xylo H8 ABS with Airbags'
p1245
S'https://www.cardekho.com/overview/Mahindra_Xylo/Mahindra_Xylo_H8_ABS_with_Airbags.htm'
p1246
sS'ICML Extreme Delite CRDFi 7Seater BSIV'
p1247
S'https://www.cardekho.com/overview/ICML_Extreme/ICML_Extreme_VD_CRDFi_7Seater_BSIV.htm'
p1248
sS'Maruti Ertiga SHVS VDI'
p1249
S'https://www.cardekho.com/overview/Maruti_Ertiga/Maruti_Ertiga_SHVS_VDI.htm'
p1250
ssg102
(dp1251
S'Mercedes-Benz E-Class E350 Edition E'
p1252
S'https://www.cardekho.com/overview/Mercedes-Benz_E-Class/Mercedes-Benz_E-Class_E350_Edition_E.htm'
p1253
sS'Porsche 911 Turbo S'
p1254
S'https://www.cardekho.com/overview/Porsche_911/Porsche_911_Turbo_S.htm'
p1255
sS'Jaguar F Type S Coupe'
p1256
S'https://www.cardekho.com/overview/Jaguar_F_Type/Jaguar_F_Type_S_Coupe.htm'
p1257
sS'Rolls Royce Phantom Series II'
p1258
S'https://www.cardekho.com/overview/Rolls-Royce_Phantom/Rolls-Royce_Phantom_Phantom.htm'
p1259
sS'Bentley Continental GT Speed Convertible'
p1260
S'https://www.cardekho.com/overview/Bentley_Continental/Bentley_Continental_GT_Speed_Convertible.htm'
p1261
sS'Mercedes-Benz E-Class E400 Cabriolet'
p1262
S'https://www.cardekho.com/overview/Mercedes-Benz_E-Class/Mercedes-Benz_E-Class_E400_Cabriolet.htm'
p1263
sS'Bugatti Veyron 16.4 Grand Sport'
p1264
S'https://www.cardekho.com/overview/Bugatti_Veyron/Bugatti_Veyron_16.4_Grand_Sport.htm'
p1265
sS'Rolls Royce Phantom Extended Wheelbase'
p1266
S'https://www.cardekho.com/overview/Rolls-Royce_Phantom/Rolls-Royce_Phantom_Extended_Wheelbase.htm'
p1267
sS'Bentley Continental GT V8 S Convertible'
p1268
S'https://www.cardekho.com/overview/Bentley_Continental/Bentley_Continental_GT_V8_S_Convertible.htm'
p1269
sS'Jaguar F-Type Coupe'
p1270
S'https://www.cardekho.com/overview/Jaguar_F_Type/Jaguar_F_Type_Coupe.htm'
p1271
sS'Porsche 911 Turbo Cabriolet'
p1272
S'https://www.cardekho.com/overview/Porsche_911/Porsche_911_Turbo_Cabriolet.htm'
p1273
sS'Porsche 911 Carrera S'
p1274
S'https://www.cardekho.com/overview/Porsche_911/Porsche_911_Carrera_S.htm'
p1275
sS'Porsche 911 Turbo'
p1276
S'https://www.cardekho.com/overview/Porsche_911/Porsche_911_Turbo.htm'
p1277
sS'Mercedes-Benz SLC 43 AMG'
p1278
S'https://www.cardekho.com/overview/Mercedes-Benz_SLC/Mercedes-Benz_SLC_43_AMG.htm'
p1279
sS'Jaguar F Type 3.0 V6 S'
p1280
S'https://www.cardekho.com/overview/Jaguar_F_Type/Jaguar_F_Type_3.0_V6_S.htm'
p1281
sS'Mercedes-Benz E-Class E350 CDI Avantgrade'
p1282
S'https://www.cardekho.com/overview/Mercedes-Benz_E-Class/Mercedes-Benz_E-Class_E350_CDI_Avantgrade.htm'
p1283
sS'Lamborghini Aventador Roadster LP 700 4'
p1284
S'https://www.cardekho.com/overview/Lamborghini_Aventador/Lamborghini_Aventador_Roadster_LP_700_4.htm'
p1285
sS'Porsche 911 Turbo S Cabriolet'
p1286
S'https://www.cardekho.com/overview/Porsche_911/Porsche_911_Turbo_S_Cabriolet.htm'
p1287
sS'Bentley Continental GT V8 Convertible'
p1288
S'https://www.cardekho.com/overview/Bentley_Continental/Bentley_Continental_GT_V8_Convertible.htm'
p1289
sS'Mercedes-Benz E-Class E 63 AMG'
p1290
S'https://www.cardekho.com/overview/Mercedes-Benz_E-Class/Mercedes-Benz_E-Class_E_63_AMG.htm'
p1291
sS'Mercedes-Benz E-Class E 200 CGI'
p1292
S'https://www.cardekho.com/overview/Mercedes-Benz_E-Class/Mercedes-Benz_E-Class_E_200_CGI.htm'
p1293
sS'Rolls-Royce Dawn Convertible'
p1294
S'https://www.cardekho.com/overview/Rolls-Royce_Dawn/Rolls-Royce_Dawn_Convertible.htm'
p1295
sS'Bentley Continental GT V8'
p1296
S'https://www.cardekho.com/overview/Bentley_Continental/Bentley_Continental_GT_V8.htm'
p1297
sS'Mercedes-Benz E-Class E200 Edition E'
p1298
S'https://www.cardekho.com/overview/Mercedes-Benz_E-Class/Mercedes-Benz_E-Class_E200_Edition_E.htm'
p1299
sS'Rolls Royce Phantom Coupe'
p1300
S'https://www.cardekho.com/overview/Rolls-Royce_Phantom/Rolls-Royce_Phantom_Coupe.htm'
p1301
sS'Jaguar F Type R Coupe'
p1302
S'https://www.cardekho.com/overview/Jaguar_F_Type/Jaguar_F_Type_R_Coupe.htm'
p1303
sS'Mercedes-Benz E-Class E250 CDI Avantgarde'
p1304
S'https://www.cardekho.com/overview/Mercedes-Benz_E-Class/Mercedes-Benz_E-Class_E250_CDI_Avantgarde.htm'
p1305
sS'BMW Z4 35i DPT'
p1306
S'https://www.cardekho.com/overview/BMW_Z4/BMW_Z4_35i_DPT.htm'
p1307
sS'Jaguar F Type 5.0 V8 S'
p1308
S'https://www.cardekho.com/overview/Jaguar_F_Type/Jaguar_F_Type_5.0_V8_S.htm'
p1309
sS'Maserati GranCabrio 4.7 V8'
p1310
S'https://www.cardekho.com/overview/Maserati_Gran_Cabrio/Maserati_Gran_Cabrio_4.7_V8.htm'
p1311
sS'Porsche 911 Carrera'
p1312
S'https://www.cardekho.com/overview/Porsche_911/Porsche_911_Carrera.htm'
p1313
sS'Bentley Continental GT V8 S'
p1314
S'https://www.cardekho.com/overview/Bentley_Continental/Bentley_Continental_GT_V8_S.htm'
p1315
sS'Porsche 911 Carrera Cabriolet'
p1316
S'https://www.cardekho.com/overview/Porsche_911/Porsche_911_Carrera_Cabriolet.htm'
p1317
sS'Bentley Continental GTC'
p1318
S'https://www.cardekho.com/overview/Bentley_Continental/Bentley_Continental_GTC.htm'
p1319
sS'Rolls Royce Phantom Drophead Coupe'
p1320
S'https://www.cardekho.com/overview/Rolls-Royce_Phantom/Rolls-Royce_Phantom_Drophead_Coupe.htm'
p1321
sS'BMW Z4 35i'
p1322
S'https://www.cardekho.com/overview/BMW_Z4/BMW_Z4_35i.htm'
p1323
sS'Mini Cooper Convertible S'
p1324
S'https://www.cardekho.com/overview/Mini_Cooper_Convertible/Mini_Cooper_Convertible_S.htm'
p1325
sS'Porsche Boxster GTS'
p1326
S'https://www.cardekho.com/overview/Porsche_Boxster/Porsche_Boxster_GTS.htm'
p1327
sS'Ferrari California T T'
p1328
S'https://www.cardekho.com/overview/Ferrari_California/Ferrari_California_T.htm'
p1329
sS'Bentley Continental GT'
p1330
S'https://www.cardekho.com/overview/Bentley_Continental/Bentley_Continental_GT.htm'
p1331
sS'Lamborghini Aventador LP700 4'
p1332
S'https://www.cardekho.com/overview/Lamborghini_Aventador/Lamborghini_Aventador_LP700_4.htm'
p1333
sS'Bentley Continental GT Speed'
p1334
S'https://www.cardekho.com/overview/Bentley_Continental/Bentley_Continental_GT_Speed.htm'
p1335
sS'Audi A3 cabriolet 40 TFSI Premium Plus'
p1336
S'https://www.cardekho.com/overview/Audi_A3_cabriolet/Audi_A3_cabriolet_40_TFSI_Premium_Plus.htm'
p1337
sS'Porsche Boxster S'
p1338
S'https://www.cardekho.com/overview/Porsche_Boxster/Porsche_Boxster_S.htm'
p1339
sS'Porsche 911 Carrera S Cabriolet'
p1340
S'https://www.cardekho.com/overview/Porsche_911/Porsche_911_Carrera_S_Cabriolet.htm'
p1341
sS'Mercedes-Benz E-Class E250 Edition E'
p1342
S'https://www.cardekho.com/overview/Mercedes-Benz_E-Class/Mercedes-Benz_E-Class_E250_Edition_E.htm'
p1343
ssg134
(dp1344
S'Mahindra Supro VX 5 Str BSIII'
p1345
S'https://www.cardekho.com/overview/Mahindra_Supro/Mahindra_Supro_VX_5_Str_BSIII.htm'
p1346
sS'Mahindra Supro VX 8 Str BSIII'
p1347
S'https://www.cardekho.com/overview/Mahindra_Supro/Mahindra_Supro_VX_8_Str_BSIII.htm'
p1348
sS'Maruti Omni E MPI STD BS IV'
p1349
S'https://www.cardekho.com/overview/Maruti_Omni/Maruti_Omni_E_MPI_STD_BSIV.htm'
p1350
sS'Maruti Eeco 5 Seater Standard'
p1351
S'https://www.cardekho.com/overview/Maruti_Eeco/Maruti_Eeco_5_Seater_Standard.htm'
p1352
sS'Mahindra Supro ZX 5 Str'
p1353
S'https://www.cardekho.com/overview/Mahindra_Supro/Mahindra_Supro_ZX_5_Str.htm'
p1354
sS'Maruti Eeco 5 Seater AC'
p1355
S'https://www.cardekho.com/overview/Maruti_Eeco/Maruti_Eeco_5_Seater_AC.htm'
p1356
sS'Mahindra Supro LX 8 Str BSIII'
p1357
S'https://www.cardekho.com/overview/Mahindra_Supro/Mahindra_Supro_LX_8_Str_BSIII.htm'
p1358
sS'Maruti Omni MPI CARGO'
p1359
S'https://www.cardekho.com/overview/Maruti_Omni/Maruti_Omni_MPI_CARGO_BSIV.htm'
p1360
sS'Mahindra Supro LX 8 Str'
p1361
S'https://www.cardekho.com/overview/Mahindra_Supro/Mahindra_Supro_LX_8_Str.htm'
p1362
sS'Maruti Omni MPI Ambulance'
p1363
S'https://www.cardekho.com/overview/Maruti_Omni/Maruti_Omni_MPI_Ambulance_BSIV.htm'
p1364
sS'Maruti Eeco CNG HTR 5 STR'
p1365
S'https://www.cardekho.com/overview/Maruti_Eeco/Maruti_Eeco_CNG_HTR_5-STR.htm'
p1366
sS'Maruti Eeco CNG 5 Seater AC'
p1367
S'https://www.cardekho.com/overview/Maruti_Eeco/Maruti_Eeco_CNG_5_Seater_AC.htm'
p1368
sS'Mahindra Supro VX 8 Str'
p1369
S'https://www.cardekho.com/overview/Mahindra_Supro/Mahindra_Supro_VX_8_Str.htm'
p1370
sS'Mahindra Supro ZX 5 Str BSIII'
p1371
S'https://www.cardekho.com/overview/Mahindra_Supro/Mahindra_Supro_ZX_5_Str_BSIII.htm'
p1372
sS'Maruti Omni MPI STD'
p1373
S'https://www.cardekho.com/overview/Maruti_Omni/Maruti_Omni_MPI_STD_BSIV.htm'
p1374
sS'Mahindra Supro VX 5 Str'
p1375
S'https://www.cardekho.com/overview/Mahindra_Supro/Mahindra_Supro_VX_5_Str.htm'
p1376
sS'Maruti Eeco 7 Seater Standard'
p1377
S'https://www.cardekho.com/overview/Maruti_Eeco/Maruti_Eeco_7_Seater_Standard.htm'
p1378
sS'Maruti Eeco Flexi Green'
p1379
S'https://www.cardekho.com/overview/Maruti_Eeco/Maruti_Eeco_Flexi_Green.htm'
p1380
sS'Maruti Eeco Ambulance Petrol AC Plus HTR'
p1381
S'https://www.cardekho.com/overview/Maruti_Eeco/Maruti_Eeco_Ambulance_Petrol_AC_Plus_HTR.htm'
p1382
ssg142
(dp1383
S'BMW i8 Hybrid'
p1384
S'https://www.cardekho.com/overview/BMW_i8/BMW_i8_Hybrid.htm'
p1385
sS'Volvo XC90 D5 Momentum'
p1386
S'https://www.cardekho.com/overview/Volvo_XC_90/Volvo_XC_90_D5_Momentum.htm'
p1387
sS'Volvo XC90 T8 Excellence'
p1388
S'https://www.cardekho.com/overview/Volvo_XC_90/Volvo_XC_90_T8_Excellence.htm'
p1389
sS'Volvo XC90 D5 Inscription'
p1390
S'https://www.cardekho.com/overview/Volvo_XC_90/Volvo_XC_90_D5_Inscription.htm'
p1391
sS'Toyota Camry Hybrid'
p1392
S'https://www.cardekho.com/overview/Toyota_Camry/Toyota_Camry_Hybrid.htm'
p1393
sS'Toyota Camry 2.5 G'
p1394
S'https://www.cardekho.com/overview/Toyota_Camry/Toyota_Camry_2.5_G.htm'
p1395
sS'Toyota Prius Z6'
p1396
S'https://www.cardekho.com/overview/Toyota_Prius/Toyota_Prius_Z6.htm'
p1397
sS'Toyota Prius Z5'
p1398
S'https://www.cardekho.com/overview/Toyota_Prius/Toyota_Prius_Z5.htm'
p1399
ssg152
(dp1400
S'Maserati GranTurismo 4.2 V8'
p1401
S'https://www.cardekho.com/overview/Maserati_Gran_Turismo/Maserati_Gran_Turismo_4.2_V8.htm'
p1402
sS'Lamborghini Aventador Roadster LP 700 4'
p1403
S'https://www.cardekho.com/overview/Lamborghini_Aventador/Lamborghini_Aventador_Roadster_LP_700_4.htm'
p1404
sS'Audi TT 45 TFSI'
p1405
S'https://www.cardekho.com/overview/Audi_TT/Audi_TT_45_TFSI.htm'
p1406
sS'Jaguar F Type S Coupe'
p1407
S'https://www.cardekho.com/overview/Jaguar_F_Type/Jaguar_F_Type_S_Coupe.htm'
p1408
sS'Mercedes-Benz AMG GT S'
p1409
S'https://www.cardekho.com/overview/Mercedes-Benz_AMG_GT/Mercedes-Benz_AMG_GT_S.htm'
p1410
sS'Porsche Cayman GT4'
p1411
S'https://www.cardekho.com/overview/Porsche_Cayman/Porsche_Cayman_GT4.htm'
p1412
sS'BMW M Series M6 Gran Coupe'
p1413
S'https://www.cardekho.com/overview/BMW_M_Series/BMW_M_Series_M6_Gran_Coupe.htm'
p1414
sS'BMW M Series X6 M'
p1415
S'https://www.cardekho.com/overview/BMW_M_Series/BMW_M_Series_X6_M.htm'
p1416
sS'Rolls Royce Wraith Coupe'
p1417
S'https://www.cardekho.com/overview/Rolls-Royce_Wraith/Rolls-Royce_Wraith_Coupe.htm'
p1418
sS'Ferrari 488 GTB V8'
p1419
S'https://www.cardekho.com/overview/Ferrari_488_GTB/Ferrari_488_GTB_V8.htm'
p1420
sS'Rolls Royce Phantom Series II'
p1421
S'https://www.cardekho.com/overview/Rolls-Royce_Phantom/Rolls-Royce_Phantom_Phantom.htm'
p1422
sS'Porsche 911 Turbo S'
p1423
S'https://www.cardekho.com/overview/Porsche_911/Porsche_911_Turbo_S.htm'
p1424
sS'Bentley Continental GT Speed Convertible'
p1425
S'https://www.cardekho.com/overview/Bentley_Continental/Bentley_Continental_GT_Speed_Convertible.htm'
p1426
sS'Mercedes-Benz S-Class Maybach S500'
p1427
S'https://www.cardekho.com/overview/Mercedes-Benz_S-Class/Mercedes-Benz_S-Class_Maybach_S500.htm'
p1428
sS'Rolls Royce Phantom Extended Wheelbase'
p1429
S'https://www.cardekho.com/overview/Rolls-Royce_Phantom/Rolls-Royce_Phantom_Extended_Wheelbase.htm'
p1430
sS'Bentley Continental GT V8 S Convertible'
p1431
S'https://www.cardekho.com/overview/Bentley_Continental/Bentley_Continental_GT_V8_S_Convertible.htm'
p1432
sS'Jaguar F-Type Coupe'
p1433
S'https://www.cardekho.com/overview/Jaguar_F_Type/Jaguar_F_Type_Coupe.htm'
p1434
sS'BMW M Series M5 Sedan'
p1435
S'https://www.cardekho.com/overview/BMW_M_Series/BMW_M_Series_M5_Sedan.htm'
p1436
sS'Land Rover Range Rover Evoque Pure'
p1437
S'https://www.cardekho.com/overview/Land_Rover_Range_Rover_Evoque/Land_Rover_Range_Rover_Evoque_Pure.htm'
p1438
sS'Porsche 911 Carrera S'
p1439
S'https://www.cardekho.com/overview/Porsche_911/Porsche_911_Carrera_S.htm'
p1440
sS'Bentley Continental GT V8'
p1441
S'https://www.cardekho.com/overview/Bentley_Continental/Bentley_Continental_GT_V8.htm'
p1442
sS'Mercedes-Benz GLE 400 4MATIC'
p1443
S'https://www.cardekho.com/overview/Mercedes-Benz_GLE_Class/Mercedes-Benz_GLE_Class_400_4MATIC.htm'
p1444
sS'Mercedes-Benz S-Class S 63 AMG'
p1445
S'https://www.cardekho.com/overview/Mercedes-Benz_S-Class/Mercedes-Benz_S-Class_S_63_AMG.htm'
p1446
sS'Jaguar F Type 3.0 V6 S'
p1447
S'https://www.cardekho.com/overview/Jaguar_F_Type/Jaguar_F_Type_3.0_V6_S.htm'
p1448
sS'Porsche 911 Turbo'
p1449
S'https://www.cardekho.com/overview/Porsche_911/Porsche_911_Turbo.htm'
p1450
sS'Land Rover Range Rover Evoque Coupe HSE Dynamic'
p1451
S'https://www.cardekho.com/overview/Land_Rover_Range_Rover_Evoque/Land_Rover_Range_Rover_Evoque_Coupe_HSE_Dynamic.htm'
p1452
sS'Aston Martin Vantage V12 6.0L'
p1453
S'https://www.cardekho.com/overview/Aston_Martin_Vantage/Aston_Martin_Vantage_V12_6.0L.htm'
p1454
sS'Mercedes-Benz GLE 450 AMG Coupe'
p1455
S'https://www.cardekho.com/overview/Mercedes-Benz_GLE_Class/Mercedes-Benz_GLE_Class_Coupe.htm'
p1456
sS'Mercedes-Benz GLE 250d'
p1457
S'https://www.cardekho.com/overview/Mercedes-Benz_GLE_Class/Mercedes-Benz_GLE_Class_250d.htm'
p1458
sS'Aston Martin Vantage V8 Roadster'
p1459
S'https://www.cardekho.com/overview/Aston_Martin_Vantage/Aston_Martin_Vantage_V8_Roadster.htm'
p1460
sS'Mercedes-Benz S-Class Maybach S600'
p1461
S'https://www.cardekho.com/overview/Mercedes-Benz_S-Class/Mercedes-Benz_S-Class_Maybach_S600.htm'
p1462
sS'Mercedes-Benz GLE 350d'
p1463
S'https://www.cardekho.com/overview/Mercedes-Benz_GLE_Class/Mercedes-Benz_GLE_Class_350d.htm'
p1464
sS'Ferrari FF GT'
p1465
S'https://www.cardekho.com/overview/Ferrari_FF/Ferrari_FF_GT.htm'
p1466
sS'Mercedes-Benz S-Class S 350 CDI'
p1467
S'https://www.cardekho.com/overview/Mercedes-Benz_S-Class/Mercedes-Benz_S-Class_S_350_CDI.htm'
p1468
sS'Lamborghini Huracan LP 610 4 Spyder'
p1469
S'https://www.cardekho.com/overview/Lamborghini_Huracan/Lamborghini_Huracan_LP_610_4_Spyder.htm'
p1470
sS'Rolls Royce Phantom Drophead Coupe'
p1471
S'https://www.cardekho.com/overview/Rolls-Royce_Phantom/Rolls-Royce_Phantom_Drophead_Coupe.htm'
p1472
sS'Bentley Continental GTC'
p1473
S'https://www.cardekho.com/overview/Bentley_Continental/Bentley_Continental_GTC.htm'
p1474
sS'Audi R8 V10 Plus'
p1475
S'https://www.cardekho.com/overview/Audi_R8/Audi_R8_V10_Plus.htm'
p1476
sS'Lamborghini Huracan LP 580 2'
p1477
S'https://www.cardekho.com/overview/Lamborghini_Huracan/Lamborghini_Huracan_LP_580_2.htm'
p1478
sS'Ferrari F12berlinetta V12'
p1479
S'https://www.cardekho.com/overview/Ferrari_F12berlinetta/Ferrari_F12berlinetta_V12.htm'
p1480
sS'Rolls Royce Phantom Coupe'
p1481
S'https://www.cardekho.com/overview/Rolls-Royce_Phantom/Rolls-Royce_Phantom_Coupe.htm'
p1482
sS'Porsche Cayman GTS'
p1483
S'https://www.cardekho.com/overview/Porsche_Cayman/Porsche_Cayman_GTS.htm'
p1484
sS'Ferrari 458 Speciale V8'
p1485
S'https://www.cardekho.com/overview/Ferrari_458_Speciale/Ferrari_458_Speciale_V8.htm'
p1486
sS'Jaguar F Type R Coupe'
p1487
S'https://www.cardekho.com/overview/Jaguar_F_Type/Jaguar_F_Type_R_Coupe.htm'
p1488
sS'Jaguar F Type 5.0 V8 S'
p1489
S'https://www.cardekho.com/overview/Jaguar_F_Type/Jaguar_F_Type_5.0_V8_S.htm'
p1490
sS'Mercedes-Benz S-Class S Guard'
p1491
S'https://www.cardekho.com/overview/Mercedes-Benz_S-Class/Mercedes-Benz_S-Class_S_Guard.htm'
p1492
sS'Lamborghini Huracan AVIO'
p1493
S'https://www.cardekho.com/overview/Lamborghini_Huracan/Lamborghini_Huracan_AVIO.htm'
p1494
sS'Mercedes-Benz S-Class S 500 Coupe'
p1495
S'https://www.cardekho.com/overview/Mercedes-Benz_S-Class/Mercedes-Benz_S-Class_S_500_Coupe.htm'
p1496
sS'DC Avanti 2.0 L'
p1497
S'https://www.cardekho.com/overview/DC_Avanti/DC_Avanti_2.0_L.htm'
p1498
sS'Bentley Continental GT V8 Convertible'
p1499
S'https://www.cardekho.com/overview/Bentley_Continental/Bentley_Continental_GT_V8_Convertible.htm'
p1500
sS'Lamborghini Aventador LP700 4'
p1501
S'https://www.cardekho.com/overview/Lamborghini_Aventador/Lamborghini_Aventador_LP700_4.htm'
p1502
sS'Bentley Continental GT Speed'
p1503
S'https://www.cardekho.com/overview/Bentley_Continental/Bentley_Continental_GT_Speed.htm'
p1504
sS'Aston Martin DB11 V12'
p1505
S'https://www.cardekho.com/overview/Aston_Martin_DB11/Aston_Martin_DB11_V12.htm'
p1506
sS'Land Rover Range Rover Evoque HSE Dynamic'
p1507
S'https://www.cardekho.com/overview/Land_Rover_Range_Rover_Evoque/Land_Rover_Range_Rover_Evoque_HSE_Dynamic.htm'
p1508
sS'Porsche 911 Carrera'
p1509
S'https://www.cardekho.com/overview/Porsche_911/Porsche_911_Carrera.htm'
p1510
sS'Bentley Continental GT V8 S'
p1511
S'https://www.cardekho.com/overview/Bentley_Continental/Bentley_Continental_GT_V8_S.htm'
p1512
sS'Porsche 911 Carrera Cabriolet'
p1513
S'https://www.cardekho.com/overview/Porsche_911/Porsche_911_Carrera_Cabriolet.htm'
p1514
sS'Mercedes-Benz S-Class S400'
p1515
S'https://www.cardekho.com/overview/Mercedes-Benz_S-Class/Mercedes-Benz_S-Class_S400.htm'
p1516
sS'Land Rover Range Rover Evoque HSE'
p1517
S'https://www.cardekho.com/overview/Land_Rover_Range_Rover_Evoque/Land_Rover_Range_Rover_Evoque_HSE.htm'
p1518
sS'Aston Martin Vantage V8 4.7L'
p1519
S'https://www.cardekho.com/overview/Aston_Martin_Vantage/Aston_Martin_Vantage_V8_4.7L.htm'
p1520
sS'Porsche Cayman S Tiptronic'
p1521
S'https://www.cardekho.com/overview/Porsche_Cayman/Porsche_Cayman_S_Tiptronic.htm'
p1522
sS'Land Rover Range Rover Evoque SE'
p1523
S'https://www.cardekho.com/overview/Land_Rover_Range_Rover_Evoque/Land_Rover_Range_Rover_Evoque_SE.htm'
p1524
sS'Mercedes-Benz S-Class Maybach S600 Guard'
p1525
S'https://www.cardekho.com/overview/Mercedes-Benz_S-Class/Mercedes-Benz_S-Class_Maybach_S600_Guard.htm'
p1526
sS'Lamborghini Huracan LP 610 4'
p1527
S'https://www.cardekho.com/overview/Lamborghini_Huracan/Lamborghini_Huracan_LP_610_4.htm'
p1528
sS'BMW M Series M4 Coupe'
p1529
S'https://www.cardekho.com/overview/BMW_M_Series/BMW_M_Series_M4_Coupe.htm'
p1530
sS'BMW M Series X5 M'
p1531
S'https://www.cardekho.com/overview/BMW_M_Series/BMW_M_Series_X5_M.htm'
p1532
sS'Bentley Continental GT'
p1533
S'https://www.cardekho.com/overview/Bentley_Continental/Bentley_Continental_GT.htm'
p1534
sS'Mercedes-Benz S-Class S 63 AMG Coupe'
p1535
S'https://www.cardekho.com/overview/Mercedes-Benz_S-Class/Mercedes-Benz_S-Class_S_63_AMG_Coupe.htm'
p1536
sS'BMW M Series M3 Sedan'
p1537
S'https://www.cardekho.com/overview/BMW_M_Series/BMW_M_Series_M3_Sedan.htm'
p1538
sS'Aston Martin Vantage V8 Sport'
p1539
S'https://www.cardekho.com/overview/Aston_Martin_Vantage/Aston_Martin_Vantage_V8_Sport.htm'
p1540
sS'Aston Martin Vanquish V12'
p1541
S'https://www.cardekho.com/overview/Aston_Martin_Vanquish/Aston_Martin_Vanquish_V12.htm'
p1542
sS'Porsche 911 Turbo S Cabriolet'
p1543
S'https://www.cardekho.com/overview/Porsche_911/Porsche_911_Turbo_S_Cabriolet.htm'
p1544
sS'Porsche 911 Carrera S Cabriolet'
p1545
S'https://www.cardekho.com/overview/Porsche_911/Porsche_911_Carrera_S_Cabriolet.htm'
p1546
sS'Porsche 911 Turbo Cabriolet'
p1547
S'https://www.cardekho.com/overview/Porsche_911/Porsche_911_Turbo_Cabriolet.htm'
p1548
ssg202
(dp1549
S'Mahindra NuvoSport N6 AMT'
p1550
S'https://www.cardekho.com/overview/Mahindra_NuvoSport/Mahindra_NuvoSport_N6_AMT.htm'
p1551
sS'Mercedes-Benz GL-Class 350 CDI Blue Efficiency'
p1552
S'https://www.cardekho.com/overview/Mercedes-Benz_GL-Class/Mercedes-Benz_GL-Class_350_CDI_Blue_Efficiency.htm'
p1553
sS'BMW M Series X6 M'
p1554
S'https://www.cardekho.com/overview/BMW_M_Series/BMW_M_Series_X6_M.htm'
p1555
sS'Mahindra TUV 300 T4 Plus'
p1556
S'https://www.cardekho.com/overview/Mahindra_TUV_300/Mahindra_TUV_300_T4_Plus.htm'
p1557
sS'Mahindra Thar CRDe'
p1558
S'https://www.cardekho.com/overview/Mahindra_Thar/Mahindra_Thar_CRDe.htm'
p1559
sS'Mahindra XUV500 AT W10 FWD'
p1560
S'https://www.cardekho.com/overview/Mahindra_XUV500/Mahindra_XUV500_AT_W10_FWD.htm'
p1561
sS'Land Rover Range Rover Evoque Pure'
p1562
S'https://www.cardekho.com/overview/Land_Rover_Range_Rover_Evoque/Land_Rover_Range_Rover_Evoque_Pure.htm'
p1563
sS'Chevrolet Tavera Neo 3 LS 7 Seats BSIII'
p1564
S'https://www.cardekho.com/overview/Chevrolet_Tavera/Chevrolet_Tavera_Neo_3_LS_7_Seats_BSIII.htm'
p1565
sS'BMW X6 xDrive 40d M Sport'
p1566
S'https://www.cardekho.com/overview/BMW_X6/BMW_X6_xDrive_40d_M_Sport.htm'
p1567
sS'Mahindra TUV 300 T8 AMT'
p1568
S'https://www.cardekho.com/overview/Mahindra_TUV_300/Mahindra_TUV_300_T8_AMT.htm'
p1569
sS'Renault Duster 110PS Diesel RxZ AMT'
p1570
S'https://www.cardekho.com/overview/Renault_Duster/Renault_Duster_110PS_Diesel_RxZ_AMT.htm'
p1571
sS'Land Rover Range Rover Sport S'
p1572
S'https://www.cardekho.com/overview/Land_Rover_Range_Rover_Sport/Land_Rover_Range_Rover_Sport_S.htm'
p1573
sS'Volvo XC60 D4 Momentum'
p1574
S'https://www.cardekho.com/overview/Volvo_XC60/Volvo_XC60_D4_Momentum.htm'
p1575
sS'BMW X1 xDrive 20d xLine'
p1576
S'https://www.cardekho.com/overview/BMW_X1/BMW_X1_xDrive_20d_xLine.htm'
p1577
sS'Hyundai Creta 1.6 VTVT Anniversary Edition'
p1578
S'https://www.cardekho.com/overview/Hyundai_Creta/Hyundai_Creta_1.6_VTVT_Anniversary_Edition.htm'
p1579
sS'Mahindra KUV100 mFALCON G80 K4 Plus 5str'
p1580
S'https://www.cardekho.com/overview/Mahindra_KUV_100/Mahindra_KUV_100_mFALCON_G80_K4_Plus_5str.htm'
p1581
sS'Toyota Land Cruiser VX'
p1582
S'https://www.cardekho.com/overview/Toyota_Land_Cruiser/Toyota_Land_Cruiser_VX.htm'
p1583
sS'Maruti Gypsy King Hard Top MPI'
p1584
S'https://www.cardekho.com/overview/Maruti_Gypsy/Maruti_Gypsy_King_Hard_Top_MPI_BSIV.htm'
p1585
sS'Volvo XC90 D5 Inscription'
p1586
S'https://www.cardekho.com/overview/Volvo_XC_90/Volvo_XC_90_D5_Inscription.htm'
p1587
sS'Maruti Vitara Brezza VDi Option'
p1588
S'https://www.cardekho.com/overview/Maruti_Vitara_Brezza/Maruti_Vitara_Brezza_VDi_Option.htm'
p1589
sS'Mahindra KUV100 mFALCON D75 K8 5str'
p1590
S'https://www.cardekho.com/overview/Mahindra_KUV_100/Mahindra_KUV_100_mFALCON_D75_K8_5str.htm'
p1591
sS'Ford Ecosport 1.5 TDCi Trend Plus'
p1592
S'https://www.cardekho.com/overview/Ford_Ecosport/Ford_Ecosport_1.5_TDCi_Trend_Plus.htm'
p1593
sS'Porsche Macan Turbo'
p1594
S'https://www.cardekho.com/overview/Porsche_Macan/Porsche_Macan_Turbo.htm'
p1595
sS'Maruti S-Cross DDiS 200 Delta'
p1596
S'https://www.cardekho.com/overview/Maruti_SX4_S_Cross/Maruti_SX4_S_Cross_DDiS_200_Delta.htm'
p1597
sS'Porsche Cayenne S Diesel'
p1598
S'https://www.cardekho.com/overview/Porsche_Cayenne/Porsche_Cayenne_S_Diesel.htm'
p1599
sS'Force Gurkha Soft Top BS3 2WD'
p1600
S'https://www.cardekho.com/overview/Force_Gurkha/Force_Gurkha_Soft_Top_BS3_2WD.htm'
p1601
sS'Mahindra XUV500 AT W6 2WD'
p1602
S'https://www.cardekho.com/overview/Mahindra_XUV500/Mahindra_XUV500_AT_W6_2WD.htm'
p1603
sS'Mahindra Scorpio 1.99 S6 Plus'
p1604
S'https://www.cardekho.com/overview/Mahindra_Scorpio/Mahindra_Scorpio_1.99_S6_Plus.htm'
p1605
sS'Mahindra XUV500 AT W6 1.99 mHawk'
p1606
S'https://www.cardekho.com/overview/Mahindra_XUV500/Mahindra_XUV500_AT_W6_1.99_mHawk.htm'
p1607
sS'Mahindra NuvoSport N8 AMT'
p1608
S'https://www.cardekho.com/overview/Mahindra_NuvoSport/Mahindra_NuvoSport_N8_AMT.htm'
p1609
sS'Mahindra XUV500 AT W10 AWD'
p1610
S'https://www.cardekho.com/overview/Mahindra_XUV500/Mahindra_XUV500_AT_W10_AWD.htm'
p1611
sS'BMW X5 xDrive 30d Expedition'
p1612
S'https://www.cardekho.com/overview/BMW_X5/BMW_X5_xDrive_30d_Expedition.htm'
p1613
sS'Land Rover Discovery Sport TD4 S'
p1614
S'https://www.cardekho.com/overview/Land_Rover_Discovery_Sport/Land_Rover_Discovery_Sport_TD4_S.htm'
p1615
sS'Mahindra XUV500 AT W8 1.99 mHawk'
p1616
S'https://www.cardekho.com/overview/Mahindra_XUV500/Mahindra_XUV500_AT_W8_1.99_mHawk.htm'
p1617
sS'Honda BRV i-VTEC V CVT'
p1618
S'https://www.cardekho.com/overview/Honda_BR-V/Honda_BR-V_i-VTEC_V_CVT.htm'
p1619
sS'Mahindra TUV 300 mHAWK100 T8 AMT'
p1620
S'https://www.cardekho.com/overview/Mahindra_TUV_300/Mahindra_TUV_300_mHAWK100_T8_AMT.htm'
p1621
sS'Premier Rio CRDi4 DX'
p1622
S'https://www.cardekho.com/overview/Premier_Rio/Premier_Rio_CRDi4_DX.htm'
p1623
sS'Hyundai Creta 1.4 CRDi S Plus'
p1624
S'https://www.cardekho.com/overview/Hyundai_Creta/Hyundai_Creta_1.4_CRDi_S_Plus.htm'
p1625
sS'Ford Ecosport 1.5 Ti VCT MT Titanium'
p1626
S'https://www.cardekho.com/overview/Ford_Ecosport/Ford_Ecosport_1.5_Ti_VCT_MT_Titanium.htm'
p1627
sS'Mahindra Scorpio Getaway'
p1628
S'https://www.cardekho.com/overview/Mahindra_Scorpio/Mahindra_Scorpio_Getaway.htm'
p1629
sS'Toyota Fortuner 4x4 MT'
p1630
S'https://www.cardekho.com/overview/Toyota_Fortuner/Toyota_Fortuner_4x4_MT.htm'
p1631
sS'BMW X5 xDrive 30d Design Pure Experience 7 Seater'
p1632
S'https://www.cardekho.com/overview/BMW_X5/BMW_X5_xDrive_30d_Design_Pure_Experience_7_Seater.htm'
p1633
sS'Porsche Cayenne S Hybrid'
p1634
S'https://www.cardekho.com/overview/Porsche_Cayenne/Porsche_Cayenne_S_Hybrid.htm'
p1635
sS'Tata Safari DICOR 2.2 EX 4x2'
p1636
S'https://www.cardekho.com/overview/Tata_New_Safari/Tata_New_Safari_DICOR_2.2_EX_4x2_BS_IV.htm'
p1637
sS'Hyundai Creta 1.4 CRDi L'
p1638
S'https://www.cardekho.com/overview/Hyundai_Creta/Hyundai_Creta_1.4_CRDi_Base.htm'
p1639
sS'Mahindra Bolero Plus Non AC BSIV PS'
p1640
S'https://www.cardekho.com/overview/Mahindra_Bolero/Mahindra_Bolero_Plus_Non_AC_BSIV_PS.htm'
p1641
sS'Renault Duster 85PS Diesel STD'
p1642
S'https://www.cardekho.com/overview/Renault_Duster/Renault_Duster_85PS_Diesel_STD.htm'
p1643
sS'Audi Q3 35 TDI Quattro Premium'
p1644
S'https://www.cardekho.com/overview/Audi_Q3/Audi_Q3_35_TDI_Quattro_Premium.htm'
p1645
sS'Mahindra Bolero Special Edition'
p1646
S'https://www.cardekho.com/overview/Mahindra_Bolero/Mahindra_Bolero_Special_Edition.htm'
p1647
sS'Hyundai Creta 1.6 VTVT SX Plus'
p1648
S'https://www.cardekho.com/overview/Hyundai_Creta/Hyundai_Creta_1.6_Gamma_SX_Plus.htm'
p1649
sS'Land Rover Discovery Sport TD4 HSE 7S'
p1650
S'https://www.cardekho.com/overview/Land_Rover_Discovery_Sport/Land_Rover_Discovery_Sport_TD4_HSE_7S.htm'
p1651
sS'Mahindra Scorpio Intelli Hybrid S6 Plus'
p1652
S'https://www.cardekho.com/overview/Mahindra_Scorpio/Mahindra_Scorpio_Intelli_Hybrid_S6_Plus.htm'
p1653
sS'Hyundai Creta 1.6 VTVT AT SX Plus'
p1654
S'https://www.cardekho.com/overview/Hyundai_Creta/Hyundai_Creta_1.6_VTVT_AT_SX_Plus.htm'
p1655
sS'Ford Endeavour 3.2 Titanium AT 4X4'
p1656
S'https://www.cardekho.com/overview/Ford_Endeavour/Ford_Endeavour_3.2_Titanium_AT_4X4.htm'
p1657
sS'Mahindra Quanto C8'
p1658
S'https://www.cardekho.com/overview/Mahindra_Quanto/Mahindra_Quanto_C8.htm'
p1659
sS'Mahindra Quanto C4'
p1660
S'https://www.cardekho.com/overview/Mahindra_Quanto/Mahindra_Quanto_C4.htm'
p1661
sS'Skoda Yeti Style 4X2'
p1662
S'https://www.cardekho.com/overview/Skoda_Yeti/Skoda_Yeti_Style_4X2.htm'
p1663
sS'Mahindra Quanto C6'
p1664
S'https://www.cardekho.com/overview/Mahindra_Quanto/Mahindra_Quanto_C6.htm'
p1665
sS'Skoda Yeti Style 4X4'
p1666
S'https://www.cardekho.com/overview/Skoda_Yeti/Skoda_Yeti_Style_4X4.htm'
p1667
sS'Mahindra Quanto C2'
p1668
S'https://www.cardekho.com/overview/Mahindra_Quanto/Mahindra_Quanto_C2.htm'
p1669
sS'Land Rover Range Rover LWB 4.4 SDV8 Autobiography Black Edition'
p1670
S'https://www.cardekho.com/overview/Land_Rover_Range_Rover/Land_Rover_Range_Rover_LWB_4.4_SDV8_Autobiography_Black_Edition.htm'
p1671
sS'Maruti Gypsy King Hard Top Ambulance'
p1672
S'https://www.cardekho.com/overview/Maruti_Gypsy/Maruti_Gypsy_King_Hard_Top_Ambulance_BSIV.htm'
p1673
sS'BMW X1 xDrive 20d M Sport'
p1674
S'https://www.cardekho.com/overview/BMW_X1/BMW_X1_xDrive_20d_M_Sport.htm'
p1675
sS'Hyundai Santa Fe 4WD AT'
p1676
S'https://www.cardekho.com/overview/Hyundai_Santa_Fe/Hyundai_Santa_Fe_4WD_AT.htm'
p1677
sS'Chevrolet Tavera Neo 3 LS 10 Seats BSIII'
p1678
S'https://www.cardekho.com/overview/Chevrolet_Tavera/Chevrolet_Tavera_Neo_3_LS_10_Seats_BSIII.htm'
p1679
sS'Mahindra Bolero mHAWK D70 SLE'
p1680
S'https://www.cardekho.com/overview/Mahindra_Bolero/Mahindra_Bolero_mHAWK_D70_SLE.htm'
p1681
sS'Force One SUV SX ABS 6 Seating'
p1682
S'https://www.cardekho.com/overview/Force_One/Force_One_SX_ABS_6_Seating.htm'
p1683
sS'Tata Sumo Gold EX BSIII'
p1684
S'https://www.cardekho.com/overview/Tata_Sumo/Tata_Sumo_Gold_EX_BSIII.htm'
p1685
sS'Chevrolet Trailblazer LTZ 4X2 AT'
p1686
S'https://www.cardekho.com/overview/Chevrolet_Trailblazer/Chevrolet_Trailblazer_LTZ_4X2_AT.htm'
p1687
sS'Mahindra Bolero mHAWK D70 SLX'
p1688
S'https://www.cardekho.com/overview/Mahindra_Bolero/Mahindra_Bolero_mHAWK_D70_SLX.htm'
p1689
sS'Mahindra XUV500 W8 1.99 mHawk'
p1690
S'https://www.cardekho.com/overview/Mahindra_XUV500/Mahindra_XUV500_W8_1.99_mHawk.htm'
p1691
sS'Renault Duster 110PS Diesel RxL AMT'
p1692
S'https://www.cardekho.com/overview/Renault_Duster/Renault_Duster_110PS_Diesel_RxL_AMT.htm'
p1693
sS'Force One SUV LX 4x4'
p1694
S'https://www.cardekho.com/overview/Force_One/Force_One_4x4.htm'
p1695
sS'Mahindra Scorpio 1.99 S4'
p1696
S'https://www.cardekho.com/overview/Mahindra_Scorpio/Mahindra_Scorpio_1.99_S4.htm'
p1697
sS'Mahindra Scorpio 1.99 S8'
p1698
S'https://www.cardekho.com/overview/Mahindra_Scorpio/Mahindra_Scorpio_1.99_S8.htm'
p1699
sS'Land Rover Range Rover Sport Autobiography'
p1700
S'https://www.cardekho.com/overview/Land_Rover_Range_Rover_Sport/Land_Rover_Range_Rover_Sport_Autobiography.htm'
p1701
sS'Audi Q5 30 TDI quattro Technology'
p1702
S'https://www.cardekho.com/overview/Audi_Q5/Audi_Q5_30_TDI_quattro_Technology.htm'
p1703
sS'Mercedes-Benz GL-Class 63 AMG'
p1704
S'https://www.cardekho.com/overview/Mercedes-Benz_GL-Class/Mercedes-Benz_GL-Class_63_AMG.htm'
p1705
sS'Conquest Evade SUV'
p1706
S'https://www.cardekho.com/overview/Conquest_Evade/Conquest_Evade_SUV.htm'
p1707
sS'Mahindra KUV100 mFALCON D75 K6 Plus'
p1708
S'https://www.cardekho.com/overview/Mahindra_KUV_100/Mahindra_KUV_100_mFALCON_D75_K6_Plus.htm'
p1709
sS'Volvo XC90 T8 Excellence'
p1710
S'https://www.cardekho.com/overview/Volvo_XC_90/Volvo_XC_90_T8_Excellence.htm'
p1711
sS'Mahindra Bolero DI NON AC BS III White'
p1712
S'https://www.cardekho.com/overview/Mahindra_Bolero/Mahindra_Bolero_DI_NON_AC_BS_III_White.htm'
p1713
sS'Hyundai Creta 1.6 CRDi AT S Plus'
p1714
S'https://www.cardekho.com/overview/Hyundai_Creta/Hyundai_Creta_1.6_CRDi_AT_S_Plus.htm'
p1715
sS'Mahindra KUV100 mFALCON D75 K6 5str'
p1716
S'https://www.cardekho.com/overview/Mahindra_KUV_100/Mahindra_KUV_100_mFALCON_D75_K6_5str.htm'
p1717
sS'Renault Duster 110PS Diesel RxZ AWD'
p1718
S'https://www.cardekho.com/overview/Renault_Duster/Renault_Duster_110PS_Diesel_RxZ_AWD.htm'
p1719
sS'Volvo XC90 D5 Momentum'
p1720
S'https://www.cardekho.com/overview/Volvo_XC_90/Volvo_XC_90_D5_Momentum.htm'
p1721
sS'Tata Safari DICOR 2.2 LX 4x2'
p1722
S'https://www.cardekho.com/overview/Tata_New_Safari/Tata_New_Safari_DICOR_2.2_LX_4x2_BS_IV.htm'
p1723
sS'Mahindra XUV500 W6'
p1724
S'https://www.cardekho.com/overview/Mahindra_XUV500/Mahindra_XUV500_W6_2WD.htm'
p1725
sS'Mahindra XUV500 W4'
p1726
S'https://www.cardekho.com/overview/Mahindra_XUV500/Mahindra_XUV500_W4.htm'
p1727
sS'Mahindra NuvoSport N4 Plus'
p1728
S'https://www.cardekho.com/overview/Mahindra_NuvoSport/Mahindra_NuvoSport_N4_Plus.htm'
p1729
sS'Nissan Terrano XL'
p1730
S'https://www.cardekho.com/overview/Nissan_Terrano/Nissan_Terrano_XL.htm'
p1731
sS'Ford Endeavour 3.2 Trend AT 4X4'
p1732
S'https://www.cardekho.com/overview/Ford_Endeavour/Ford_Endeavour_3.2_Trend_AT_4X4.htm'
p1733
sS'BMW M Series X5 M'
p1734
S'https://www.cardekho.com/overview/BMW_M_Series/BMW_M_Series_X5_M.htm'
p1735
sS'Land Rover Discovery Sport SD4 HSE Luxury 7S'
p1736
S'https://www.cardekho.com/overview/Land_Rover_Discovery_Sport/Land_Rover_Discovery_Sport_SD4_HSE_Luxury_7S.htm'
p1737
sS'Mahindra Scorpio S10 AT 2WD'
p1738
S'https://www.cardekho.com/overview/Mahindra_Scorpio/Mahindra_Scorpio_S10_AT_2WD.htm'
p1739
sS'Honda BRV i-VTEC VX MT'
p1740
S'https://www.cardekho.com/overview/Honda_BR-V/Honda_BR-V_i-VTEC_VX_MT.htm'
p1741
sS'Ford Ecosport 1.0 Ecoboost Titanium Plus BE'
p1742
S'https://www.cardekho.com/overview/Ford_Ecosport/Ford_Ecosport_1.0_Ecoboost_Titanium_Plus_BE.htm'
p1743
sS'BMW M Series M6 Gran Coupe'
p1744
S'https://www.cardekho.com/overview/BMW_M_Series/BMW_M_Series_M6_Gran_Coupe.htm'
p1745
sS'Land Rover Range Rover LWB 5.0 V8 Autobiography Black Edition'
p1746
S'https://www.cardekho.com/overview/Land_Rover_Range_Rover/Land_Rover_Range_Rover_LWB_5.0_V8_Autobiography_Black_Edition.htm'
p1747
sS'Maruti S-Cross DDiS 320 Delta'
p1748
S'https://www.cardekho.com/overview/Maruti_SX4_S_Cross/Maruti_SX4_S_Cross_DDiS_320_Delta.htm'
p1749
sS'Mahindra Scorpio 1.99 S10'
p1750
S'https://www.cardekho.com/overview/Mahindra_Scorpio/Mahindra_Scorpio_1.99_S10.htm'
p1751
sS'Mahindra TUV 300 T6'
p1752
S'https://www.cardekho.com/overview/Mahindra_TUV_300/Mahindra_TUV_300_T6.htm'
p1753
sS'Mahindra TUV 300 T4'
p1754
S'https://www.cardekho.com/overview/Mahindra_TUV_300/Mahindra_TUV_300_T4.htm'
p1755
sS'Mahindra TUV 300 T8'
p1756
S'https://www.cardekho.com/overview/Mahindra_TUV_300/Mahindra_TUV_300_T8.htm'
p1757
sS'Toyota Fortuner 4x2 Manual'
p1758
S'https://www.cardekho.com/overview/Toyota_Fortuner/Toyota_Fortuner_4x2_Manual.htm'
p1759
sS'Premier Rio Petrol GX'
p1760
S'https://www.cardekho.com/overview/Premier_Rio/Premier_Rio_Petrol_GX.htm'
p1761
sS'Porsche Cayenne Base'
p1762
S'https://www.cardekho.com/overview/Porsche_Cayenne/Porsche_Cayenne_Base.htm'
p1763
sS'Mahindra Bolero SLX 2WD BSIII'
p1764
S'https://www.cardekho.com/overview/Mahindra_Bolero/Mahindra_Bolero_SLX_2WD_BSIII.htm'
p1765
sS'Mercedes-Benz GLA 45 AMG 4MATIC'
p1766
S'https://www.cardekho.com/overview/Mercedes-Benz_GLA/Mercedes-Benz_GLA_45_AMG.htm'
p1767
sS'Ford Endeavour 2.2 Trend MT 4X4'
p1768
S'https://www.cardekho.com/overview/Ford_Endeavour/Ford_Endeavour_2.2_Trend_MT_4X4.htm'
p1769
sS'Ford Ecosport 1.5 TDCi Titanium Plus BE'
p1770
S'https://www.cardekho.com/overview/Ford_Ecosport/Ford_Ecosport_1.5_TDCi_Titanium_Plus_BE.htm'
p1771
sS'Land Rover Range Rover Evoque HSE'
p1772
S'https://www.cardekho.com/overview/Land_Rover_Range_Rover_Evoque/Land_Rover_Range_Rover_Evoque_HSE.htm'
p1773
sS'Mahindra TUV 300 T6 Plus'
p1774
S'https://www.cardekho.com/overview/Mahindra_TUV_300/Mahindra_TUV_300_T6_Plus.htm'
p1775
sS'Ford Ecosport 1.0 Ecoboost Trend Plus BE'
p1776
S'https://www.cardekho.com/overview/Ford_Ecosport/Ford_Ecosport_1.0_Ecoboost_Trend_Plus_BE.htm'
p1777
sS'Maruti S-Cross DDiS 200 Alpha'
p1778
S'https://www.cardekho.com/overview/Maruti_SX4_S_Cross/Maruti_SX4_S_Cross_DDiS_200_Alpha.htm'
p1779
sS'Honda BRV i-VTEC E MT'
p1780
S'https://www.cardekho.com/overview/Honda_BR-V/Honda_BR-V_i-VTEC_E_MT.htm'
p1781
sS'Mahindra XUV500 W10 1.99 mHawk'
p1782
S'https://www.cardekho.com/overview/Mahindra_XUV500/Mahindra_XUV500_W10_1.99_mHawk.htm'
p1783
sS'Ford Ecosport 1.5 Ti VCT MT Titanium BE'
p1784
S'https://www.cardekho.com/overview/Ford_Ecosport/Ford_Ecosport_1.5_Ti_VCT_MT_Titanium_BE.htm'
p1785
sS'Premier Rio CRDi4 LX'
p1786
S'https://www.cardekho.com/overview/Premier_Rio/Premier_Rio_CRDi4_LX.htm'
p1787
sS'Maruti Vitara Brezza ZDi'
p1788
S'https://www.cardekho.com/overview/Maruti_Vitara_Brezza/Maruti_Vitara_Brezza_ZDi.htm'
p1789
sS'Renault Duster 85PS Diesel RxZ'
p1790
S'https://www.cardekho.com/overview/Renault_Duster/Renault_Duster_85PS_Diesel_RxZ.htm'
p1791
sS'Land Rover Discovery Sport TD4 SE'
p1792
S'https://www.cardekho.com/overview/Land_Rover_Discovery_Sport/Land_Rover_Discovery_Sport_TD4_SE.htm'
p1793
sS'Tata Sumo Gold CX BSIII'
p1794
S'https://www.cardekho.com/overview/Tata_Sumo/Tata_Sumo_Gold_CX_BSIII.htm'
p1795
sS'Land Rover Range Rover Evoque HSE Dynamic'
p1796
S'https://www.cardekho.com/overview/Land_Rover_Range_Rover_Evoque/Land_Rover_Range_Rover_Evoque_HSE_Dynamic.htm'
p1797
sS'Honda CR-V 2.0L 2WD AT'
p1798
S'https://www.cardekho.com/overview/Honda_CR-V/Honda_CR-V_2.0L_2WD_AT.htm'
p1799
sS'Land Rover Discovery 4 SDV6 SE'
p1800
S'https://www.cardekho.com/overview/Land_Rover_Discovery_4/Land_Rover_Discovery_4_SDV6_SE.htm'
p1801
sS'Land Rover Discovery Sport TD4 SE 7S'
p1802
S'https://www.cardekho.com/overview/Land_Rover_Discovery_Sport/Land_Rover_Discovery_Sport_TD4_SE_7S.htm'
p1803
sS'Mahindra Bolero ZLX BSIII'
p1804
S'https://www.cardekho.com/overview/Mahindra_Bolero/Mahindra_Bolero_ZLX_BSIII.htm'
p1805
sS'Hyundai Creta 1.6 CRDi AT SX Plus'
p1806
S'https://www.cardekho.com/overview/Hyundai_Creta/Hyundai_Creta_1.6_CRDi_AT_SX_Plus.htm'
p1807
sS'Mahindra KUV100 mFALCON G80 K4 Plus'
p1808
S'https://www.cardekho.com/overview/Mahindra_KUV_100/Mahindra_KUV_100_mFALCON_G80_K4_Plus.htm'
p1809
sS'Jeep Grand Cherokee Summit 4X4'
p1810
S'https://www.cardekho.com/overview/Jeep_Grand_Cherokee/Jeep_Grand_Cherokee_Summit_4X4.htm'
p1811
sS'Mahindra Scorpio S2'
p1812
S'https://www.cardekho.com/overview/Mahindra_Scorpio/Mahindra_Scorpio_S2_7_Seater.htm'
p1813
sS'Ford Endeavour 2.2 Titanium AT 4X2'
p1814
S'https://www.cardekho.com/overview/Ford_Endeavour/Ford_Endeavour_2.2_Titanium_AT_4X2.htm'
p1815
sS'Ford Ecosport 1.5 TDCi Titanium'
p1816
S'https://www.cardekho.com/overview/Ford_Ecosport/Ford_Ecosport_1.5_TDCi_Titanium.htm'
p1817
sS'Honda BRV i-DTEC V MT'
p1818
S'https://www.cardekho.com/overview/Honda_BR-V/Honda_BR-V_i-DTEC_V_MT.htm'
p1819
sS'Mahindra Bolero LX 4WD NON AC BSIV'
p1820
S'https://www.cardekho.com/overview/Mahindra_Bolero/Mahindra_Bolero_LX_4WD_NON_AC_BSIV.htm'
p1821
sS'Hyundai Creta 1.6 VTVT E'
p1822
S'https://www.cardekho.com/overview/Hyundai_Creta/Hyundai_Creta_1.6_VTVT_E.htm'
p1823
sS'Land Rover Range Rover LWB 3.0 Vogue'
p1824
S'https://www.cardekho.com/overview/Land_Rover_Range_Rover/Land_Rover_Range_Rover_LWB_3.0_Vogue.htm'
p1825
sS'BMW X1 sDrive 20d xLine'
p1826
S'https://www.cardekho.com/overview/BMW_X1/BMW_X1_sDrive_20d_xLine.htm'
p1827
sS'Hyundai Creta 1.6 VTVT S'
p1828
S'https://www.cardekho.com/overview/Hyundai_Creta/Hyundai_Creta_1.6_VTVT_S.htm'
p1829
sS'Tata Sumo Gold EX'
p1830
S'https://www.cardekho.com/overview/Tata_Sumo/Tata_Sumo_Gold_EX.htm'
p1831
sS'Mahindra Bolero ZLX'
p1832
S'https://www.cardekho.com/overview/Mahindra_Bolero/Mahindra_Bolero_ZLX.htm'
p1833
sS'Ford Ecosport 1.0 Ecoboost Titanium Plus'
p1834
S'https://www.cardekho.com/overview/Ford_Ecosport/Ford_Ecosport_1.0_Ecoboost_Titanium_Plus.htm'
p1835
sS'Mahindra KUV100 mFALCON D75 K2 Plus'
p1836
S'https://www.cardekho.com/overview/Mahindra_KUV_100/Mahindra_KUV_100_mFALCON_D75_K2_Plus.htm'
p1837
sS'Porsche Macan 2L'
p1838
S'https://www.cardekho.com/overview/Porsche_Macan/Porsche_Macan_2L.htm'
p1839
sS'Mercedes-Benz GLA 200 SPORT'
p1840
S'https://www.cardekho.com/overview/Mercedes-Benz_GLA_Class/Mercedes-Benz_GLA_Class_200.htm'
p1841
sS'Mahindra KUV100 mFALCON D75 K4 5str'
p1842
S'https://www.cardekho.com/overview/Mahindra_KUV_100/Mahindra_KUV_100_mFALCON_D75_K4_5str.htm'
p1843
sS'Toyota Fortuner 4x4 AT'
p1844
S'https://www.cardekho.com/overview/Toyota_Fortuner/Toyota_Fortuner_4x4_AT.htm'
p1845
sS'BMW M Series M3 Sedan'
p1846
S'https://www.cardekho.com/overview/BMW_M_Series/BMW_M_Series_M3_Sedan.htm'
p1847
sS'Maruti Vitara Brezza ZDi Plus'
p1848
S'https://www.cardekho.com/overview/Maruti_Vitara_Brezza/Maruti_Vitara_Brezza_ZDi_Plus.htm'
p1849
sS'BMW M Series M5 Sedan'
p1850
S'https://www.cardekho.com/overview/BMW_M_Series/BMW_M_Series_M5_Sedan.htm'
p1851
sS'Ford Ecosport 1.5 TDCi Titanium Plus'
p1852
S'https://www.cardekho.com/overview/Ford_Ecosport/Ford_Ecosport_1.5_TDCi_Titanium_Plus.htm'
p1853
sS'Honda CR-V 2.4L 4WD AT'
p1854
S'https://www.cardekho.com/overview/Honda_CR-V/Honda_CR-V_2.4L_4WD_AT.htm'
p1855
sS'Mahindra Ssangyong Rexton RX7'
p1856
S'https://www.cardekho.com/overview/Mahindra_Ssangyong_Rexton/Mahindra_Ssangyong_Rexton_RX7.htm'
p1857
sS'Mahindra KUV100 mFALCON G80 K8 5str'
p1858
S'https://www.cardekho.com/overview/Mahindra_KUV_100/Mahindra_KUV_100_mFALCON_G80_K8_5str.htm'
p1859
sS'Toyota Land Cruiser Prado VX L'
p1860
S'https://www.cardekho.com/overview/Toyota_Land_Cruiser_Prado/Toyota_Land_Cruiser_Prado_VX_L.htm'
p1861
sS'Hyundai Creta 1.6 VTVT E Plus'
p1862
S'https://www.cardekho.com/overview/Hyundai_Creta/Hyundai_Creta_1.6_VTVT_E_Plus.htm'
p1863
sS'Mahindra XUV500 AT W8 FWD'
p1864
S'https://www.cardekho.com/overview/Mahindra_XUV500/Mahindra_XUV500_AT_W8_FWD.htm'
p1865
sS'Mahindra Thar DI 4X4'
p1866
S'https://www.cardekho.com/overview/Mahindra_Thar/Mahindra_Thar_DI_4X4.htm'
p1867
sS'Mahindra Thar DI 4X2'
p1868
S'https://www.cardekho.com/overview/Mahindra_Thar/Mahindra_Thar_DI_4X2.htm'
p1869
sS'Ford Ecosport 1.5 Ti VCT AT Titanium BE'
p1870
S'https://www.cardekho.com/overview/Ford_Ecosport/Ford_Ecosport_1.5_Ti_VCT_AT_Titanium_BE.htm'
p1871
sS'Mahindra KUV100 mFALCON G80 K6 Plus 5str'
p1872
S'https://www.cardekho.com/overview/Mahindra_KUV_100/Mahindra_KUV_100_mFALCON_G80_K6_Plus_5str.htm'
p1873
sS'Honda BRV i-DTEC VX MT'
p1874
S'https://www.cardekho.com/overview/Honda_BR-V/Honda_BR-V_i-DTEC_VX_MT.htm'
p1875
sS'Renault Duster Petrol RxE'
p1876
S'https://www.cardekho.com/overview/Renault_Duster/Renault_Duster_Petrol_RxE.htm'
p1877
sS'Mahindra Scorpio Adventure Edition 2WD'
p1878
S'https://www.cardekho.com/overview/Mahindra_Scorpio/Mahindra_Scorpio_Adventure_Edition_2WD.htm'
p1879
sS'Renault Duster Petrol RxL'
p1880
S'https://www.cardekho.com/overview/Renault_Duster/Renault_Duster_Petrol_RxL.htm'
p1881
sS'Mahindra Bolero LX 4WD NON AC BS3'
p1882
S'https://www.cardekho.com/overview/Mahindra_Bolero/Mahindra_Bolero_LX_4WD_NON_AC_BS3.htm'
p1883
sS'Mahindra Scorpio Adventure Edition 4WD'
p1884
S'https://www.cardekho.com/overview/Mahindra_Scorpio/Mahindra_Scorpio_Adventure_Edition_4WD.htm'
p1885
sS'Mahindra Bolero Plus Non AC BSIII'
p1886
S'https://www.cardekho.com/overview/Mahindra_Bolero/Mahindra_Bolero_Plus_-_Non-AC_BSIII.htm'
p1887
sS'Maruti S-Cross DDiS 320 Zeta'
p1888
S'https://www.cardekho.com/overview/Maruti_SX4_S_Cross/Maruti_SX4_S_Cross_DDiS_320_Zeta.htm'
p1889
sS'Nissan Terrano XV D Premium AMT'
p1890
S'https://www.cardekho.com/overview/Nissan_Terrano/Nissan_Terrano_XV_D_Premium_AMT.htm'
p1891
sS'Mahindra KUV100 mFALCON G80 K4 5str'
p1892
S'https://www.cardekho.com/overview/Mahindra_KUV_100/Mahindra_KUV_100_mFALCON_G80_K4_5str.htm'
p1893
sS'Mahindra TUV 300 mHAWK100 T8 Dual Tone'
p1894
S'https://www.cardekho.com/overview/Mahindra_TUV_300/Mahindra_TUV_300_mHAWK100_T8_Dual_Tone.htm'
p1895
sS'Mahindra KUV100 mFALCON D75 K8'
p1896
S'https://www.cardekho.com/overview/Mahindra_KUV_100/Mahindra_KUV_100_mFALCON_D75_K8.htm'
p1897
sS'Mahindra KUV100 mFALCON D75 K6'
p1898
S'https://www.cardekho.com/overview/Mahindra_KUV_100/Mahindra_KUV_100_mFALCON_D75_K6.htm'
p1899
sS'Mahindra KUV100 mFALCON D75 K4'
p1900
S'https://www.cardekho.com/overview/Mahindra_KUV_100/Mahindra_KUV_100_mFALCON_D75_K4.htm'
p1901
sS'Mahindra KUV100 mFALCON D75 K2'
p1902
S'https://www.cardekho.com/overview/Mahindra_KUV_100/Mahindra_KUV_100_mFALCON_D75_K2.htm'
p1903
sS'Mahindra XUV500 W8 2WD'
p1904
S'https://www.cardekho.com/overview/Mahindra_XUV500/Mahindra_XUV500_W8_2WD.htm'
p1905
sS'Mercedes-Benz GLE 350d'
p1906
S'https://www.cardekho.com/overview/Mercedes-Benz_GLE_Class/Mercedes-Benz_GLE_Class_350d.htm'
p1907
sS'Mahindra Bolero EX AC'
p1908
S'https://www.cardekho.com/overview/Mahindra_Bolero/Mahindra_Bolero_EX_AC.htm'
p1909
sS'Mahindra Bolero Plus   AC BSIII'
p1910
S'https://www.cardekho.com/overview/Mahindra_Bolero/Mahindra_Bolero_Plus_-_AC_BSIII.htm'
p1911
sS'Force One SUV SX ABS 7 Seating'
p1912
S'https://www.cardekho.com/overview/Force_One/Force_One_SX_ABS_7_Seating.htm'
p1913
sS'Mahindra Bolero DI AC BS III'
p1914
S'https://www.cardekho.com/overview/Mahindra_Bolero/Mahindra_Bolero_DI_-_AC_BS_III.htm'
p1915
sS'Mahindra Bolero mHAWK D70 ZLX'
p1916
S'https://www.cardekho.com/overview/Mahindra_Bolero/Mahindra_Bolero_mHAWK_D70_ZLX.htm'
p1917
sS'Chevrolet Tavera Neo 3 10 Seats BSIII'
p1918
S'https://www.cardekho.com/overview/Chevrolet_Tavera/Chevrolet_Tavera_Neo_3_10_Seats_BSIII.htm'
p1919
sS'Mercedes-Benz GLA 200 CDI SPORT'
p1920
S'https://www.cardekho.com/overview/Mercedes-Benz_GLA_Class/Mercedes-Benz_GLA_Class_200_CDI_SPORT.htm'
p1921
sS'Mahindra Bolero Plus Non AC'
p1922
S'https://www.cardekho.com/overview/Mahindra_Bolero/Mahindra_Bolero_Plus_Non_AC.htm'
p1923
sS'Mahindra Scorpio S8 7C Seater'
p1924
S'https://www.cardekho.com/overview/Mahindra_Scorpio/Mahindra_Scorpio_S8_7C_Seater.htm'
p1925
sS'Ford Ecosport 1.5 Ti VCT MT Ambiente'
p1926
S'https://www.cardekho.com/overview/Ford_Ecosport/Ford_Ecosport_1.5_Ti_VCT_MT_Ambiente.htm'
p1927
sS'Mercedes-Benz GLS 350d 4MATIC'
p1928
S'https://www.cardekho.com/overview/Mercedes-Benz_GLS/Mercedes-Benz_GLS_350d_4MATIC.htm'
p1929
sS'Chevrolet Tavera Neo 3 LS 7 C BSIII'
p1930
S'https://www.cardekho.com/overview/Chevrolet_Tavera/Chevrolet_Tavera_Neo_3_LS_7_C_BSIII.htm'
p1931
sS'Volvo XC60 D4 KINETIC'
p1932
S'https://www.cardekho.com/overview/Volvo_XC60/Volvo_XC60_D4_KINETIC.htm'
p1933
sS'Maruti S-Cross DDiS 320 Alpha'
p1934
S'https://www.cardekho.com/overview/Maruti_SX4_S_Cross/Maruti_SX4_S_Cross_DDiS_320_Alpha.htm'
p1935
sS'Mahindra Scorpio Intelli Hybrid S4 Plus 4WD'
p1936
S'https://www.cardekho.com/overview/Mahindra_Scorpio/Mahindra_Scorpio_Intelli_Hybrid_S4_Plus_4WD.htm'
p1937
sS'Mahindra Bolero Plus AC BSIV PS'
p1938
S'https://www.cardekho.com/overview/Mahindra_Bolero/Mahindra_Bolero_Plus_AC_BSIV_PS.htm'
p1939
sS'Land Rover Discovery Sport TD4 HSE'
p1940
S'https://www.cardekho.com/overview/Land_Rover_Discovery_Sport/Land_Rover_Discovery_Sport_TD4_HSE.htm'
p1941
sS'Mahindra Bolero LX NON AC'
p1942
S'https://www.cardekho.com/overview/Mahindra_Bolero/Mahindra_Bolero_LX_NON_AC.htm'
p1943
sS'Mahindra Bolero Plus AC'
p1944
S'https://www.cardekho.com/overview/Mahindra_Bolero/Mahindra_Bolero_Plus_AC.htm'
p1945
sS'Mahindra KUV100 mFALCON G80 K6 5str'
p1946
S'https://www.cardekho.com/overview/Mahindra_KUV_100/Mahindra_KUV_100_mFALCON_G80_K6_5str.htm'
p1947
sS'Mercedes-Benz GLA 200 CDI STYLE'
p1948
S'https://www.cardekho.com/overview/Mercedes-Benz_GLA_Class/Mercedes-Benz_GLA_Class_200_CDI.htm'
p1949
sS'Mercedes-Benz GLC 220d 4MATIC Style'
p1950
S'https://www.cardekho.com/overview/Mercedes-Benz_GLC_Class/Mercedes-Benz_GLC_Class_220d_4MATIC_Style.htm'
p1951
sS'Maruti Vitara Brezza LDi Option'
p1952
S'https://www.cardekho.com/overview/Maruti_Vitara_Brezza/Maruti_Vitara_Brezza_LDi_Option.htm'
p1953
sS'Volvo XC60 D5 Inscription'
p1954
S'https://www.cardekho.com/overview/Volvo_XC60/Volvo_XC60_D5_Inscription.htm'
p1955
sS'Premier Rio GX Beieg Interior'
p1956
S'https://www.cardekho.com/overview/Premier_Rio/Premier_Rio_GX_Beieg_Interior.htm'
p1957
sS'Mercedes-Benz GLC 220d 4MATIC Sport'
p1958
S'https://www.cardekho.com/overview/Mercedes-Benz_GLC_Class/Mercedes-Benz_GLC_Class_220d_4MATIC_Sport.htm'
p1959
sS'BMW X5 xDrive 30d Design Pure Experience 5 Seater'
p1960
S'https://www.cardekho.com/overview/BMW_X5/BMW_X5_xDrive_30d_Design_Pure_Experience_5_Seater.htm'
p1961
sS'Renault Duster Adventure Edition RXZ AWD'
p1962
S'https://www.cardekho.com/overview/Renault_Duster/Renault_Duster_Adventure_Edition_RXZ_AWD.htm'
p1963
sS'Toyota Fortuner 2.5 4x2 MT TRD Sportivo'
p1964
S'https://www.cardekho.com/overview/Toyota_Fortuner/Toyota_Fortuner_2.5_4x2_MT_TRD_Sportivo.htm'
p1965
sS'Maruti Gypsy King Soft Top MPI'
p1966
S'https://www.cardekho.com/overview/Maruti_Gypsy/Maruti_Gypsy_King_Soft_Top_MPI_BSIV.htm'
p1967
sS'Ford Ecosport 1.5 Ti VCT MT Trend'
p1968
S'https://www.cardekho.com/overview/Ford_Ecosport/Ford_Ecosport_1.5_Ti_VCT_MT_Trend.htm'
p1969
sS'Audi Q7 45 TDI Quattro Technology'
p1970
S'https://www.cardekho.com/overview/Audi_Q7/Audi_Q7_45_TDI_Quattro_Technology.htm'
p1971
sS'Maruti Vitara Brezza VDi'
p1972
S'https://www.cardekho.com/overview/Maruti_Vitara_Brezza/Maruti_Vitara_Brezza_VDi.htm'
p1973
sS'BMW M Series M4 Coupe'
p1974
S'https://www.cardekho.com/overview/BMW_M_Series/BMW_M_Series_M4_Coupe.htm'
p1975
sS'Jeep Wrangler Unlimited 4X4'
p1976
S'https://www.cardekho.com/overview/Jeep_Wrangler/Jeep_Wrangler_4X4.htm'
p1977
sS'Mahindra KUV100 mFALCON G80 K2 Plus'
p1978
S'https://www.cardekho.com/overview/Mahindra_KUV_100/Mahindra_KUV_100_mFALCON_G80_K2_Plus.htm'
p1979
sS'Hyundai Creta 1.6 CRDi Anniversary Edition'
p1980
S'https://www.cardekho.com/overview/Hyundai_Creta/Hyundai_Creta_1.6_CRDi_Anniversary_Edition.htm'
p1981
sS'Mahindra TUV 300 T6 Plus AMT'
p1982
S'https://www.cardekho.com/overview/Mahindra_TUV_300/Mahindra_TUV_300_T6_Plus_AMT.htm'
p1983
sS'Ford Ecosport 1.5 TDCi Ambiente'
p1984
S'https://www.cardekho.com/overview/Ford_Ecosport/Ford_Ecosport_1.5_TDCi_Ambiente.htm'
p1985
sS'Ford Ecosport 1.5 Ti VCT AT Signature'
p1986
S'https://www.cardekho.com/overview/Ford_Ecosport/Ford_Ecosport_1.5_Ti_VCT_AT_Signature.htm'
p1987
sS'Premier Rio DX Beige Interior'
p1988
S'https://www.cardekho.com/overview/Premier_Rio/Premier_Rio_DX_Beige_Interior.htm'
p1989
sS'Tata Sumo Gold CX PS'
p1990
S'https://www.cardekho.com/overview/Tata_Sumo/Tata_Sumo_Gold_CX_PS.htm'
p1991
sS'Jeep Grand Cherokee SRT 4X4'
p1992
S'https://www.cardekho.com/overview/Jeep_Grand_Cherokee/Jeep_Grand_Cherokee_SRT_4X4.htm'
p1993
sS'Audi Q5 45 TDI quattro Technology'
p1994
S'https://www.cardekho.com/overview/Audi_Q5/Audi_Q5_45_TDI_quattro_Technology.htm'
p1995
sS'Mahindra Bolero Plus AC BSIII PS'
p1996
S'https://www.cardekho.com/overview/Mahindra_Bolero/Mahindra_Bolero_Plus_AC_BSIII_PS.htm'
p1997
sS'Hyundai Creta 1.6 CRDi SX Plus'
p1998
S'https://www.cardekho.com/overview/Hyundai_Creta/Hyundai_Creta_1.6_CRDi_SX_Plus.htm'
p1999
sS'Mitsubishi Pajero Sport 4X2 AT'
p2000
S'https://www.cardekho.com/overview/Mitsubishi_Pajero/Mitsubishi_Pajero_Sport_4X2_AT.htm'
p2001
sS'Land Rover Range Rover LWB 4.4 SDV8 Vogue SE'
p2002
S'https://www.cardekho.com/overview/Land_Rover_Range_Rover/Land_Rover_Range_Rover_LWB_4.4_SDV8_Vogue_SE.htm'
p2003
sS'Porsche Cayenne Turbo'
p2004
S'https://www.cardekho.com/overview/Porsche_Cayenne/Porsche_Cayenne_Turbo.htm'
p2005
sS'Honda BRV i-VTEC S MT'
p2006
S'https://www.cardekho.com/overview/Honda_BR-V/Honda_BR-V_i-VTEC_S_MT.htm'
p2007
sS'BMW X1 sDrive20d Expedition'
p2008
S'https://www.cardekho.com/overview/BMW_X1/BMW_X1_sDrive20d_Expedition.htm'
p2009
sS'Audi Q5 30 TDI quattro Premium Plus'
p2010
S'https://www.cardekho.com/overview/Audi_Q5/Audi_Q5_30_TDI_quattro_Premium_Plus.htm'
p2011
sS'Mahindra Bolero LX NON AC BS3'
p2012
S'https://www.cardekho.com/overview/Mahindra_Bolero/Mahindra_Bolero_LX_NON_AC_BS3.htm'
p2013
sS'Mahindra KUV100 mFALCON D75 K4 Plus'
p2014
S'https://www.cardekho.com/overview/Mahindra_KUV_100/Mahindra_KUV_100_mFALCON_D75_K4_Plus.htm'
p2015
sS'Porsche Cayenne GTS'
p2016
S'https://www.cardekho.com/overview/Porsche_Cayenne/Porsche_Cayenne_GTS.htm'
p2017
sS'Mahindra XUV500 W10 2WD'
p2018
S'https://www.cardekho.com/overview/Mahindra_XUV500/Mahindra_XUV500_W10_2WD.htm'
p2019
sS'Land Rover Range Rover LWB 4.4 SDV8 Autobiography'
p2020
S'https://www.cardekho.com/overview/Land_Rover_Range_Rover/Land_Rover_Range_Rover_LWB_4.4_SDV8_Autobiography.htm'
p2021
sS'Premier Rio Petrol GLX'
p2022
S'https://www.cardekho.com/overview/Premier_Rio/Premier_Rio_Petrol_GLX.htm'
p2023
sS'Mahindra Bolero EX NON AC'
p2024
S'https://www.cardekho.com/overview/Mahindra_Bolero/Mahindra_Bolero_EX_NON_AC.htm'
p2025
sS'Mahindra Scorpio Getaway 4WD'
p2026
S'https://www.cardekho.com/overview/Mahindra_Scorpio/Mahindra_Scorpio_Getaway_4WD.htm'
p2027
sS'Mahindra KUV100 mFALCON G80 K8'
p2028
S'https://www.cardekho.com/overview/Mahindra_KUV_100/Mahindra_KUV_100_mFALCON_G80_K8.htm'
p2029
sS'Toyota Fortuner 4x2 AT'
p2030
S'https://www.cardekho.com/overview/Toyota_Fortuner/Toyota_Fortuner_4x2_AT.htm'
p2031
sS'Honda CR-V 2.0L 2WD MT'
p2032
S'https://www.cardekho.com/overview/Honda_CR-V/Honda_CR-V_2.0L_2WD_MT.htm'
p2033
sS'Mahindra KUV100 mFALCON G80 K2'
p2034
S'https://www.cardekho.com/overview/Mahindra_KUV_100/Mahindra_KUV_100_mFALCON_G80_K2.htm'
p2035
sS'Mahindra KUV100 mFALCON G80 K6'
p2036
S'https://www.cardekho.com/overview/Mahindra_KUV_100/Mahindra_KUV_100_mFALCON_G80_K6.htm'
p2037
sS'Mahindra KUV100 mFALCON G80 K4'
p2038
S'https://www.cardekho.com/overview/Mahindra_KUV_100/Mahindra_KUV_100_mFALCON_G80_K4.htm'
p2039
sS'Mitsubishi Pajero Sport 4X2 AT Dual Tone'
p2040
S'https://www.cardekho.com/overview/Mitsubishi_Pajero/Mitsubishi_Pajero_Sport_4X2_AT_Dual_Tone.htm'
p2041
sS'Mahindra Thar DI 4X2 PS'
p2042
S'https://www.cardekho.com/overview/Mahindra_Thar/Mahindra_Thar_DI_4X2_PS.htm'
p2043
sS'Land Rover Range Rover Sport SE'
p2044
S'https://www.cardekho.com/overview/Land_Rover_Range_Rover_Sport/Land_Rover_Range_Rover_Sport_SE.htm'
p2045
sS'Maruti Vitara Brezza LDi'
p2046
S'https://www.cardekho.com/overview/Maruti_Vitara_Brezza/Maruti_Vitara_Brezza_LDi.htm'
p2047
sS'Mercedes-Benz GLE 400 4MATIC'
p2048
S'https://www.cardekho.com/overview/Mercedes-Benz_GLE_Class/Mercedes-Benz_GLE_Class_400_4MATIC.htm'
p2049
sS'Mercedes-Benz GLE 450 AMG Coupe'
p2050
S'https://www.cardekho.com/overview/Mercedes-Benz_GLE_Class/Mercedes-Benz_GLE_Class_Coupe.htm'
p2051
sS'Land Rover Range Rover LWB 5.0 V8'
p2052
S'https://www.cardekho.com/overview/Land_Rover_Range_Rover/Land_Rover_Range_Rover_LWB_5.0_V8.htm'
p2053
sS'BMW X3 xDrive20d xLine'
p2054
S'https://www.cardekho.com/overview/BMW_X3/BMW_X3_xDrive20d_xLine.htm'
p2055
sS'Audi Q7 45 TDI Quattro Premium Plus'
p2056
S'https://www.cardekho.com/overview/Audi_Q7/Audi_Q7_45_TDI_Quattro_Premium_Plus.htm'
p2057
sS'Maruti S-Cross DDiS 200 Zeta'
p2058
S'https://www.cardekho.com/overview/Maruti_SX4_S_Cross/Maruti_SX4_S_Cross_DDiS_200_Zeta.htm'
p2059
sS'Mahindra Scorpio Intelli Hybrid S10 4WD'
p2060
S'https://www.cardekho.com/overview/Mahindra_Scorpio/Mahindra_Scorpio_Intelli_Hybrid_S10_4WD.htm'
p2061
sS'Audi Q3 30 TDI S Edition'
p2062
S'https://www.cardekho.com/overview/Audi_Q3/Audi_Q3_30_TDI_S_Edition.htm'
p2063
sS'Hyundai Creta 1.4 CRDi S'
p2064
S'https://www.cardekho.com/overview/Hyundai_Creta/Hyundai_Creta_1.4_CRDi_S.htm'
p2065
sS'Land Rover Range Rover Evoque Coupe HSE Dynamic'
p2066
S'https://www.cardekho.com/overview/Land_Rover_Range_Rover_Evoque/Land_Rover_Range_Rover_Evoque_Coupe_HSE_Dynamic.htm'
p2067
sS'Mahindra Bolero Plus - Non-AC BSIII PS'
p2068
S'https://www.cardekho.com/overview/Mahindra_Bolero/Mahindra_Bolero_Plus_-_Non-AC_BSIII_PS.htm'
p2069
sS'Premier Rio DX'
p2070
S'https://www.cardekho.com/overview/Premier_Rio/Premier_Rio_DX.htm'
p2071
sS'Mitsubishi Pajero Sport 4X4'
p2072
S'https://www.cardekho.com/overview/Mitsubishi_Pajero/Mitsubishi_Pajero_Sport_4X4.htm'
p2073
sS'Land Rover Range Rover Sport HSE'
p2074
S'https://www.cardekho.com/overview/Land_Rover_Range_Rover_Sport/Land_Rover_Range_Rover_Sport_HSE.htm'
p2075
sS'Porsche Cayenne Diesel'
p2076
S'https://www.cardekho.com/overview/Porsche_Cayenne/Porsche_Cayenne_Diesel.htm'
p2077
sS'Hyundai Creta 1.6 CRDi SX Option'
p2078
S'https://www.cardekho.com/overview/Hyundai_Creta/Hyundai_Creta_1.6_CRDi_SX_Option.htm'
p2079
sS'BMW X3 xDrive30d M Sport'
p2080
S'https://www.cardekho.com/overview/BMW_X3/BMW_X3_xDrive30d_M_Sport.htm'
p2081
sS'Chevrolet Tavera Neo 3 LS 9 Str BSIII'
p2082
S'https://www.cardekho.com/overview/Chevrolet_Tavera/Chevrolet_Tavera_Neo_3_LS_9_Str_BSIII.htm'
p2083
sS'Ford Ecosport 1.5 TDCi Trend'
p2084
S'https://www.cardekho.com/overview/Ford_Ecosport/Ford_Ecosport_1.5_TDCi_Trend.htm'
p2085
sS'Porsche Cayenne Turbo S'
p2086
S'https://www.cardekho.com/overview/Porsche_Cayenne/Porsche_Cayenne_Turbo_S.htm'
p2087
sS'Mercedes-Benz GLC 300 4MATIC Sport'
p2088
S'https://www.cardekho.com/overview/Mercedes-Benz_GLC_Class/Mercedes-Benz_GLC_Class_300_4MATIC_Sport.htm'
p2089
sS'Mahindra TUV 300 mHAWK100 T8'
p2090
S'https://www.cardekho.com/overview/Mahindra_TUV_300/Mahindra_TUV_300_mHAWK100_T8.htm'
p2091
sS'Honda BRV i-VTEC V MT'
p2092
S'https://www.cardekho.com/overview/Honda_BR-V/Honda_BR-V_i-VTEC_V_MT.htm'
p2093
sS'Toyota Fortuner 2.5 4x2 AT TRD Sportivo'
p2094
S'https://www.cardekho.com/overview/Toyota_Fortuner/Toyota_Fortuner_2.5_4x2_AT_TRD_Sportivo.htm'
p2095
sS'Maruti Vitara Brezza ZDi Plus Dual Tone'
p2096
S'https://www.cardekho.com/overview/Maruti_Vitara_Brezza/Maruti_Vitara_Brezza_ZDi_Plus_Dual_Tone.htm'
p2097
sS'Mahindra Scorpio S10 AT 4WD'
p2098
S'https://www.cardekho.com/overview/Mahindra_Scorpio/Mahindra_Scorpio_S10_AT_4WD.htm'
p2099
sS'Audi Q3 35 TDI Dynamic Edition'
p2100
S'https://www.cardekho.com/overview/Audi_Q3/Audi_Q3_35_TDI_Dynamic_Edition.htm'
p2101
sS'Mahindra Scorpio 1.99 S4 Plus 4WD'
p2102
S'https://www.cardekho.com/overview/Mahindra_Scorpio/Mahindra_Scorpio_1.99_S4_Plus_4WD.htm'
p2103
sS'Bentley Bentayga 6.0 W12'
p2104
S'https://www.cardekho.com/overview/Bentley_Bentayga/Bentley_Bentayga_6.0_W12.htm'
p2105
sS'Mahindra Scorpio 1.99 S10 4WD'
p2106
S'https://www.cardekho.com/overview/Mahindra_Scorpio/Mahindra_Scorpio_1.99_S10_4WD.htm'
p2107
sS'Land Rover Range Rover Sport SVR'
p2108
S'https://www.cardekho.com/overview/Land_Rover_Range_Rover_Sport/Land_Rover_Range_Rover_Sport_SVR.htm'
p2109
sS'BMW X3 xDrive20d Expedition'
p2110
S'https://www.cardekho.com/overview/BMW_X3/BMW_X3_xDrive20d_Expedition.htm'
p2111
sS'Honda BRV i-DTEC E MT'
p2112
S'https://www.cardekho.com/overview/Honda_BR-V/Honda_BR-V_i-DTEC_E_MT.htm'
p2113
sS'Mahindra Bolero SLX'
p2114
S'https://www.cardekho.com/overview/Mahindra_Bolero/Mahindra_Bolero_SLX.htm'
p2115
sS'Mercedes-Benz G-Class G63 AMG'
p2116
S'https://www.cardekho.com/overview/Mercedes-Benz_G_Class/Mercedes-Benz_G_Class_G63_AMG.htm'
p2117
sS'Mahindra Bolero SLE'
p2118
S'https://www.cardekho.com/overview/Mahindra_Bolero/Mahindra_Bolero_SLE.htm'
p2119
sS'Land Rover Discovery 4 SDV6 HSE'
p2120
S'https://www.cardekho.com/overview/Land_Rover_Discovery_4/Land_Rover_Discovery_4_SDV6_HSE.htm'
p2121
sS'Mercedes-Benz M-Class ML 63 AMG 4MATIC'
p2122
S'https://www.cardekho.com/overview/Mercedes-Benz_M-Class/Mercedes-Benz_M-Class_ML_63_AMG_4MATIC.htm'
p2123
sS'Nissan Terrano XL Plus 85 PS'
p2124
S'https://www.cardekho.com/overview/Nissan_Terrano/Nissan_Terrano_XL_Plus_85_PS.htm'
p2125
sS'Hyundai Santa Fe 2WD MT'
p2126
S'https://www.cardekho.com/overview/Hyundai_Santa_Fe/Hyundai_Santa_Fe_2WD_MT.htm'
p2127
sS'Mahindra NuvoSport N4'
p2128
S'https://www.cardekho.com/overview/Mahindra_NuvoSport/Mahindra_NuvoSport_N4.htm'
p2129
sS'Ford Ecosport 1.5 Ti VCT MT Signature'
p2130
S'https://www.cardekho.com/overview/Ford_Ecosport/Ford_Ecosport_1.5_Ti_VCT_MT_Signature.htm'
p2131
sS'Mahindra NuvoSport N6'
p2132
S'https://www.cardekho.com/overview/Mahindra_NuvoSport/Mahindra_NuvoSport_N6.htm'
p2133
sS'Mahindra NuvoSport N8'
p2134
S'https://www.cardekho.com/overview/Mahindra_NuvoSport/Mahindra_NuvoSport_N8.htm'
p2135
sS'Tata Sumo Gold GX'
p2136
S'https://www.cardekho.com/overview/Tata_Sumo/Tata_Sumo_Gold_GX.htm'
p2137
sS'Porsche Cayenne S'
p2138
S'https://www.cardekho.com/overview/Porsche_Cayenne/Porsche_Cayenne_S.htm'
p2139
sS'Chevrolet Tavera Neo 3 Max 10 Seats BSIII'
p2140
S'https://www.cardekho.com/overview/Chevrolet_Tavera/Chevrolet_Tavera_Neo_3_Max_10_Seats_BSIII.htm'
p2141
sS'Mahindra Scorpio Intelli Hybrid S10'
p2142
S'https://www.cardekho.com/overview/Mahindra_Scorpio/Mahindra_Scorpio_Intelli_Hybrid_S10.htm'
p2143
sS'Mahindra Scorpio Intelli Hybrid S4 Plus'
p2144
S'https://www.cardekho.com/overview/Mahindra_Scorpio/Mahindra_Scorpio_Intelli_Hybrid_S4_Plus.htm'
p2145
sS'Porsche Macan S Diesel'
p2146
S'https://www.cardekho.com/overview/Porsche_Macan/Porsche_Macan_S_Diesel.htm'
p2147
sS'Tata Safari Storme VX 4WD Varicor 400'
p2148
S'https://www.cardekho.com/overview/Tata_Safari_Storme/Tata_Safari_Storme_VX_4WD_Varicor_400.htm'
p2149
sS'Ford Ecosport 1.0 Ecoboost Trend Plus'
p2150
S'https://www.cardekho.com/overview/Ford_Ecosport/Ford_Ecosport_1.0_Ecoboost_Trend_Plus.htm'
p2151
sS'Mahindra XUV500 W10 AWD'
p2152
S'https://www.cardekho.com/overview/Mahindra_XUV500/Mahindra_XUV500_W10_AWD.htm'
p2153
sS'Renault Duster 110PS Diesel RxL'
p2154
S'https://www.cardekho.com/overview/Renault_Duster/Renault_Duster_110PS_Diesel_RxL.htm'
p2155
sS'Chevrolet Tavera Neo 3 LT 9 Seats BSIII'
p2156
S'https://www.cardekho.com/overview/Chevrolet_Tavera/Chevrolet_Tavera_Neo_3_LT_9_Seats_BSIII.htm'
p2157
sS'Mahindra Scorpio Intelli Hybrid S8'
p2158
S'https://www.cardekho.com/overview/Mahindra_Scorpio/Mahindra_Scorpio_Intelli_Hybrid_S8.htm'
p2159
sS'Renault Duster 110PS Diesel RxZ'
p2160
S'https://www.cardekho.com/overview/Renault_Duster/Renault_Duster_110PS_Diesel_RxZ.htm'
p2161
sS'Mahindra Scorpio Intelli Hybrid S4'
p2162
S'https://www.cardekho.com/overview/Mahindra_Scorpio/Mahindra_Scorpio_Intelli_Hybrid_S4.htm'
p2163
sS'Isuzu MU 7 AT Premium'
p2164
S'https://www.cardekho.com/overview/Isuzu_MU_7/Isuzu_MU_7_AT_Premium.htm'
p2165
sS'Tata Safari Storme VX Varicor 400'
p2166
S'https://www.cardekho.com/overview/Tata_Safari_Storme/Tata_Safari_Storme_VX_Varicor_400.htm'
p2167
sS'Mahindra Bolero DI NON AC BS III SILVER'
p2168
S'https://www.cardekho.com/overview/Mahindra_Bolero/Mahindra_Bolero_DI_NON_AC_BS_III_SILVER.htm'
p2169
sS'Mahindra KUV100 mFALCON D75 K6 Plus 5str'
p2170
S'https://www.cardekho.com/overview/Mahindra_KUV_100/Mahindra_KUV_100_mFALCON_D75_K6_Plus_5str.htm'
p2171
sS'Ford Ecosport 1.5 TDCi Trend Plus BE'
p2172
S'https://www.cardekho.com/overview/Ford_Ecosport/Ford_Ecosport_1.5_TDCi_Trend_Plus_BE.htm'
p2173
sS'Renault Duster 85PS Diesel RxL'
p2174
S'https://www.cardekho.com/overview/Renault_Duster/Renault_Duster_85PS_Diesel_RxL.htm'
p2175
sS'Mahindra Ssangyong Rexton RX5'
p2176
S'https://www.cardekho.com/overview/Mahindra_Ssangyong_Rexton/Mahindra_Ssangyong_Rexton_RX5.htm'
p2177
sS'Mahindra Ssangyong Rexton RX6'
p2178
S'https://www.cardekho.com/overview/Mahindra_Ssangyong_Rexton/Mahindra_Ssangyong_Rexton_RX6.htm'
p2179
sS'Renault Duster 85PS Diesel RxE'
p2180
S'https://www.cardekho.com/overview/Renault_Duster/Renault_Duster_85PS_Diesel_RxE.htm'
p2181
sS'Mercedes-Benz GLS 400 4MATIC'
p2182
S'https://www.cardekho.com/overview/Mercedes-Benz_GLS/Mercedes-Benz_GLS_400_4MATIC.htm'
p2183
sS'Land Rover Discovery Sport Si4 HSE'
p2184
S'https://www.cardekho.com/overview/Land_Rover_Discovery_Sport/Land_Rover_Discovery_Sport_Si4_HSE.htm'
p2185
sS'Force Gurkha Hard Top BS3 4WD'
p2186
S'https://www.cardekho.com/overview/Force_Gurkha/Force_Gurkha_Hard_Top_BS3_4WD.htm'
p2187
sS'Tata Sumo Gold CX PS BSIII'
p2188
S'https://www.cardekho.com/overview/Tata_Sumo/Tata_Sumo_Gold_CX_PS_BSIII.htm'
p2189
sS'BMW X5 xDrive 30d M Sport'
p2190
S'https://www.cardekho.com/overview/BMW_X5/BMW_X5_xDrive_30d_M_Sport.htm'
p2191
sS'Nissan Terrano XV Premium 110 PS'
p2192
S'https://www.cardekho.com/overview/Nissan_Terrano/Nissan_Terrano_XV_Premium_110_PS.htm'
p2193
sS'Land Rover Range Rover Evoque SE'
p2194
S'https://www.cardekho.com/overview/Land_Rover_Range_Rover_Evoque/Land_Rover_Range_Rover_Evoque_SE.htm'
p2195
sS'Hyundai Creta 1.6 CRDi SX'
p2196
S'https://www.cardekho.com/overview/Hyundai_Creta/Hyundai_Creta_1.6_CRDi_SX.htm'
p2197
sS'Renault Duster Adventure Edition 85PS RXE'
p2198
S'https://www.cardekho.com/overview/Renault_Duster/Renault_Duster_Adventure_Edition_85PS_RXE.htm'
p2199
sS'Mahindra KUV100 mFALCON D75 K4 Plus 5str'
p2200
S'https://www.cardekho.com/overview/Mahindra_KUV_100/Mahindra_KUV_100_mFALCON_D75_K4_Plus_5str.htm'
p2201
sS'Force One SUV EX'
p2202
S'https://www.cardekho.com/overview/Force_One/Force_One_EX.htm'
p2203
sS'Mahindra XUV500 W4 1.99 mHawk'
p2204
S'https://www.cardekho.com/overview/Mahindra_XUV500/Mahindra_XUV500_W4_1.99_mHawk.htm'
p2205
sS'Renault Duster Adventure Edition 85PS RXL'
p2206
S'https://www.cardekho.com/overview/Renault_Duster/Renault_Duster_Adventure_Edition_85PS_RXL.htm'
p2207
sS'Land Rover Discovery Sport SD4 HSE Luxury'
p2208
S'https://www.cardekho.com/overview/Land_Rover_Discovery_Sport/Land_Rover_Discovery_Sport_SD4_HSE_Luxury.htm'
p2209
sS'Ford Ecosport 1.5 Ti VCT AT Titanium'
p2210
S'https://www.cardekho.com/overview/Ford_Ecosport/Ford_Ecosport_1.5_Ti_VCT_AT_Titanium.htm'
p2211
sS'Mahindra Scorpio 1.99 S4 Plus'
p2212
S'https://www.cardekho.com/overview/Mahindra_Scorpio/Mahindra_Scorpio_1.99_S4_Plus.htm'
p2213
sS'Audi Q3 35 TDI Quattro Premium Plus'
p2214
S'https://www.cardekho.com/overview/Audi_Q3/Audi_Q3_35_TDI_Quattro_Premium_Plus.htm'
p2215
sS'Mahindra KUV100 mFALCON G80 K6 Plus'
p2216
S'https://www.cardekho.com/overview/Mahindra_KUV_100/Mahindra_KUV_100_mFALCON_G80_K6_Plus.htm'
p2217
sS'Nissan Terrano XE 85 PS'
p2218
S'https://www.cardekho.com/overview/Nissan_Terrano/Nissan_Terrano_XE_85_PS.htm'
p2219
sS'Mahindra XUV500 W6 1.99 mHawk'
p2220
S'https://www.cardekho.com/overview/Mahindra_XUV500/Mahindra_XUV500_W6_1.99_mHawk.htm'
p2221
sS'Mahindra XUV500 AT W10 1.99 mHawk'
p2222
S'https://www.cardekho.com/overview/Mahindra_XUV500/Mahindra_XUV500_AT_W10_1.99_mHawk.htm'
p2223
sS'Ford Ecosport 1.5 TDCi Signature'
p2224
S'https://www.cardekho.com/overview/Ford_Ecosport/Ford_Ecosport_1.5_TDCi_Signature.htm'
p2225
sS'Mercedes-Benz GLE 250d'
p2226
S'https://www.cardekho.com/overview/Mercedes-Benz_GLE_Class/Mercedes-Benz_GLE_Class_250d.htm'
p2227
sS'Tata Safari Storme EX'
p2228
S'https://www.cardekho.com/overview/Tata_Safari_Storme/Tata_Safari_Storme_EX.htm'
p2229
sS'Ford Endeavour 2.2 Trend AT 4X2'
p2230
S'https://www.cardekho.com/overview/Ford_Endeavour/Ford_Endeavour_2.2_Trend_AT_4X2.htm'
p2231
sS'Chevrolet Tavera Neo 3 Max 9 Str BSIII'
p2232
S'https://www.cardekho.com/overview/Chevrolet_Tavera/Chevrolet_Tavera_Neo_3_Max_9_Str_BSIII.htm'
p2233
sS'Tata Sumo Gold CX'
p2234
S'https://www.cardekho.com/overview/Tata_Sumo/Tata_Sumo_Gold_CX.htm'
p2235
sS'Jeep Grand Cherokee Limited 4X4'
p2236
S'https://www.cardekho.com/overview/Jeep_Grand_Cherokee/Jeep_Grand_Cherokee_Limited_4X4.htm'
p2237
sS'Hyundai Santa Fe 2WD AT'
p2238
S'https://www.cardekho.com/overview/Hyundai_Santa_Fe/Hyundai_Santa_Fe_2WD_AT.htm'
p2239
sS'Ford Ecosport 1.5 TDCi Titanium BE'
p2240
S'https://www.cardekho.com/overview/Ford_Ecosport/Ford_Ecosport_1.5_TDCi_Titanium_BE.htm'
p2241
sS'Chevrolet Tavera Neo 3 9 Str BSIII'
p2242
S'https://www.cardekho.com/overview/Chevrolet_Tavera/Chevrolet_Tavera_Neo_3_9_Str_BSIII.htm'
p2243
sS'Mitsubishi Pajero Sport 4X4 Dual Tone'
p2244
S'https://www.cardekho.com/overview/Mitsubishi_Pajero/Mitsubishi_Pajero_Sport_4X4_Dual_Tone.htm'
p2245
sS'Maruti S-Cross DDiS 200 Sigma'
p2246
S'https://www.cardekho.com/overview/Maruti_SX4_S_Cross/Maruti_SX4_S_Cross_DDiS_200_Sigma.htm'
p2247
sS'Premier Rio LX'
p2248
S'https://www.cardekho.com/overview/Premier_Rio/Premier_Rio_LX.htm'
p2249
sS'Mahindra Bolero SLE BSIII'
p2250
S'https://www.cardekho.com/overview/Mahindra_Bolero/Mahindra_Bolero_SLE_BSIII.htm'
p2251
sS'Honda BRV i-DTEC S MT'
p2252
S'https://www.cardekho.com/overview/Honda_BR-V/Honda_BR-V_i-DTEC_S_MT.htm'
p2253
sS'Mahindra XUV500 W8 AWD'
p2254
S'https://www.cardekho.com/overview/Mahindra_XUV500/Mahindra_XUV500_W8_4WD.htm'
p2255
sS'Force Gurkha Soft Top BS3 4WD'
p2256
S'https://www.cardekho.com/overview/Force_Gurkha/Force_Gurkha_Soft_Top_BS3_4WD.htm'
p2257
sS'Tata Safari Storme LX'
p2258
S'https://www.cardekho.com/overview/Tata_Safari_Storme/Tata_Safari_Storme_LX.htm'
p2259
sS'Audi Q5 30 TDI quattro Premium'
p2260
S'https://www.cardekho.com/overview/Audi_Q5/Audi_Q5_30_TDI_quattro_Premium.htm'
p2261
ssg330
(dp2262
S'Isuzu D-Max V-Cross 4X4'
p2263
S'https://www.cardekho.com/overview/Isuzu_D-Max_V-Cross/Isuzu_D-Max_V-Cross_4X4.htm'
p2264
ssg334
(dp2265
S'Aston Martin Rapide S V12'
p2266
S'https://www.cardekho.com/overview/Aston_Martin_Rapide/Aston_Martin_Rapide_S_V12.htm'
p2267
sS'Mercedes-Benz S-Class Maybach S600'
p2268
S'https://www.cardekho.com/overview/Mercedes-Benz_S-Class/Mercedes-Benz_S-Class_Maybach_S600.htm'
p2269
sS'Maserati Ghibli Diesel'
p2270
S'https://www.cardekho.com/overview/Maserati_Ghibli/Maserati_Ghibli_Diesel.htm'
p2271
sS'BMW 3 Series 320d Luxury Line'
p2272
S'https://www.cardekho.com/overview/BMW_3_Series/BMW_3_Series_320d_Luxury_Line.htm'
p2273
sS'BMW 3 Series 320i Prestige'
p2274
S'https://www.cardekho.com/overview/BMW_3_Series/BMW_3_Series_320i_Prestige.htm'
p2275
sS'Porsche Panamera 4'
p2276
S'https://www.cardekho.com/overview/Porsche_Panamera/Porsche_Panamera_4.htm'
p2277
sS'Mercedes-Benz E-Class E350 CDI Avantgrade'
p2278
S'https://www.cardekho.com/overview/Mercedes-Benz_E-Class/Mercedes-Benz_E-Class_E350_CDI_Avantgrade.htm'
p2279
sS'BMW M Series X6 M'
p2280
S'https://www.cardekho.com/overview/BMW_M_Series/BMW_M_Series_X6_M.htm'
p2281
sS'Maserati Quattroporte Diesel'
p2282
S'https://www.cardekho.com/overview/Maserati_Quattroporte/Maserati_Quattroporte_Diesel.htm'
p2283
sS'Porsche Panamera Turbo'
p2284
S'https://www.cardekho.com/overview/Porsche_Panamera/Porsche_Panamera_Turbo.htm'
p2285
sS'BMW 7 Series 750Li M Sport CBU'
p2286
S'https://www.cardekho.com/overview/BMW_7_Series/BMW_7_Series_750Li_M_Sport_CBU.htm'
p2287
sS'Mercedes-Benz CLS 250 CDI'
p2288
S'https://www.cardekho.com/overview/Mercedes-Benz_CLS-Class/Mercedes-Benz_CLS-Class_250_CDI.htm'
p2289
sS'Audi A8 L W12 quattro'
p2290
S'https://www.cardekho.com/overview/Audi_A8/Audi_A8_L_W12_quattro.htm'
p2291
sS'Audi S5 Sportback'
p2292
S'https://www.cardekho.com/overview/Audi_S5/Audi_S5_Sportback.htm'
p2293
sS'Audi A6 35 TFSI'
p2294
S'https://www.cardekho.com/overview/Audi_A6/Audi_A6_35_TFSI.htm'
p2295
sS'Mercedes-Benz E-Class E250 CDI Avantgarde'
p2296
S'https://www.cardekho.com/overview/Mercedes-Benz_E-Class/Mercedes-Benz_E-Class_E250_CDI_Avantgarde.htm'
p2297
sS'BMW 7 Series 730Ld Design Pure Excellence CBU'
p2298
S'https://www.cardekho.com/overview/BMW_7_Series/BMW_7_Series_730Ld_Design_Pure_Excellence_CBU.htm'
p2299
sS'Audi A8 L 60 TDI Quattro'
p2300
S'https://www.cardekho.com/overview/Audi_A8/Audi_A8_L_60_TDI_Quattro.htm'
p2301
sS'Jaguar XF 2.0 Petrol Portfolio'
p2302
S'https://www.cardekho.com/overview/Jaguar_XF/Jaguar_XF_2.0_Petrol_Portfolio.htm'
p2303
sS'Audi A8 L Security'
p2304
S'https://www.cardekho.com/overview/Audi_A8/Audi_A8_L_Security.htm'
p2305
sS'Jaguar XF 2.0 Diesel Prestige'
p2306
S'https://www.cardekho.com/overview/Jaguar_XF/Jaguar_XF_2.0_Diesel_Prestige.htm'
p2307
sS'Audi A4 30 TFSI Premium Plus'
p2308
S'https://www.cardekho.com/overview/Audi_A4/Audi_A4_30_TFSI_Premium_Plus.htm'
p2309
sS'Mercedes-Benz S-Class Maybach S500'
p2310
S'https://www.cardekho.com/overview/Mercedes-Benz_S-Class/Mercedes-Benz_S-Class_Maybach_S500.htm'
p2311
sS'Jaguar XF 2.0 Petrol Prestige'
p2312
S'https://www.cardekho.com/overview/Jaguar_XF/Jaguar_XF_2.0_Petrol_Prestige.htm'
p2313
sS'Audi A4 30 TFSI Technology'
p2314
S'https://www.cardekho.com/overview/Audi_A4/Audi_A4_30_TFSI_Technology.htm'
p2315
sS'Porsche Panamera GTS'
p2316
S'https://www.cardekho.com/overview/Porsche_Panamera/Porsche_Panamera_GTS.htm'
p2317
sS'Porsche Panamera Diesel'
p2318
S'https://www.cardekho.com/overview/Porsche_Panamera/Porsche_Panamera_Diesel.htm'
p2319
sS'Mercedes-Benz E-Class E400 Cabriolet'
p2320
S'https://www.cardekho.com/overview/Mercedes-Benz_E-Class/Mercedes-Benz_E-Class_E400_Cabriolet.htm'
p2321
sS'Volvo S60 D4 Momentum'
p2322
S'https://www.cardekho.com/overview/Volvo_S60/Volvo_S60_D4_Momentum.htm'
p2323
sS'BMW 3 Series 320i Luxury Line'
p2324
S'https://www.cardekho.com/overview/BMW_3_Series/BMW_3_Series_320i_Luxury_Line.htm'
p2325
sS'BMW 5 Series 520i Luxury Line'
p2326
S'https://www.cardekho.com/overview/BMW_5_Series/BMW_5_Series_520i_Luxury_Line.htm'
p2327
sS'BMW 5 Series 520d M Sport'
p2328
S'https://www.cardekho.com/overview/BMW_5_Series/BMW_5_Series_520d_M_Sport.htm'
p2329
sS'Volvo S60 D4 KINETIC'
p2330
S'https://www.cardekho.com/overview/Volvo_S60/Volvo_S60_D4_KINETIC.htm'
p2331
sS'Mercedes-Benz C-Class C 220 CDI Style'
p2332
S'https://www.cardekho.com/overview/Mercedes-Benz_New_C-Class/Mercedes-Benz_New_C-Class_C_220_CDI_Style.htm'
p2333
sS'BMW 7 Series 730Ld Design Pure Excellence'
p2334
S'https://www.cardekho.com/overview/BMW_7_Series/BMW_7_Series_730Ld_Design_Pure_Excellence.htm'
p2335
sS'Audi A6 35 TDI Matrix Edition'
p2336
S'https://www.cardekho.com/overview/Audi_A6/Audi_A6_35_TDI.htm'
p2337
sS'Audi A8 L 60 TFSI Quattro'
p2338
S'https://www.cardekho.com/overview/Audi_A8/Audi_A8_L_60_TFSI_Quattro.htm'
p2339
sS'Jaguar XE Prestige'
p2340
S'https://www.cardekho.com/overview/Jaguar_XE/Jaguar_XE_Prestige.htm'
p2341
sS'Mercedes-Benz E-Class E250 Edition E'
p2342
S'https://www.cardekho.com/overview/Mercedes-Benz_E-Class/Mercedes-Benz_E-Class_E250_Edition_E.htm'
p2343
sS'Bentley Flying Spur W12'
p2344
S'https://www.cardekho.com/overview/Bentley_Flying_Spur/Bentley_Flying_Spur_W12.htm'
p2345
sS'Volvo S60 Cross Country Inscription D4 AWD'
p2346
S'https://www.cardekho.com/overview/Volvo_S60_Cross_Country/Volvo_S60_Cross_Country_D4_AWD.htm'
p2347
sS'BMW 3 Series 320d Prestige'
p2348
S'https://www.cardekho.com/overview/BMW_3_Series/BMW_3_Series_320d.htm'
p2349
sS'Mercedes-Benz S-Class S400'
p2350
S'https://www.cardekho.com/overview/Mercedes-Benz_S-Class/Mercedes-Benz_S-Class_S400.htm'
p2351
sS'Rolls Royce Phantom Drophead Coupe'
p2352
S'https://www.cardekho.com/overview/Rolls-Royce_Phantom/Rolls-Royce_Phantom_Drophead_Coupe.htm'
p2353
sS'Audi RS6 Avant 4.0 TFSI'
p2354
S'https://www.cardekho.com/overview/Audi_RS6/Audi_RS6_4.0_TFSI.htm'
p2355
sS'BMW M Series M4 Coupe'
p2356
S'https://www.cardekho.com/overview/BMW_M_Series/BMW_M_Series_M4_Coupe.htm'
p2357
sS'BMW 3 Series 320d M Sport'
p2358
S'https://www.cardekho.com/overview/BMW_3_Series/BMW_3_Series_320d_M_Sport.htm'
p2359
sS'BMW 7 Series 750Li Design Pure Excellence CBU'
p2360
S'https://www.cardekho.com/overview/BMW_7_Series/BMW_7_Series_750Li_Design_Pure_Excellence_CBU.htm'
p2361
sS'Audi A8 L 50 TDI Quattro'
p2362
S'https://www.cardekho.com/overview/Audi_A8/Audi_A8_L_50_TDI_Quattro.htm'
p2363
sS'BMW 5 Series 520d Luxury Line'
p2364
S'https://www.cardekho.com/overview/BMW_5_Series/BMW_5_Series_520d_Luxury_Line.htm'
p2365
sS'Mercedes-Benz E-Class E350 Edition E'
p2366
S'https://www.cardekho.com/overview/Mercedes-Benz_E-Class/Mercedes-Benz_E-Class_E350_Edition_E.htm'
p2367
sS'BMW M Series M6 Gran Coupe'
p2368
S'https://www.cardekho.com/overview/BMW_M_Series/BMW_M_Series_M6_Gran_Coupe.htm'
p2369
sS'Rolls Royce Ghost Series II Standard'
p2370
S'https://www.cardekho.com/overview/Rolls-Royce_Ghost/Rolls-Royce_Ghost_Series_II_Standard.htm'
p2371
sS'Porsche Panamera Turbo S'
p2372
S'https://www.cardekho.com/overview/Porsche_Panamera/Porsche_Panamera_Turbo_S.htm'
p2373
sS'Rolls Royce Phantom Extended Wheelbase'
p2374
S'https://www.cardekho.com/overview/Rolls-Royce_Phantom/Rolls-Royce_Phantom_Extended_Wheelbase.htm'
p2375
sS'BMW 6 Series 640d Design Pure Experience'
p2376
S'https://www.cardekho.com/overview/BMW_6_Series/BMW_6_Series_640d_Design_Pure_Experience.htm'
p2377
sS'Volvo S80 D5'
p2378
S'https://www.cardekho.com/overview/Volvo_S_80/Volvo_S_80_D5.htm'
p2379
sS'Volvo S80 D4'
p2380
S'https://www.cardekho.com/overview/Volvo_S_80/Volvo_S_80_D4.htm'
p2381
sS'Mercedes-Benz C-Class C 200 CGI'
p2382
S'https://www.cardekho.com/overview/Mercedes-Benz_New_C-Class/Mercedes-Benz_New_C-Class_C_200_CGI.htm'
p2383
sS'Volvo S60 D5 Inscription'
p2384
S'https://www.cardekho.com/overview/Volvo_S60/Volvo_S60_D5_Inscription.htm'
p2385
sS'BMW 7 Series 730Ld M Sport'
p2386
S'https://www.cardekho.com/overview/BMW_7_Series/BMW_7_Series_730Ld_M_Sport.htm'
p2387
sS'Mercedes-Benz E-Class E 63 AMG'
p2388
S'https://www.cardekho.com/overview/Mercedes-Benz_E-Class/Mercedes-Benz_E-Class_E_63_AMG.htm'
p2389
sS'Mercedes-Benz S-Class S 350 CDI'
p2390
S'https://www.cardekho.com/overview/Mercedes-Benz_S-Class/Mercedes-Benz_S-Class_S_350_CDI.htm'
p2391
sS'Jaguar XJ 3.0L Premium Luxury'
p2392
S'https://www.cardekho.com/overview/Jaguar_XJ/Jaguar_XJ_3.0L_Premium_Luxury.htm'
p2393
sS'Porsche Panamera Diesel 250hp'
p2394
S'https://www.cardekho.com/overview/Porsche_Panamera/Porsche_Panamera_Diesel_250hp.htm'
p2395
sS'Mercedes-Benz E-Class E200 Edition E'
p2396
S'https://www.cardekho.com/overview/Mercedes-Benz_E-Class/Mercedes-Benz_E-Class_E200_Edition_E.htm'
p2397
sS'BMW 5 Series 530d M Sport'
p2398
S'https://www.cardekho.com/overview/BMW_5_Series/BMW_5_Series_530d_M_Sport.htm'
p2399
sS'Mercedes-Benz S-Class S Guard'
p2400
S'https://www.cardekho.com/overview/Mercedes-Benz_S-Class/Mercedes-Benz_S-Class_S_Guard.htm'
p2401
sS'BMW 3 Series 320d Sport Line'
p2402
S'https://www.cardekho.com/overview/BMW_3_Series/BMW_3_Series_320d_Sport.htm'
p2403
sS'Mercedes-Benz S-Class S 500 Coupe'
p2404
S'https://www.cardekho.com/overview/Mercedes-Benz_S-Class/Mercedes-Benz_S-Class_S_500_Coupe.htm'
p2405
sS'Jaguar XE Pure'
p2406
S'https://www.cardekho.com/overview/Jaguar_XE/Jaguar_XE_Pure.htm'
p2407
sS'Jaguar XF R Supercharged 5.0 Litre V8 Petrol'
p2408
S'https://www.cardekho.com/overview/Jaguar_XF/Jaguar_XF_R_Supercharged_5.0_Litre_V8_Petrol.htm'
p2409
sS'Jaguar XF 2.0 Diesel Pure'
p2410
S'https://www.cardekho.com/overview/Jaguar_XF/Jaguar_XF_2.0_Diesel_Pure.htm'
p2411
sS'BMW 5 Series 520d Prestige Plus'
p2412
S'https://www.cardekho.com/overview/BMW_5_Series/BMW_5_Series_520d_Prestige_Plus.htm'
p2413
sS'Mercedes-Benz S-Class Maybach S600 Guard'
p2414
S'https://www.cardekho.com/overview/Mercedes-Benz_S-Class/Mercedes-Benz_S-Class_Maybach_S600_Guard.htm'
p2415
sS'BMW M Series M3 Sedan'
p2416
S'https://www.cardekho.com/overview/BMW_M_Series/BMW_M_Series_M3_Sedan.htm'
p2417
sS'BMW 6 Series 640d Eminence'
p2418
S'https://www.cardekho.com/overview/BMW_6_Series/BMW_6_Series_640d_Eminence.htm'
p2419
sS'BMW M Series M5 Sedan'
p2420
S'https://www.cardekho.com/overview/BMW_M_Series/BMW_M_Series_M5_Sedan.htm'
p2421
sS'Jaguar XF 2.0 Diesel Portfolio'
p2422
S'https://www.cardekho.com/overview/Jaguar_XF/Jaguar_XF_2.0_Diesel_Portfolio.htm'
p2423
sS'Rolls Royce Phantom Series II'
p2424
S'https://www.cardekho.com/overview/Rolls-Royce_Phantom/Rolls-Royce_Phantom_Phantom.htm'
p2425
sS'Rolls Royce Ghost Series II Extended Wheelbase'
p2426
S'https://www.cardekho.com/overview/Rolls-Royce_Ghost/Rolls-Royce_Ghost_Series_II_Extended_Wheelbase.htm'
p2427
sS'Mercedes-Benz C-Class C 63 S AMG'
p2428
S'https://www.cardekho.com/overview/Mercedes-Benz_New_C-Class/Mercedes-Benz_New_C-Class_C_63_S_AMG.htm'
p2429
sS'Maserati Quattroporte GTS'
p2430
S'https://www.cardekho.com/overview/Maserati_Quattroporte/Maserati_Quattroporte_GTS.htm'
p2431
sS'Audi A8 L 50 TDI Quattro Premium Plus'
p2432
S'https://www.cardekho.com/overview/Audi_A8/Audi_A8_L_50_TDI_Quattro_Premium_Plus.htm'
p2433
sS'Audi RS7 Sportback'
p2434
S'https://www.cardekho.com/overview/Audi_RS7/Audi_RS7_Sportback.htm'
p2435
sS'Mercedes-Benz S-Class S 63 AMG'
p2436
S'https://www.cardekho.com/overview/Mercedes-Benz_S-Class/Mercedes-Benz_S-Class_S_63_AMG.htm'
p2437
sS'Mercedes-Benz C-Class C 220 CDI Avantgarde'
p2438
S'https://www.cardekho.com/overview/Mercedes-Benz_New_C-Class/Mercedes-Benz_New_C-Class_C_220_CDI_Avantgarde.htm'
p2439
sS'Audi A6 35 TFSI Matrix'
p2440
S'https://www.cardekho.com/overview/Audi_A6/Audi_A6_35_TFSI_Matrix.htm'
p2441
sS'Mercedes-Benz E-Class E 200 CGI'
p2442
S'https://www.cardekho.com/overview/Mercedes-Benz_E-Class/Mercedes-Benz_E-Class_E_200_CGI.htm'
p2443
sS'Jaguar XJ 2.0L Portfolio'
p2444
S'https://www.cardekho.com/overview/Jaguar_XJ/Jaguar_XJ_2.0L_Portfolio.htm'
p2445
sS'Volvo S60 T6'
p2446
S'https://www.cardekho.com/overview/Volvo_S60/Volvo_S60_T6.htm'
p2447
sS'Porsche Panamera Base'
p2448
S'https://www.cardekho.com/overview/Porsche_Panamera/Porsche_Panamera_Base.htm'
p2449
sS'Bentley Flying Spur V8'
p2450
S'https://www.cardekho.com/overview/Bentley_Flying_Spur/Bentley_Flying_Spur_V8.htm'
p2451
sS'Bentley Mulsanne 6.8'
p2452
S'https://www.cardekho.com/overview/Bentley_Mulsanne/Bentley_Mulsanne_6.8.htm'
p2453
sS'Jaguar XJ 3.0L Portfolio'
p2454
S'https://www.cardekho.com/overview/Jaguar_XJ/Jaguar_XJ_3.0L_Portfolio.htm'
p2455
sS'Jaguar XE Portfolio'
p2456
S'https://www.cardekho.com/overview/Jaguar_XE/Jaguar_XE_Portfolio.htm'
p2457
sS'BMW M Series X5 M'
p2458
S'https://www.cardekho.com/overview/BMW_M_Series/BMW_M_Series_X5_M.htm'
p2459
sS'Mercedes-Benz S-Class S 63 AMG Coupe'
p2460
S'https://www.cardekho.com/overview/Mercedes-Benz_S-Class/Mercedes-Benz_S-Class_S_63_AMG_Coupe.htm'
p2461
sS'Rolls Royce Phantom Coupe'
p2462
S'https://www.cardekho.com/overview/Rolls-Royce_Phantom/Rolls-Royce_Phantom_Coupe.htm'
p2463
ssg394
(dp2464
S'Tata Bolt Revotron XE'
p2465
S'https://www.cardekho.com/overview/Tata_Bolt/Tata_Bolt_Revotron_XE.htm'
p2466
sS'Ford Figo 1.5P Titanium AT'
p2467
S'https://www.cardekho.com/overview/Ford_Figo/Ford_Figo_1.5P_Titanium_AT.htm'
p2468
sS'Maruti Wagon R Stingray LXI'
p2469
S'https://www.cardekho.com/overview/Maruti_Wagon_R_Stingray/Maruti_Wagon_R_Stingray_LXI.htm'
p2470
sS'Datsun GO D'
p2471
S'https://www.cardekho.com/overview/Datsun_GO/Datsun_GO_D.htm'
p2472
sS'Ford Figo 1.5D Trend MT'
p2473
S'https://www.cardekho.com/overview/Ford_Figo/Ford_Figo_1.5D_Trend_MT.htm'
p2474
sS'Hyundai Grand i10 Magna'
p2475
S'https://www.cardekho.com/overview/Hyundai_Grand_i10/Hyundai_Grand_i10_Magna.htm'
p2476
sS'Maruti Baleno 1.3 Zeta'
p2477
S'https://www.cardekho.com/overview/Maruti_Baleno/Maruti_Baleno_1.3_Zeta.htm'
p2478
sS'Datsun GO A'
p2479
S'https://www.cardekho.com/overview/Datsun_GO/Datsun_GO_A.htm'
p2480
sS'Hyundai Grand i10 Magna AT'
p2481
S'https://www.cardekho.com/overview/Hyundai_Grand_i10/Hyundai_Grand_i10_Magna_AT.htm'
p2482
sS'Volkswagen Polo 1.2 MPI Trendline'
p2483
S'https://www.cardekho.com/overview/Volkswagen_Polo/Volkswagen_Polo_1.2_MPI_Trendline.htm'
p2484
sS'Tata Bolt Revotron XT'
p2485
S'https://www.cardekho.com/overview/Tata_Bolt/Tata_Bolt_Revotron_XT.htm'
p2486
sS'Hyundai Grand i10 CRDi Sportz Celebration Edition'
p2487
S'https://www.cardekho.com/overview/Hyundai_Grand_i10/Hyundai_Grand_i10_CRDi_Sportz_Celebration_Edition.htm'
p2488
sS'Maruti Celerio VDi'
p2489
S'https://www.cardekho.com/overview/Maruti_Celerio/Maruti_Celerio_VDi.htm'
p2490
sS'Tata Bolt Quadrajet XE'
p2491
S'https://www.cardekho.com/overview/Tata_Bolt/Tata_Bolt_Quadrajet_XE.htm'
p2492
sS'Datsun GO T'
p2493
S'https://www.cardekho.com/overview/Datsun_GO/Datsun_GO_T.htm'
p2494
sS'Tata Tiago 1.05 Revotorq XZ WO Alloy'
p2495
S'https://www.cardekho.com/overview/Tata_Tiago/Tata_Tiago_1.05_Revotorq_XZ_WO_Alloy.htm'
p2496
sS'Ford Figo 1.5D Titanium MT'
p2497
S'https://www.cardekho.com/overview/Ford_Figo/Ford_Figo_1.5D_Titanium_MT.htm'
p2498
sS'Chevrolet Sail Hatchback 1.3 TCDi LS ABS'
p2499
S'https://www.cardekho.com/overview/Chevrolet_Sail_Hatchback/Chevrolet_Sail_Hatchback_1.3_TCDi_LS_ABS.htm'
p2500
sS'Chevrolet Beat LT'
p2501
S'https://www.cardekho.com/overview/Chevrolet_Beat/Chevrolet_Beat_LT.htm'
p2502
sS'Honda Jazz 1.2 S AT i VTEC'
p2503
S'https://www.cardekho.com/overview/Honda_Jazz/Honda_Jazz_1.2_S_AT_i_VTEC.htm'
p2504
sS'Tata Tiago 1.2 Revotron XZ WO Alloy'
p2505
S'https://www.cardekho.com/overview/Tata_Tiago/Tata_Tiago_1.2_Revotron_XZ_WO_Alloy.htm'
p2506
sS'Hyundai Elite i20 Sportz 1.4 CRDi'
p2507
S'https://www.cardekho.com/overview/Hyundai_i20/Hyundai_i20_Sportz_1.4_CRDi.htm'
p2508
sS'Maruti Alto 800 VXI Optional'
p2509
S'https://www.cardekho.com/overview/Maruti_Alto_800/Maruti_Alto_800_VXI_Optional.htm'
p2510
sS'Fiat Avventura Power Up 1.3 Dynamic'
p2511
S'https://www.cardekho.com/overview/Fiat_Avventura/Fiat_Avventura_Power_Up_1.3_Dynamic.htm'
p2512
sS'Honda Jazz 1.5 S i DTEC'
p2513
S'https://www.cardekho.com/overview/Honda_Jazz/Honda_Jazz_1.5_S_i_DTEC.htm'
p2514
sS'Fiat Avventura Urban Cross 1.4 T-Jet Emotion'
p2515
S'https://www.cardekho.com/overview/Fiat_Avventura_Urban_Cross/Fiat_Avventura_Urban_Cross_1.4_T-Jet_Emotion.htm'
p2516
sS'Datsun Redi GO Sport'
p2517
S'https://www.cardekho.com/overview/Datsun_RediGO/Datsun_RediGO_Sport.htm'
p2518
sS'Chevrolet Sail Hatchback 1.2 LS'
p2519
S'https://www.cardekho.com/overview/Chevrolet_Sail_Hatchback/Chevrolet_Sail_Hatchback_1.2_LS.htm'
p2520
sS'Volkswagen Beetle 1.4 TSI'
p2521
S'https://www.cardekho.com/overview/Volkswagen_Beetle/Volkswagen_Beetle_1.4_TSI.htm'
p2522
sS'Hyundai i20 Active 1.2'
p2523
S'https://www.cardekho.com/overview/Hyundai_i20_Active/Hyundai_i20_Active_1.2.htm'
p2524
sS'Honda Brio 1.2 E MT'
p2525
S'https://www.cardekho.com/overview/Honda_Brio/Honda_Brio_1.2_E_MT.htm'
p2526
sS'Volkswagen CrossPolo 1.2 MPI'
p2527
S'https://www.cardekho.com/overview/Volkswagen_CrossPolo/Volkswagen_CrossPolo_1.2_MPI.htm'
p2528
sS'Toyota Etios Cross 1.2L G'
p2529
S'https://www.cardekho.com/overview/Toyota_Etios_Cross/Toyota_Etios_Cross_1.2L_G.htm'
p2530
sS'Volkswagen Polo Select 1.5 TDI Highline'
p2531
S'https://www.cardekho.com/overview/Volkswagen_Polo/Volkswagen_Polo_Select_1.5_TDI_Highline.htm'
p2532
sS'Renault KWID 1.0 RXT Optional'
p2533
S'https://www.cardekho.com/overview/Renault_KWID/Renault_KWID_1.0_RXT_Optional.htm'
p2534
sS'Maruti Wagon R AMT VXI'
p2535
S'https://www.cardekho.com/overview/Maruti_Wagon_R/Maruti_Wagon_R_AMT_VXI.htm'
p2536
sS'Toyota Etios Liva 1.2 V'
p2537
S'https://www.cardekho.com/overview/Toyota_Etios_Liva/Toyota_Etios_Liva_1.2_V.htm'
p2538
sS'Maruti Celerio ZDi'
p2539
S'https://www.cardekho.com/overview/Maruti_Celerio/Maruti_Celerio_ZDi.htm'
p2540
sS'Hyundai Elite i20 Asta Option 1.4 CRDi'
p2541
S'https://www.cardekho.com/overview/Hyundai_i20/Hyundai_i20_Asta_Option_1.4_CRDi.htm'
p2542
sS'Maruti Wagon R VXI'
p2543
S'https://www.cardekho.com/overview/Maruti_Wagon_R/Maruti_Wagon_R_VXI_BS_IV.htm'
p2544
sS'Hyundai Grand i10 CRDi Era'
p2545
S'https://www.cardekho.com/overview/Hyundai_Grand_i10/Hyundai_Grand_i10_CRDi_Era.htm'
p2546
sS'Nissan Micra XV CVT'
p2547
S'https://www.cardekho.com/overview/Nissan_Micra/Nissan_Micra_AT.htm'
p2548
sS'Maruti Alto K10 LXI CNG Optional'
p2549
S'https://www.cardekho.com/overview/Maruti_Alto_K10/Maruti_Alto_K10_LXI_CNG_Optional.htm'
p2550
sS'Nissan Micra Active XL'
p2551
S'https://www.cardekho.com/overview/Nissan_Micra_Active/Nissan_Micra_Active_XL.htm'
p2552
sS'Maruti Alto K10 LXI'
p2553
S'https://www.cardekho.com/overview/Maruti_Alto_K10/Maruti_Alto_K10_LXI.htm'
p2554
sS'Fiat Punto EVO Power UP 1.3 Emotion'
p2555
S'https://www.cardekho.com/overview/Fiat_Grande_Punto/Fiat_Grande_Punto_EVO_Power_UP_1.3_Emotion.htm'
p2556
sS'Chevrolet Spark 1.0'
p2557
S'https://www.cardekho.com/overview/Chevrolet_Spark/Chevrolet_Spark_1.0.htm'
p2558
sS'Hyundai i20 Active 1.4'
p2559
S'https://www.cardekho.com/overview/Hyundai_i20_Active/Hyundai_i20_Active_1.4.htm'
p2560
sS'Renault KWID STD'
p2561
S'https://www.cardekho.com/overview/Renault_KWID/Renault_KWID_STD.htm'
p2562
sS'Tata Tiago 1.2 Revotron XT Option'
p2563
S'https://www.cardekho.com/overview/Tata_Tiago/Tata_Tiago_1.2_Revotron_XT_Option.htm'
p2564
sS'Maruti Ritz LXi'
p2565
S'https://www.cardekho.com/overview/Maruti_Ritz/Maruti_Ritz_LXi.htm'
p2566
sS'Hyundai Elite i20 Asta Option 1.2'
p2567
S'https://www.cardekho.com/overview/Hyundai_i20/Hyundai_i20_Asta_Option_1.2.htm'
p2568
sS'Maruti Wagon R Stingray AMT VXI Optional'
p2569
S'https://www.cardekho.com/overview/Maruti_Wagon_R_Stingray/Maruti_Wagon_R_Stingray_AMT_VXI_Optional.htm'
p2570
sS'Hyundai Elite i20 Asta 1.4 CRDi'
p2571
S'https://www.cardekho.com/overview/Hyundai_i20/Hyundai_i20_Asta_1.4_CRDi.htm'
p2572
sS'Maruti Swift VDI'
p2573
S'https://www.cardekho.com/overview/Maruti_Swift/Maruti_Swift_VDI_BS_IV.htm'
p2574
sS'Datsun Redi GO D'
p2575
S'https://www.cardekho.com/overview/Datsun_RediGO/Datsun_RediGO_D.htm'
p2576
sS'Fiat Avventura Urban Cross 1.3 Multijet Active'
p2577
S'https://www.cardekho.com/overview/Fiat_Avventura_Urban_Cross/Fiat_Avventura_Urban_Cross_1.3_Multijet_Active.htm'
p2578
sS'Renault Pulse Petrol RxL'
p2579
S'https://www.cardekho.com/overview/Renault_Pulse/Renault_Pulse_Petrol_RxL.htm'
p2580
sS'Hyundai Grand i10 Sportz Celebration Edition'
p2581
S'https://www.cardekho.com/overview/Hyundai_Grand_i10/Hyundai_Grand_i10_Sportz_Celebration_Edition.htm'
p2582
sS'Honda Jazz 1.5 E i DTEC'
p2583
S'https://www.cardekho.com/overview/Honda_Jazz/Honda_Jazz_1.5_E_i_DTEC.htm'
p2584
sS'Honda Brio 1.2 VX MT'
p2585
S'https://www.cardekho.com/overview/Honda_Brio/Honda_Brio_1.2_VX_MT.htm'
p2586
sS'Maruti Swift LXI'
p2587
S'https://www.cardekho.com/overview/Maruti_Swift/Maruti_Swift_LXI.htm'
p2588
sS'Hyundai Grand i10 Asta Option AT'
p2589
S'https://www.cardekho.com/overview/Hyundai_Grand_i10/Hyundai_Grand_i10_Asta_Option_AT.htm'
p2590
sS'Maruti Ritz ZXi'
p2591
S'https://www.cardekho.com/overview/Maruti_Ritz/Maruti_Ritz_ZXi.htm'
p2592
sS'Tata Tiago 1.05 Revotorq XE Option'
p2593
S'https://www.cardekho.com/overview/Tata_Tiago/Tata_Tiago_1.05_Revotorq_XE_Option.htm'
p2594
sS'Maruti Ritz VXi'
p2595
S'https://www.cardekho.com/overview/Maruti_Ritz/Maruti_Ritz_VXi.htm'
p2596
sS'Tata Indica eV2 eLX'
p2597
S'https://www.cardekho.com/overview/Tata_Indica_V2/Tata_Indica_V2_eLX.htm'
p2598
sS'Chevrolet Beat LTZ'
p2599
S'https://www.cardekho.com/overview/Chevrolet_Beat/Chevrolet_Beat_LTZ.htm'
p2600
sS'Tata Indica eV2 DLX BSIII'
p2601
S'https://www.cardekho.com/overview/Tata_Indica_V2/Tata_Indica_V2_DLX_BSIII.htm'
p2602
sS'Chevrolet Sail Hatchback 1.3 TCDi LT ABS'
p2603
S'https://www.cardekho.com/overview/Chevrolet_Sail_Hatchback/Chevrolet_Sail_Hatchback_1.3_TCDi_LT_ABS.htm'
p2604
sS'Renault KWID 1.0 RXT'
p2605
S'https://www.cardekho.com/overview/Renault_KWID/Renault_KWID_1.0.htm'
p2606
sS'Maruti Celerio VXI AT'
p2607
S'https://www.cardekho.com/overview/Maruti_Celerio/Maruti_Celerio_VXI_AT.htm'
p2608
sS'Datsun Redi GO T Option'
p2609
S'https://www.cardekho.com/overview/Datsun_RediGO/Datsun_RediGO_T_Option.htm'
p2610
sS'Tata Tiago 1.05 Revotorq XM'
p2611
S'https://www.cardekho.com/overview/Tata_Tiago/Tata_Tiago_1.05_Revotorq_XM.htm'
p2612
sS'Honda Jazz 1.5 V i DTEC'
p2613
S'https://www.cardekho.com/overview/Honda_Jazz/Honda_Jazz_1.5_V_i_DTEC.htm'
p2614
sS'Fiat Avventura Power Up 1.3 Emotion'
p2615
S'https://www.cardekho.com/overview/Fiat_Avventura/Fiat_Avventura_Power_Up_1.3_Emotion.htm'
p2616
sS'Tata Tiago 1.05 Revotorq XE'
p2617
S'https://www.cardekho.com/overview/Tata_Tiago/Tata_Tiago_1.05_Revotorq_XE.htm'
p2618
sS'Tata Tiago 1.2 Revotron XM Option'
p2619
S'https://www.cardekho.com/overview/Tata_Tiago/Tata_Tiago_1.2_Revotron_XM_Option.htm'
p2620
sS'Maruti Wagon R Stingray LXI Optional'
p2621
S'https://www.cardekho.com/overview/Maruti_Wagon_R_Stingray/Maruti_Wagon_R_Stingray_LXI_Optional.htm'
p2622
sS'Tata Tiago 1.05 Revotorq XB'
p2623
S'https://www.cardekho.com/overview/Tata_Tiago/Tata_Tiago_1.05_Revotorq_XB.htm'
p2624
sS'Maruti Alto 800 VXI'
p2625
S'https://www.cardekho.com/overview/Maruti_Alto_800/Maruti_Alto_800_VXI.htm'
p2626
sS'Maruti Alto K10 VXI'
p2627
S'https://www.cardekho.com/overview/Maruti_Alto_K10/Maruti_Alto_K10_VXI.htm'
p2628
sS'Renault KWID RXT Driver Airbag Option'
p2629
S'https://www.cardekho.com/overview/Renault_KWID/Renault_KWID_RXT_Optional.htm'
p2630
sS'Maruti Swift VXI Glory Limited Edition'
p2631
S'https://www.cardekho.com/overview/Maruti_Swift/Maruti_Swift_VXI_Glory_Limited_Edition.htm'
p2632
sS'Volkswagen Polo 1.5 TDI Comfortline'
p2633
S'https://www.cardekho.com/overview/Volkswagen_Polo/Volkswagen_Polo_1.5_TDI_Comfortline.htm'
p2634
sS'Tata Tiago 1.05 Revotorq XZ'
p2635
S'https://www.cardekho.com/overview/Tata_Tiago/Tata_Tiago_1.05_Revotorq_XZ.htm'
p2636
sS'Fiat Punto Pure 1.3L Advanced Multi-Jet'
p2637
S'https://www.cardekho.com/overview/Fiat_Punto_Pure/Fiat_Punto_Pure_1.3L_Advanced_Multi-Jet.htm'
p2638
sS'Tata Tiago 1.05 Revotorq XT'
p2639
S'https://www.cardekho.com/overview/Tata_Tiago/Tata_Tiago_1.05_Revotorq_XT.htm'
p2640
sS'Chevrolet Beat Diesel LT'
p2641
S'https://www.cardekho.com/overview/Chevrolet_Beat/Chevrolet_Beat_Diesel_LT.htm'
p2642
sS'Nissan Micra Diesel XL Optional'
p2643
S'https://www.cardekho.com/overview/Nissan_Micra/Nissan_Micra_Diesel_XL_Optional.htm'
p2644
sS'Maruti Celerio ZDi Option'
p2645
S'https://www.cardekho.com/overview/Maruti_Celerio/Maruti_Celerio_ZDi_Option.htm'
p2646
sS'Chevrolet Beat Diesel LS'
p2647
S'https://www.cardekho.com/overview/Chevrolet_Beat/Chevrolet_Beat_Diesel_LS.htm'
p2648
sS'Hyundai Elite i20 Magna 1.4 CRDi'
p2649
S'https://www.cardekho.com/overview/Hyundai_i20/Hyundai_i20_Magna_1.4_CRDi.htm'
p2650
sS'Tata Tiago 1.05 Revotorq XT Option'
p2651
S'https://www.cardekho.com/overview/Tata_Tiago/Tata_Tiago_1.05_Revotorq_XT_Option.htm'
p2652
sS'Fiat Abarth Avventura 1.4 T-Jet'
p2653
S'https://www.cardekho.com/overview/Fiat_Abarth_Avventura/Fiat_Abarth_Avventura_1.4_T-Jet.htm'
p2654
sS'Hyundai i20 Active 1.2 S'
p2655
S'https://www.cardekho.com/overview/Hyundai_i20_Active/Hyundai_i20_Active_1.2_S.htm'
p2656
sS'Maruti Ritz VDi'
p2657
S'https://www.cardekho.com/overview/Maruti_Ritz/Maruti_Ritz_VDi.htm'
p2658
sS'Maruti Celerio LXI Optional'
p2659
S'https://www.cardekho.com/overview/Maruti_Celerio/Maruti_Celerio_LXI_Optional.htm'
p2660
sS'Volvo V40 Cross Country T4'
p2661
S'https://www.cardekho.com/overview/Volvo_V40_Cross_Country/Volvo_V40_Cross_Country_T4.htm'
p2662
sS'Maruti Ritz VXi (ABS)'
p2663
S'https://www.cardekho.com/overview/Maruti_Ritz/Maruti_Ritz_VXi_(ABS)_BS_IV.htm'
p2664
sS'Maruti Swift ZXI'
p2665
S'https://www.cardekho.com/overview/Maruti_Swift/Maruti_Swift_ZXI.htm'
p2666
sS'Nissan Micra Diesel XL'
p2667
S'https://www.cardekho.com/overview/Nissan_Micra/Nissan_Micra_Diesel_XL.htm'
p2668
sS'Hyundai EON 1.0 Kappa Magna Plus Optional'
p2669
S'https://www.cardekho.com/overview/Hyundai_EON/Hyundai_EON_1.0_Kappa_Magna_Plus_Optional.htm'
p2670
sS'Hyundai Grand i10 CRDi Magna'
p2671
S'https://www.cardekho.com/overview/Hyundai_Grand_i10/Hyundai_Grand_i10_CRDi_Magna.htm'
p2672
sS'Maruti Swift 1.3 DLX'
p2673
S'https://www.cardekho.com/overview/Maruti_Swift/Maruti_Swift_1.3_DLX.htm'
p2674
sS'Hyundai i10 Sportz 1.1L'
p2675
S'https://www.cardekho.com/overview/Hyundai_i10/Hyundai_i10_Sportz_1.1L.htm'
p2676
sS'Maruti Celerio Green VXI'
p2677
S'https://www.cardekho.com/overview/Maruti_Celerio/Maruti_Celerio_Green_VXI.htm'
p2678
sS'Maruti Baleno 1.2 CVT Zeta'
p2679
S'https://www.cardekho.com/overview/Maruti_Baleno/Maruti_Baleno_1.2_CVT_Zeta.htm'
p2680
sS'Mini 5 DOOR Cooper D'
p2681
S'https://www.cardekho.com/overview/Mini_5_DOOR/Mini_5_DOOR_Cooper_D.htm'
p2682
sS'Ford Figo 1.2P Base MT'
p2683
S'https://www.cardekho.com/overview/Ford_Figo/Ford_Figo_1.2P_Base_MT.htm'
p2684
sS'Hyundai i10 Magna 1.1L'
p2685
S'https://www.cardekho.com/overview/Hyundai_i10/Hyundai_i10_Magna_1.1L.htm'
p2686
sS'Datsun GO T Option'
p2687
S'https://www.cardekho.com/overview/Datsun_GO/Datsun_GO_T_Option.htm'
p2688
sS'Maruti Celerio ZXI Optional'
p2689
S'https://www.cardekho.com/overview/Maruti_Celerio/Maruti_Celerio_ZXI_Optional.htm'
p2690
sS'Mini 3 DOOR Cooper D'
p2691
S'https://www.cardekho.com/overview/Mini_3_DOOR/Mini_3_DOOR_Cooper_D.htm'
p2692
sS'Toyota Etios Liva 1.4 VD'
p2693
S'https://www.cardekho.com/overview/Toyota_Etios_Liva/Toyota_Etios_Liva_1.4_VD.htm'
p2694
sS'Maruti Swift VXI Deca'
p2695
S'https://www.cardekho.com/overview/Maruti_Swift/Maruti_Swift_VXI_Deca.htm'
p2696
sS'Hyundai i20 Active 1.4 SX with AVN'
p2697
S'https://www.cardekho.com/overview/Hyundai_i20_Active/Hyundai_i20_Active_1.4_SX_with_AVN.htm'
p2698
sS'Tata Bolt Quadrajet XMS'
p2699
S'https://www.cardekho.com/overview/Tata_Bolt/Tata_Bolt_Quadrajet_XMS.htm'
p2700
sS'Mini 3 DOOR Cooper S'
p2701
S'https://www.cardekho.com/overview/Mini_3_DOOR/Mini_3_DOOR_Cooper_S.htm'
p2702
sS'Maruti Swift LDI Optional'
p2703
S'https://www.cardekho.com/overview/Maruti_Swift/Maruti_Swift_LDI_Optional.htm'
p2704
sS'Chevrolet Beat PS'
p2705
S'https://www.cardekho.com/overview/Chevrolet_Beat/Chevrolet_Beat_PS.htm'
p2706
sS'Maruti Celerio LXI'
p2707
S'https://www.cardekho.com/overview/Maruti_Celerio/Maruti_Celerio_LXI.htm'
p2708
sS'Ford Figo 1.5D Titanium Plus MT'
p2709
S'https://www.cardekho.com/overview/Ford_Figo/Ford_Figo_1.5D_Titanium_Plus_MT.htm'
p2710
sS'Fiat Punto EVO Power Up 1.2 Dynamic'
p2711
S'https://www.cardekho.com/overview/Fiat_Grande_Punto/Fiat_Grande_Punto_EVO_Power_Up_1.2_Dynamic.htm'
p2712
sS'Chevrolet Sail Hatchback 1.3 TCDi LS'
p2713
S'https://www.cardekho.com/overview/Chevrolet_Sail_Hatchback/Chevrolet_Sail_Hatchback_1.3_TCDi_LS.htm'
p2714
sS'Hyundai Grand i10 Asta Option'
p2715
S'https://www.cardekho.com/overview/Hyundai_Grand_i10/Hyundai_Grand_i10_Asta_Option.htm'
p2716
sS'Maruti Baleno 1.2 CVT Delta'
p2717
S'https://www.cardekho.com/overview/Maruti_Baleno/Maruti_Baleno_1.2_CVT_Delta.htm'
p2718
sS'Tata Tiago 1.2 Revotron XE'
p2719
S'https://www.cardekho.com/overview/Tata_Tiago/Tata_Tiago_1.2_Revotron_XE.htm'
p2720
sS'Tata Tiago 1.2 Revotron XB'
p2721
S'https://www.cardekho.com/overview/Tata_Tiago/Tata_Tiago_1.2_Revotron_XB.htm'
p2722
sS'Toyota Etios Cross 1.5L V'
p2723
S'https://www.cardekho.com/overview/Toyota_Etios_Cross/Toyota_Etios_Cross_1.5L_V.htm'
p2724
sS'Volkswagen CrossPolo 1.5 TDI'
p2725
S'https://www.cardekho.com/overview/Volkswagen_CrossPolo/Volkswagen_CrossPolo_1.5_TDI.htm'
p2726
sS'Maruti Celerio ZXI AT'
p2727
S'https://www.cardekho.com/overview/Maruti_Celerio/Maruti_Celerio_ZXI_AT.htm'
p2728
sS'Honda Brio 1.2 S MT'
p2729
S'https://www.cardekho.com/overview/Honda_Brio/Honda_Brio_1.2_S_MT.htm'
p2730
sS'Tata Tiago 1.2 Revotron XM'
p2731
S'https://www.cardekho.com/overview/Tata_Tiago/Tata_Tiago_1.2_Revotron_XM.htm'
p2732
sS'Renault Pulse RxZ'
p2733
S'https://www.cardekho.com/overview/Renault_Pulse/Renault_Pulse_RxZ.htm'
p2734
sS'Tata Bolt Revotron XMS'
p2735
S'https://www.cardekho.com/overview/Tata_Bolt/Tata_Bolt_Revotron_XMS.htm'
p2736
sS'Maruti Swift LDI'
p2737
S'https://www.cardekho.com/overview/Maruti_Swift/Maruti_Swift_LDI_BSIV.htm'
p2738
sS'Tata Tiago 1.2 Revotron XT'
p2739
S'https://www.cardekho.com/overview/Tata_Tiago/Tata_Tiago_1.2_Revotron_XT.htm'
p2740
sS'Hyundai Elite i20 Sportz 1.2'
p2741
S'https://www.cardekho.com/overview/Hyundai_i20/Hyundai_i20_Sportz_1.2.htm'
p2742
sS'Maruti Swift ZDi'
p2743
S'https://www.cardekho.com/overview/Maruti_Swift/Maruti_Swift_ZDi.htm'
p2744
sS'Hyundai Elite i20 Era 1.4 CRDi'
p2745
S'https://www.cardekho.com/overview/Hyundai_i20/Hyundai_i20_Era_1.4_CRDi.htm'
p2746
sS'Fiat Abarth Punto EVO 1.4 T-Jet'
p2747
S'https://www.cardekho.com/overview/Fiat_Punto_Abarth/Fiat_Punto_Abarth_1.4_T-Jet.htm'
p2748
sS'Mercedes-Benz A-Class A200 D Sport'
p2749
S'https://www.cardekho.com/overview/Mercedes-Benz_A_Class/Mercedes-Benz_A_Class_A200_D_Sport.htm'
p2750
sS'Hyundai EON Sportz'
p2751
S'https://www.cardekho.com/overview/Hyundai_EON/Hyundai_EON_Sportz.htm'
p2752
sS'Volvo V40 D3 R-Design'
p2753
S'https://www.cardekho.com/overview/Volvo_V40/Volvo_V40_D3_R_Design.htm'
p2754
sS'Tata Tiago 1.2 Revotron XZ'
p2755
S'https://www.cardekho.com/overview/Tata_Tiago/Tata_Tiago_1.2_Revotron_XZ.htm'
p2756
sS'Hyundai Grand i10 CRDi Asta Option'
p2757
S'https://www.cardekho.com/overview/Hyundai_Grand_i10/Hyundai_Grand_i10_CRDi_Asta_Option.htm'
p2758
sS'Hyundai Grand i10 Era'
p2759
S'https://www.cardekho.com/overview/Hyundai_Grand_i10/Hyundai_Grand_i10_Era.htm'
p2760
sS'Hyundai Elite i20 Magna AT 1.4'
p2761
S'https://www.cardekho.com/overview/Hyundai_i20/Hyundai_i20_Magna_AT_1.4.htm'
p2762
sS'Toyota Etios Liva 1.2 GX'
p2763
S'https://www.cardekho.com/overview/Toyota_Etios_Liva/Toyota_Etios_Liva_1.2_G.htm'
p2764
sS'Chevrolet Beat LS'
p2765
S'https://www.cardekho.com/overview/Chevrolet_Beat/Chevrolet_Beat_LS.htm'
p2766
sS'Mahindra e2o T2'
p2767
S'https://www.cardekho.com/overview/Mahindra_e2o/Mahindra_e2o_T2.htm'
p2768
sS'Hyundai i10 Era'
p2769
S'https://www.cardekho.com/overview/Hyundai_i10/Hyundai_i10_Era.htm'
p2770
sS'Maruti Swift VXI'
p2771
S'https://www.cardekho.com/overview/Maruti_Swift/Maruti_Swift_VXI.htm'
p2772
sS'Hyundai EON D Lite'
p2773
S'https://www.cardekho.com/overview/Hyundai_EON/Hyundai_EON_D_Lite.htm'
p2774
sS'Volkswagen Polo 1.2 MPI Comfortline'
p2775
S'https://www.cardekho.com/overview/Volkswagen_Polo/Volkswagen_Polo_1.2_MPI_Comfortline.htm'
p2776
sS'Maruti Ritz LDi'
p2777
S'https://www.cardekho.com/overview/Maruti_Ritz/Maruti_Ritz_LDi.htm'
p2778
sS'Tata Nano CNG XM'
p2779
S'https://www.cardekho.com/overview/Tata_Nano/Tata_Nano_CNG_XM.htm'
p2780
sS'Hyundai EON 1.0 Magna Plus Option O'
p2781
S'https://www.cardekho.com/overview/Hyundai_EON/Hyundai_EON_1.0_Magna_Plus_Option_O.htm'
p2782
sS'Honda Jazz 1.2 VX i VTEC'
p2783
S'https://www.cardekho.com/overview/Honda_Jazz/Honda_Jazz_1.2_VX_i_VTEC.htm'
p2784
sS'Volkswagen Polo GT TSI'
p2785
S'https://www.cardekho.com/overview/Volkswagen_Polo/Volkswagen_Polo_GT_TSI.htm'
p2786
sS'Hyundai i20 Active 1.4 S'
p2787
S'https://www.cardekho.com/overview/Hyundai_i20_Active/Hyundai_i20_Active_1.4_S.htm'
p2788
sS'Hyundai EON Magna Plus Option'
p2789
S'https://www.cardekho.com/overview/Hyundai_EON/Hyundai_EON_Magna_Plus_Option.htm'
p2790
sS'Maruti Alto 800 LXI'
p2791
S'https://www.cardekho.com/overview/Maruti_Alto_800/Maruti_Alto_800_LXI.htm'
p2792
sS'Honda Jazz 1.5 VX i DTEC'
p2793
S'https://www.cardekho.com/overview/Honda_Jazz/Honda_Jazz_1.5_VX_i_DTEC.htm'
p2794
sS'Honda Brio 1.2 VX AT'
p2795
S'https://www.cardekho.com/overview/Honda_Brio/Honda_Brio_1.2_VX_AT.htm'
p2796
sS'Toyota Etios Cross 1.4L VD'
p2797
S'https://www.cardekho.com/overview/Toyota_Etios_Cross/Toyota_Etios_Cross_1.4L_VD.htm'
p2798
sS'Hyundai Elite i20 Magna 1.2'
p2799
S'https://www.cardekho.com/overview/Hyundai_i20/Hyundai_i20_Magna_1.2.htm'
p2800
sS'Honda Jazz 1.2 E i VTEC'
p2801
S'https://www.cardekho.com/overview/Honda_Jazz/Honda_Jazz_1.2_E_i_VTEC.htm'
p2802
sS'Datsun GO A EPS'
p2803
S'https://www.cardekho.com/overview/Datsun_GO/Datsun_GO_A_EPS.htm'
p2804
sS'Tata Tiago 1.05 Revotorq XM Option'
p2805
S'https://www.cardekho.com/overview/Tata_Tiago/Tata_Tiago_1.05_Revotorq_XM_Option.htm'
p2806
sS'Fiat Avventura Power Up 1.3 Active'
p2807
S'https://www.cardekho.com/overview/Fiat_Avventura/Fiat_Avventura_Power_Up_1.3_Active.htm'
p2808
sS'Maruti Alto K10 VXI AGS'
p2809
S'https://www.cardekho.com/overview/Maruti_Alto_K10/Maruti_Alto_K10_VXI_AMT.htm'
p2810
sS'Maruti Alto 800 CNG LXI'
p2811
S'https://www.cardekho.com/overview/Maruti_Alto_800/Maruti_Alto_800_CNG_LXI.htm'
p2812
sS'Tata Nano XMA'
p2813
S'https://www.cardekho.com/overview/Tata_Nano/Tata_Nano_XMA.htm'
p2814
sS'Maruti Wagon R Stingray VXI'
p2815
S'https://www.cardekho.com/overview/Maruti_Wagon_R_Stingray/Maruti_Wagon_R_Stingray_VXI.htm'
p2816
sS'Maruti Swift VDI Glory Limited Edition'
p2817
S'https://www.cardekho.com/overview/Maruti_Swift/Maruti_Swift_VDI_Glory_Limited_Edition.htm'
p2818
sS'Hyundai EON LPG Era Plus'
p2819
S'https://www.cardekho.com/overview/Hyundai_EON/Hyundai_EON_LPG_Era_Plus.htm'
p2820
sS'Nissan Micra XL CVT'
p2821
S'https://www.cardekho.com/overview/Nissan_Micra/Nissan_Micra_XL_CVT.htm'
p2822
sS'Honda Jazz 1.5 SV i DTEC'
p2823
S'https://www.cardekho.com/overview/Honda_Jazz/Honda_Jazz_1.5_SV_i_DTEC.htm'
p2824
sS'Maruti Celerio VDI Optional'
p2825
S'https://www.cardekho.com/overview/Maruti_Celerio/Maruti_Celerio_VDI_Optional.htm'
p2826
sS'Honda Jazz 1.2 V AT i VTEC'
p2827
S'https://www.cardekho.com/overview/Honda_Jazz/Honda_Jazz_1.2_V_AT_i_VTEC.htm'
p2828
sS'Maruti Baleno 1.2 Sigma'
p2829
S'https://www.cardekho.com/overview/Maruti_Baleno/Maruti_Baleno_1.2_Sigma.htm'
p2830
sS'Chevrolet Sail Hatchback 1.2 LS ABS'
p2831
S'https://www.cardekho.com/overview/Chevrolet_Sail_Hatchback/Chevrolet_Sail_Hatchback_1.2_LS_ABS.htm'
p2832
sS'Maruti Baleno 1.3 Alpha'
p2833
S'https://www.cardekho.com/overview/Maruti_Baleno/Maruti_Baleno_1.3_Alpha.htm'
p2834
sS'Tata Tiago 1.2 Revotron XE Option'
p2835
S'https://www.cardekho.com/overview/Tata_Tiago/Tata_Tiago_1.2_Revotron_XE_Option.htm'
p2836
sS'Nissan Micra Active XV'
p2837
S'https://www.cardekho.com/overview/Nissan_Micra_Active/Nissan_Micra_Active_XV.htm'
p2838
sS'Maruti Swift VDI Deca'
p2839
S'https://www.cardekho.com/overview/Maruti_Swift/Maruti_Swift_VDI_Deca.htm'
p2840
sS'Maruti Alto K10 LX'
p2841
S'https://www.cardekho.com/overview/Maruti_Alto_K10/Maruti_Alto_K10_LX.htm'
p2842
sS'Maruti Alto K10 LXI Optional'
p2843
S'https://www.cardekho.com/overview/Maruti_Alto_K10/Maruti_Alto_K10_LXI_Optional.htm'
p2844
sS'Fiat Punto Pure 1.2L FIRE'
p2845
S'https://www.cardekho.com/overview/Fiat_Punto_Pure/Fiat_Punto_Pure_1.2L_FIRE.htm'
p2846
sS'Maruti Alto 800 LX Optional'
p2847
S'https://www.cardekho.com/overview/Maruti_Alto_800/Maruti_Alto_800_LX_Optional.htm'
p2848
sS'Maruti Swift LXI Option'
p2849
S'https://www.cardekho.com/overview/Maruti_Swift/Maruti_Swift_LXI_Option.htm'
p2850
sS'Toyota Etios Liva 1.4 GXD'
p2851
S'https://www.cardekho.com/overview/Toyota_Etios_Liva/Toyota_Etios_Liva_1.4_GD.htm'
p2852
sS'Ford Figo 1.5D Ambiente MT'
p2853
S'https://www.cardekho.com/overview/Ford_Figo/Ford_Figo_1.5D_Ambiente_MT.htm'
p2854
sS'Maruti Celerio VXI Optional'
p2855
S'https://www.cardekho.com/overview/Maruti_Celerio/Maruti_Celerio_VXI_Optional.htm'
p2856
sS'Maruti Baleno 1.2 Zeta'
p2857
S'https://www.cardekho.com/overview/Maruti_Baleno/Maruti_Baleno_1.2_Zeta.htm'
p2858
sS'Tata Indica eV2 eLS'
p2859
S'https://www.cardekho.com/overview/Tata_Indica_V2/Tata_Indica_V2_eLS.htm'
p2860
sS'Maruti Wagon R AMT VXI Option'
p2861
S'https://www.cardekho.com/overview/Maruti_Wagon_R/Maruti_Wagon_R_AMT_VXI_Option.htm'
p2862
sS'Hyundai Elite i20 Era 1.2'
p2863
S'https://www.cardekho.com/overview/Hyundai_i20/Hyundai_i20_Era_1.2.htm'
p2864
sS'Maruti Celerio ZXI AT Optional'
p2865
S'https://www.cardekho.com/overview/Maruti_Celerio/Maruti_Celerio_ZXI_AT_Optional.htm'
p2866
sS'Hyundai EON Era Plus Option'
p2867
S'https://www.cardekho.com/overview/Hyundai_EON/Hyundai_EON_Era_Plus_Option.htm'
p2868
sS'Volkswagen Polo Select 1.2 MPI Highline'
p2869
S'https://www.cardekho.com/overview/Volkswagen_Polo/Volkswagen_Polo_Select_1.2_MPI_Highline.htm'
p2870
sS'Hyundai EON Era Plus'
p2871
S'https://www.cardekho.com/overview/Hyundai_EON/Hyundai_EON_Era_Plus.htm'
p2872
sS'Toyota Etios Cross 1.4L GD'
p2873
S'https://www.cardekho.com/overview/Toyota_Etios_Cross/Toyota_Etios_Cross_1.4L_GD.htm'
p2874
sS'Toyota Etios Liva 1.4 VXD'
p2875
S'https://www.cardekho.com/overview/Toyota_Etios_Liva/Toyota_Etios_Liva_1.4_VXD.htm'
p2876
sS'Toyota Etios Liva 1.2 VX'
p2877
S'https://www.cardekho.com/overview/Toyota_Etios_Liva/Toyota_Etios_Liva_1.2_VX.htm'
p2878
sS'Ford Figo 1.2P Titanium MT'
p2879
S'https://www.cardekho.com/overview/Ford_Figo/Ford_Figo_1.2P_Titanium_MT.htm'
p2880
sS'Volkswagen Polo 1.5 TDI Highline'
p2881
S'https://www.cardekho.com/overview/Volkswagen_Polo/Volkswagen_Polo_1.5_TDI_Highline.htm'
p2882
sS'Ford Figo 1.2P Titanium Plus MT'
p2883
S'https://www.cardekho.com/overview/Ford_Figo/Ford_Figo_1.2P_Titanium_Plus_MT.htm'
p2884
sS'Honda Jazz 1.2 SV i VTEC'
p2885
S'https://www.cardekho.com/overview/Honda_Jazz/Honda_Jazz_1.2_SV_i_VTEC.htm'
p2886
sS'Tata Nano XTA'
p2887
S'https://www.cardekho.com/overview/Tata_Nano/Tata_Nano_XTA.htm'
p2888
sS'Maruti Celerio ZXI'
p2889
S'https://www.cardekho.com/overview/Maruti_Celerio/Maruti_Celerio_ZXI.htm'
p2890
sS'Mini Countryman Cooper D'
p2891
S'https://www.cardekho.com/overview/Mini_Cooper_Countryman/Mini_Cooper_Countryman_Cooper_D.htm'
p2892
sS'Maruti Alto K10 LXI CNG'
p2893
S'https://www.cardekho.com/overview/Maruti_Alto_K10/Maruti_Alto_K10_LXI_CNG.htm'
p2894
sS'Chevrolet Beat Diesel PS'
p2895
S'https://www.cardekho.com/overview/Chevrolet_Beat/Chevrolet_Beat_Diesel_PS.htm'
p2896
sS'Chevrolet Sail Hatchback 1.3 TCDi'
p2897
S'https://www.cardekho.com/overview/Chevrolet_Sail_Hatchback/Chevrolet_Sail_Hatchback_1.3_TCDi.htm'
p2898
sS'Renault Pulse RxL ABS'
p2899
S'https://www.cardekho.com/overview/Renault_Pulse/Renault_Pulse_RxL_Optional.htm'
p2900
sS'Tata Bolt Revotron XM'
p2901
S'https://www.cardekho.com/overview/Tata_Bolt/Tata_Bolt_Revotron_XM.htm'
p2902
sS'Tata Nano XM'
p2903
S'https://www.cardekho.com/overview/Tata_Nano/Tata_Nano_XM.htm'
p2904
sS'Volkswagen Polo 1.2 MPI Highline'
p2905
S'https://www.cardekho.com/overview/Volkswagen_Polo/Volkswagen_Polo_1.2_MPI_Highline.htm'
p2906
sS'Hyundai Grand i10 Sportz'
p2907
S'https://www.cardekho.com/overview/Hyundai_Grand_i10/Hyundai_Grand_i10_Sportz.htm'
p2908
sS'Fiat Avventura Urban Cross 1.3 Multijet Dynamic'
p2909
S'https://www.cardekho.com/overview/Fiat_Avventura_Urban_Cross/Fiat_Avventura_Urban_Cross_1.3_Multijet_Dynamic.htm'
p2910
sS'Tata Indica eV2 LS BSIII'
p2911
S'https://www.cardekho.com/overview/Tata_Indica_V2/Tata_Indica_V2_DLS_BSIII.htm'
p2912
sS'Maruti Celerio VXI AT Optional'
p2913
S'https://www.cardekho.com/overview/Maruti_Celerio/Maruti_Celerio_VXI_AT_Optional.htm'
p2914
sS'Tata Nano XE'
p2915
S'https://www.cardekho.com/overview/Tata_Nano/Tata_Nano_XE.htm'
p2916
sS'Maruti Alto 800 CNG LXI Optional'
p2917
S'https://www.cardekho.com/overview/Maruti_Alto_800/Maruti_Alto_800_CNG_LXI_Optional.htm'
p2918
sS'Ford Figo 1.5D Base MT'
p2919
S'https://www.cardekho.com/overview/Ford_Figo/Ford_Figo_1.5D_Base_MT.htm'
p2920
sS'Maruti Wagon R VXI Optional'
p2921
S'https://www.cardekho.com/overview/Maruti_Wagon_R/Maruti_Wagon_R_VXI_Optional.htm'
p2922
sS'Maruti Wagon R Stingray AMT VXI'
p2923
S'https://www.cardekho.com/overview/Maruti_Wagon_R_Stingray/Maruti_Wagon_R_Stingray_AMT_VXI.htm'
p2924
sS'Maruti Ritz ZDi'
p2925
S'https://www.cardekho.com/overview/Maruti_Ritz/Maruti_Ritz_ZDi.htm'
p2926
sS'Mercedes-Benz A-Class A180 Sport'
p2927
S'https://www.cardekho.com/overview/Mercedes-Benz_A_Class/Mercedes-Benz_A_Class_A180_Sport.htm'
p2928
sS'Maruti Ritz AT'
p2929
S'https://www.cardekho.com/overview/Maruti_Ritz/Maruti_Ritz_AT.htm'
p2930
sS'Maruti Swift 1.2 DLX'
p2931
S'https://www.cardekho.com/overview/Maruti_Swift/Maruti_Swift_1.2_DLX.htm'
p2932
sS'Hyundai Grand i10 CRDi Sportz'
p2933
S'https://www.cardekho.com/overview/Hyundai_Grand_i10/Hyundai_Grand_i10_CRDi_Sportz.htm'
p2934
sS'Tata Nano XT'
p2935
S'https://www.cardekho.com/overview/Tata_Nano/Tata_Nano_XT.htm'
p2936
sS'Chevrolet Beat Diesel LTZ'
p2937
S'https://www.cardekho.com/overview/Chevrolet_Beat/Chevrolet_Beat_Diesel_LTZ.htm'
p2938
sS'Maruti Wagon R LXI'
p2939
S'https://www.cardekho.com/overview/Maruti_Wagon_R/Maruti_Wagon_R_LXI_BS_IV.htm'
p2940
sS'Maruti Swift LXI Optional-O'
p2941
S'https://www.cardekho.com/overview/Maruti_Swift/Maruti_Swift_LXI_Optional-O.htm'
p2942
sS'Maruti Alto K10 VXI AGS Optional'
p2943
S'https://www.cardekho.com/overview/Maruti_Alto_K10/Maruti_Alto_K10_VXI_AGS_Optional.htm'
p2944
sS'Hyundai EON LPG Era Plus Option'
p2945
S'https://www.cardekho.com/overview/Hyundai_EON/Hyundai_EON_LPG_Era_Plus_Option.htm'
p2946
sS'Hyundai i10 Sportz 1.1L LPG'
p2947
S'https://www.cardekho.com/overview/Hyundai_i10/Hyundai_i10_Sportz_1.1L_LPG.htm'
p2948
sS'Volkswagen Polo GT 1.5 TDI'
p2949
S'https://www.cardekho.com/overview/Volkswagen_Polo/Volkswagen_Polo_GT_1.5_TDI.htm'
p2950
sS'Chevrolet Sail Hatchback 1.2 LT ABS'
p2951
S'https://www.cardekho.com/overview/Chevrolet_Sail_Hatchback/Chevrolet_Sail_Hatchback_1.2_LT_ABS.htm'
p2952
sS'Chevrolet Sail Hatchback 1.2'
p2953
S'https://www.cardekho.com/overview/Chevrolet_Sail_Hatchback/Chevrolet_Sail_Hatchback_1.2.htm'
p2954
sS'Datsun Redi GO T'
p2955
S'https://www.cardekho.com/overview/Datsun_RediGO/Datsun_RediGO_T.htm'
p2956
sS'Datsun Redi GO S'
p2957
S'https://www.cardekho.com/overview/Datsun_RediGO/Datsun_RediGO_S.htm'
p2958
sS'Fiat 500 Abarth 595 Competizione'
p2959
S'https://www.cardekho.com/overview/Fiat_500/Fiat_500_Abarth_595_Competizione.htm'
p2960
sS'Maruti Baleno 1.3 Sigma'
p2961
S'https://www.cardekho.com/overview/Maruti_Baleno/Maruti_Baleno_1.3_Sigma.htm'
p2962
sS'Tata Bolt Quadrajet XT'
p2963
S'https://www.cardekho.com/overview/Tata_Bolt/Tata_Bolt_Quadrajet_XT.htm'
p2964
sS'Maruti Wagon R LXI CNG'
p2965
S'https://www.cardekho.com/overview/Maruti_Wagon_R/Maruti_Wagon_R_LXI_CNG.htm'
p2966
sS'Renault KWID RXE'
p2967
S'https://www.cardekho.com/overview/Renault_KWID/Renault_KWID_RXE.htm'
p2968
sS'Maruti Alto K10 LX Optional'
p2969
S'https://www.cardekho.com/overview/Maruti_Alto_K10/Maruti_Alto_K10_LX_Optional.htm'
p2970
sS'Maruti Celerio LXI AT Optional'
p2971
S'https://www.cardekho.com/overview/Maruti_Celerio/Maruti_Celerio_LXI_AT_Optional.htm'
p2972
sS'Renault KWID RXL'
p2973
S'https://www.cardekho.com/overview/Renault_KWID/Renault_KWID_RXL.htm'
p2974
sS'Hyundai EON LPG Magna Plus'
p2975
S'https://www.cardekho.com/overview/Hyundai_EON/Hyundai_EON_LPG_Magna_Plus.htm'
p2976
sS'Datsun Redi GO A'
p2977
S'https://www.cardekho.com/overview/Datsun_RediGO/Datsun_RediGO_A.htm'
p2978
sS'Hyundai EON D Lite Plus'
p2979
S'https://www.cardekho.com/overview/Hyundai_EON/Hyundai_EON_D_Lite_Plus.htm'
p2980
sS'Maruti Alto K10 VXI Option'
p2981
S'https://www.cardekho.com/overview/Maruti_Alto_K10/Maruti_Alto_K10_VXI_Airbag.htm'
p2982
sS'Maruti Alto 800 LXI Optional'
p2983
S'https://www.cardekho.com/overview/Maruti_Alto_800/Maruti_Alto_800_LXI_Optional.htm'
p2984
sS'Maruti Baleno 1.3 Delta'
p2985
S'https://www.cardekho.com/overview/Maruti_Baleno/Maruti_Baleno_1.3_Delta.htm'
p2986
sS'Datsun GO Style'
p2987
S'https://www.cardekho.com/overview/Datsun_GO/Datsun_GO_Style.htm'
p2988
sS'Hyundai i20 Active 1.2 SX with AVN'
p2989
S'https://www.cardekho.com/overview/Hyundai_i20_Active/Hyundai_i20_Active_1.2_SX_with_AVN.htm'
p2990
sS'Nissan Micra Active XV S'
p2991
S'https://www.cardekho.com/overview/Nissan_Micra_Active/Nissan_Micra_Active_XV_S.htm'
p2992
sS'BMW 1 Series 118d Sport Line'
p2993
S'https://www.cardekho.com/overview/BMW_1_Series/BMW_1_Series_118d_Sport_Line.htm'
p2994
sS'Hyundai EON Magna Plus'
p2995
S'https://www.cardekho.com/overview/Hyundai_EON/Hyundai_EON_Magna_Plus.htm'
p2996
sS'Maruti Ritz VDI (ABS)'
p2997
S'https://www.cardekho.com/overview/Maruti_Ritz/Maruti_Ritz_VDI_(ABS)_BS_IV.htm'
p2998
sS'Honda Jazz 1.2 S i VTEC'
p2999
S'https://www.cardekho.com/overview/Honda_Jazz/Honda_Jazz_1.2_S_i_VTEC.htm'
p3000
sS'Maruti Alto 800 STD Optional'
p3001
S'https://www.cardekho.com/overview/Maruti_Alto_800/Maruti_Alto_800_Std_Optional.htm'
p3002
sS'Maruti Alto 800 LX'
p3003
S'https://www.cardekho.com/overview/Maruti_Alto_800/Maruti_Alto_800_LX.htm'
p3004
sS'Maruti Baleno 1.2 Delta'
p3005
S'https://www.cardekho.com/overview/Maruti_Baleno/Maruti_Baleno_1.2_Delta.htm'
p3006
sS'Fiat Punto EVO Power UP 1.3 Active'
p3007
S'https://www.cardekho.com/overview/Fiat_Grande_Punto/Fiat_Grande_Punto_EVO_Power_UP_1.3_Active.htm'
p3008
sS'Volvo V40 D3 Kinetic'
p3009
S'https://www.cardekho.com/overview/Volvo_V40/Volvo_V40_D3.htm'
p3010
sS'Renault KWID RXT'
p3011
S'https://www.cardekho.com/overview/Renault_KWID/Renault_KWID_RXT.htm'
p3012
sS'Chevrolet Spark 1.0 LT'
p3013
S'https://www.cardekho.com/overview/Chevrolet_Spark/Chevrolet_Spark_1.0_LT.htm'
p3014
sS'Maruti Celerio LDI Optional'
p3015
S'https://www.cardekho.com/overview/Maruti_Celerio/Maruti_Celerio_LDI_Optional.htm'
p3016
sS'Chevrolet Spark 1.0 LS'
p3017
S'https://www.cardekho.com/overview/Chevrolet_Spark/Chevrolet_Spark_1.0_LS.htm'
p3018
sS'Maruti Celerio LDi'
p3019
S'https://www.cardekho.com/overview/Maruti_Celerio/Maruti_Celerio_LDi.htm'
p3020
sS'Hyundai EON D Lite Plus Option'
p3021
S'https://www.cardekho.com/overview/Hyundai_EON/Hyundai_EON_D_Lite_Plus_Option.htm'
p3022
sS'Maruti Celerio Green VXI Optional'
p3023
S'https://www.cardekho.com/overview/Maruti_Celerio/Maruti_Celerio_Green_VXI_Optional.htm'
p3024
sS'Mahindra Verito Vibe 1.5 dCi D2'
p3025
S'https://www.cardekho.com/overview/Mahindra_Verito_Vibe/Mahindra_Verito_Vibe_1.5_dCi_D2.htm'
p3026
sS'Maruti Alto 800 STD'
p3027
S'https://www.cardekho.com/overview/Maruti_Alto_800/Maruti_Alto_800_STD.htm'
p3028
sS'Fiat Punto EVO Power UP 1.3 Dynamic'
p3029
S'https://www.cardekho.com/overview/Fiat_Grande_Punto/Fiat_Grande_Punto_EVO_Power_UP_1.3_Dynamic.htm'
p3030
sS'Mahindra Verito Vibe 1.5 dCi D6'
p3031
S'https://www.cardekho.com/overview/Mahindra_Verito_Vibe/Mahindra_Verito_Vibe_1.5_dCi_D6.htm'
p3032
sS'Tata Bolt Quadrajet XM'
p3033
S'https://www.cardekho.com/overview/Tata_Bolt/Tata_Bolt_Quadrajet_XM.htm'
p3034
sS'Maruti Swift VDI Optional'
p3035
S'https://www.cardekho.com/overview/Maruti_Swift/Maruti_Swift_VDI_Optional.htm'
p3036
sS'Maruti Wagon R Stingray VXI Optional'
p3037
S'https://www.cardekho.com/overview/Maruti_Wagon_R_Stingray/Maruti_Wagon_R_Stingray_VXI_Optional.htm'
p3038
sS'Maruti Wagon R LXI Optional'
p3039
S'https://www.cardekho.com/overview/Maruti_Wagon_R/Maruti_Wagon_R_LXI_Optional.htm'
p3040
sS'Maruti Celerio VXI'
p3041
S'https://www.cardekho.com/overview/Maruti_Celerio/Maruti_Celerio_VXI.htm'
p3042
sS'Maruti Baleno 1.2 Alpha'
p3043
S'https://www.cardekho.com/overview/Maruti_Baleno/Maruti_Baleno_1.2_Alpha.htm'
p3044
sS'Volkswagen Polo 1.5 TDI Trendline'
p3045
S'https://www.cardekho.com/overview/Volkswagen_Polo/Volkswagen_Polo_1.5_TDI_Trendline.htm'
p3046
sS'Maruti Wagon R LXI CNG Optional'
p3047
S'https://www.cardekho.com/overview/Maruti_Wagon_R/Maruti_Wagon_R_LXI_CNG_Optional.htm'
p3048
sS'Mahindra Verito Vibe 1.5 dCi D4'
p3049
S'https://www.cardekho.com/overview/Mahindra_Verito_Vibe/Mahindra_Verito_Vibe_1.5_dCi_D4.htm'
p3050
sS'Honda Jazz 1.2 V i VTEC'
p3051
S'https://www.cardekho.com/overview/Honda_Jazz/Honda_Jazz_1.2_V_i_VTEC.htm'
p3052
sS'Maruti Celerio LXI AT'
p3053
S'https://www.cardekho.com/overview/Maruti_Celerio/Maruti_Celerio_LXI_AT.htm'
p3054
sS'Maruti Swift VXI Optional'
p3055
S'https://www.cardekho.com/overview/Maruti_Swift/Maruti_Swift_VXI_Optional.htm'
p3056
sS'Hyundai Elite i20 Asta 1.2'
p3057
S'https://www.cardekho.com/overview/Hyundai_i20/Hyundai_i20_Asta_1.2.htm'
p3058
sS'Ford Figo 1.2P Trend MT'
p3059
S'https://www.cardekho.com/overview/Ford_Figo/Ford_Figo_1.2P_Trend_MT.htm'
p3060
sS'Ford Figo 1.2P Ambiente MT'
p3061
S'https://www.cardekho.com/overview/Ford_Figo/Ford_Figo_1.2P_Ambiente_MT.htm'
p3062
ssa.