(dp0
I0
(dp1
S'Features'
p2
(dp3
S'Height Adjustable Driving Seat'
p4
S'Yes'
p5
sS'Anti-Lock Braking System'
p6
g5
sS'Side Stepper'
p7
g5
sS'Vanity Mirror'
p8
g5
sS'Power Adjustable Exterior Rear View Mirror'
p9
g5
sS'FM/AM/Radio'
p10
g5
sS'Brake Assist'
p11
g5
sS'Cup Holders-Front'
p12
g5
sS'Tachometer'
p13
g5
sS'Rear Window Defogger'
p14
g5
sS'Engine Immobilizer'
p15
g5
sS'Rear Seat Belts'
p16
g5
sS'Fog Lights - Front'
p17
g5
sS'Passenger Airbag'
p18
g5
sS'Touch Screen'
p19
g5
sS'Power Antenna'
p20
g5
sS'Power Windows-Rear'
p21
g5
sS'Chrome Grille'
p22
g5
sS'Bottle Holder'
p23
g5
sS'CD Player'
p24
g5
sS'Bluetooth Connectivity'
p25
g5
sS'Glove Compartment'
p26
g5
sS'Integrated 2DIN Audio'
p27
g5
sS'Speakers Front'
p28
g5
sS'Alloy Wheels'
p29
g5
sS'Advance Safety Features'
p30
g5
sS'Power Steering'
p31
g5
sS'Air Conditioner'
p32
g5
sS'Day & Night Rear View Mirror'
p33
g5
sS'Rear Seat Headrest'
p34
g5
sS'Digital Clock'
p35
g5
sS'Multi-function Steering Wheel'
p36
g5
sS'Xenon Headlamps'
p37
g5
sS'Roof Rail'
p38
g5
sS'Electronic Multi-Tripmeter'
p39
g5
sS'Driver Airbag'
p40
g5
sS'Digital Odometer'
p41
g5
sS'Fabric Upholstery'
p42
g5
sS'Automatic Climate Control'
p43
g5
sS'Centrally Mounted Fuel Tank'
p44
g5
sS'Adjustable Steering Column'
p45
g5
sS'Adjustable Seats'
p46
g5
sS'Child Safety Locks'
p47
g5
sS'Accessory Power Outlet'
p48
g5
sS'Electric Folding Rear View Mirror'
p49
g5
sS'Foldable Rear Seat'
p50
g5
sS'Front Impact Beams'
p51
g5
sS'Speakers Rear'
p52
g5
sS'Passenger Side Rear View Mirror'
p53
g5
sS'EBD'
p54
g5
sS'Heater'
p55
g5
sS'Central Locking'
p56
g5
sS'Anti-Theft Device'
p57
g5
sS'Side Impact Beams'
p58
g5
sS'Crash Sensor'
p59
g5
sS'Air Quality Control'
p60
g5
sS'Adjustable Headlights'
p61
g5
sS'USB & Auxiliary input'
p62
g5
sS'Power Windows-Front'
p63
g5
sS'Low Fuel Warning Light'
p64
g5
ssS'Specs_link'
p65
S'https://www.cardekho.com/specs/Isuzu_D-Max_V-Cross/Isuzu_D-Max_V-Cross_4X4-specification.htm'
p66
sS'Review'
p67
(lp68
VIsuzu D-Max V-Cross 4X4 review\u000a  No review available for Isuzu D-Max V-Cross 4X4
p69
asS'Review_link'
p70
S'https://www.cardekho.com/overview/Isuzu_D-Max_V-Cross/Isuzu_D-Max_V-Cross_4X4.htm'
p71
sS'Specs'
p72
(dp73
S'No. of Cylinders'
p74
S'4'
p75
sS'Super Charger'
p76
S'No'
p77
sS'Seating Capacity'
p78
S'5'
p79
sS'Maximum Power'
p80
S'134bhp@3600rpm'
p81
sS'Mileage-Highway (kmpl)'
p82
S'12.4'
p83
sS'Front Brake Type'
p84
S'Ventilated Disc'
p85
sS'Steering Type'
p86
S'Power'
p87
sS'Fuel Type'
p88
S'Diesel'
p89
sS'Valve Configuration'
p90
S'DOHC'
p91
sS'Warranty Time'
p92
S'3 years'
p93
sS'Drive Type'
p94
S'4WD'
p95
sS'Engine Displacement(cc)'
p96
S'2499'
p97
sS'Fuel Supply System'
p98
S'CRDi'
p99
sS'Tyre Type'
p100
S'Tubeless,Radials'
p101
sS'Warranty Distance'
p102
S'100000 kms'
p103
sS'Front Suspension'
p104
S'Independent Double Wishbone'
p105
sS'Fuel Tank Capacity (Liters)'
p106
S'52'
p107
sS'No of Doors'
p108
g75
sS'Valves Per Cylinder'
p109
g75
sS'Alloy Wheel Size'
p110
S'16 Inch'
p111
sS'ShockAbsorbers Type'
p112
S'Coil Spring'
p113
sS'Steering Gear Type'
p114
S'Rack & Pinion'
p115
sS'Gear box'
p116
S'5 Speed'
p117
sS'Mileage-City (kmpl)'
p118
S'9.4'
p119
sS'Turbo Charger'
p120
S'Yes'
p121
sS'Rear Brake Type'
p122
S'Drum'
p123
sS'Rear Suspension'
p124
S'Soft Ride'
p125
sS'Engine Type'
p126
S'VGS Turbo Diesel Engine'
p127
sS'Engine Description'
p128
S'2.5-litre 134bhp 16V VGS Turbo Diesel Engine'
p129
sS'Tyre Size'
p130
S'245/70 R16'
p131
sS'Transmission Type'
p132
S'Manual'
p133
sS'Steering Column'
p134
S'Tilt & Adjustable'
p135
sS'Maximum Torque'
p136
S'320Nm@1800-2800rpm'
p137
ssS'Features_link'
p138
S'https://www.cardekho.com/features/Isuzu_D-Max_V-Cross/Isuzu_D-Max_V-Cross_4X4-features.htm'
p139
ssI1
I2
s.