(dp0
S'https://www.cardekho.com/overview/Datsun_GO_Plus/Datsun_GO_Plus_D.htm'
p1
V3.88 Lakh
p2
sS'https://www.cardekho.com/overview/Toyota_Innova_Crysta/Toyota_Innova_Crysta_2.7_GX_AT_8S.htm'
p3
V15.1 Lakh
p4
sS'https://www.cardekho.com/overview/Mahindra_Xylo/Mahindra_Xylo_D2_Maxx_BSIV.htm'
p5
V8.64 Lakh
p6
sS'https://www.cardekho.com/overview/Chevrolet_Enjoy/Chevrolet_Enjoy_1.3_TCDi_LS_7.htm'
p7
V6.99 Lakh
p8
sS'https://www.cardekho.com/overview/Chevrolet_Enjoy/Chevrolet_Enjoy_1.3_TCDi_LTZ_8.htm'
p9
V8.29 Lakh
p10
sS'https://www.cardekho.com/overview/Toyota_Innova_Crysta/Toyota_Innova_Crysta_2.4_ZX_MT.htm'
p11
V19.88 Lakh
p12
sS'https://www.cardekho.com/overview/Honda_Mobilio/Honda_Mobilio_RS_i-DTEC.htm'
p13
V12.42 Lakh
p14
sS'https://www.cardekho.com/overview/Maruti_Ertiga/Maruti_Ertiga_VXI_AT.htm'
p15
V8.96 Lakh
p16
sS'https://www.cardekho.com/overview/ICML_Extreme/ICML_Extreme_Van_BSIII_Non_AC.htm'
p17
V7.11 Lakh
p18
sS'https://www.cardekho.com/overview/Honda_Mobilio/Honda_Mobilio_S_i-DTEC.htm'
p19
V9.96 Lakh
p20
sS'https://www.cardekho.com/overview/Chevrolet_Enjoy/Chevrolet_Enjoy_1.3_TCDi_LT_7.htm'
p21
V7.69 Lakh
p22
sS'https://www.cardekho.com/overview/Honda_Mobilio/Honda_Mobilio_V_i-DTEC.htm'
p23
V11.17 Lakh
p24
sS'https://www.cardekho.com/overview/ICML_Extreme/ICML_Extreme_Van_BSIII_AC.htm'
p25
V7.57 Lakh
p26
sS'https://www.cardekho.com/overview/Maruti_Ertiga/Maruti_Ertiga_ZXI_Plus.htm'
p27
V9.14 Lakh
p28
sS'https://www.cardekho.com/overview/Maruti_Ertiga/Maruti_Ertiga_ZXI.htm'
p29
V8.54 Lakh
p30
sS'https://www.cardekho.com/overview/Toyota_Innova_Crysta/Toyota_Innova_Crysta_2.4_G_MT_8S.htm'
p31
V14.18 Lakh
p32
sS'https://www.cardekho.com/overview/Chevrolet_Tavera/Chevrolet_Tavera_Neo_3_Max_10_Seats_BSIII.htm'
p33
V9.06 Lakh
p34
sS'https://www.cardekho.com/overview/Datsun_GO_Plus/Datsun_GO_Plus_A_EPS.htm'
p35
V4.51 Lakh
p36
sS'https://www.cardekho.com/overview/ICML_Extreme/ICML_Extreme_Ambulance_DI_Non_AC_BSIII.htm'
p37
V6.91 Lakh
p38
sS'https://www.cardekho.com/overview/Toyota_Innova_Crysta/Toyota_Innova_Crysta_2.4_GX_MT_8S.htm'
p39
V15.11 Lakh
p40
sS'https://www.cardekho.com/overview/Maruti_Ertiga/Maruti_Ertiga_LXI_Option.htm'
p41
V7.12 Lakh
p42
sS'https://www.cardekho.com/overview/Mahindra_Xylo/Mahindra_Xylo_H8.htm'
p43
V10.29 Lakh
p44
sS'https://www.cardekho.com/overview/Toyota_Innova_Crysta/Toyota_Innova_Crysta_2.4_VX_MT_8S.htm'
p45
V17.98 Lakh
p46
sS'https://www.cardekho.com/overview/Chevrolet_Enjoy/Chevrolet_Enjoy_1.3_TCDi_LTZ_7.htm'
p47
V8.29 Lakh
p48
sS'https://www.cardekho.com/overview/Honda_Mobilio/Honda_Mobilio_V_Option_i-DTEC.htm'
p49
V11.74 Lakh
p50
sS'https://www.cardekho.com/overview/Maruti_Ertiga/Maruti_Ertiga_LXI.htm'
p51
V6.75 Lakh
p52
sS'https://www.cardekho.com/overview/ICML_Extreme/ICML_Extreme_LD_CRDFi_PS_AC_9Seater_BSIII.htm'
p53
V8.66 Lakh
p54
sS'https://www.cardekho.com/overview/Maruti_Ertiga/Maruti_Ertiga_SHVS_LDI_Option.htm'
p55
V8.16 Lakh
p56
sS'https://www.cardekho.com/overview/Mahindra_Xylo/Mahindra_Xylo_D2_BS_III.htm'
p57
V8.84 Lakh
p58
sS'https://www.cardekho.com/overview/Chevrolet_Enjoy/Chevrolet_Enjoy_1.4_LTZ_8.htm'
p59
V6.35 Lakh
p60
sS'https://www.cardekho.com/overview/Renault_Lodgy/Renault_Lodgy_85PS_RxE_7_Seater.htm'
p61
V9.01 Lakh
p62
sS'https://www.cardekho.com/overview/Toyota_Innova/Toyota_Innova_2.5_G_(Diesel)_8_Seater_BS_IV.htm'
p63
V13.68 Lakh
p64
sS'https://www.cardekho.com/overview/Mahindra_Xylo/Mahindra_Xylo_D2_BS_IV.htm'
p65
V8.98 Lakh
p66
sS'https://www.cardekho.com/overview/Tata_Aria/Tata_Aria_Pride_4x4.htm'
p67
V16.53 Lakh
p68
sS'https://www.cardekho.com/overview/Chevrolet_Tavera/Chevrolet_Tavera_Neo_3_LS_7_C_BSIII.htm'
p69
V10.36 Lakh
p70
sS'https://www.cardekho.com/overview/Toyota_Innova_Crysta/Toyota_Innova_Crysta_2.4_G_MT.htm'
p71
V14.13 Lakh
p72
sS'https://www.cardekho.com/overview/Honda_Mobilio/Honda_Mobilio_E_i-VTEC.htm'
p73
V7.61 Lakh
p74
sS'https://www.cardekho.com/overview/Toyota_Innova_Crysta/Toyota_Innova_Crysta_2.7_VX_MT.htm'
p75
V16.81 Lakh
p76
sS'https://www.cardekho.com/overview/Chevrolet_Tavera/Chevrolet_Tavera_Neo_3_LT_9_Seats_BSIII.htm'
p77
V11.31 Lakh
p78
sS'https://www.cardekho.com/overview/Toyota_Innova_Crysta/Toyota_Innova_Crysta_2.7_GX_MT_8S.htm'
p79
V13.99 Lakh
p80
sS'https://www.cardekho.com/overview/Mahindra_Xylo/Mahindra_Xylo_H4.htm'
p81
V9.59 Lakh
p82
sS'https://www.cardekho.com/overview/Datsun_GO_Plus/Datsun_GO_Plus_T.htm'
p83
V4.75 Lakh
p84
sS'https://www.cardekho.com/overview/Datsun_GO_Plus/Datsun_GO_Plus_T_Option.htm'
p85
V4.95 Lakh
p86
sS'https://www.cardekho.com/overview/Chevrolet_Tavera/Chevrolet_Tavera_Neo_3_Max_9_Str_BSIII.htm'
p87
V8.87 Lakh
p88
sS'https://www.cardekho.com/overview/Toyota_Innova/Toyota_Innova_2.5_VX_(Diesel)_7_Seater_BS_IV.htm'
p89
V16.28 Lakh
p90
sS'https://www.cardekho.com/overview/Maruti_Ertiga/Maruti_Ertiga_VXI_CNG.htm'
p91
V8.54 Lakh
p92
sS'https://www.cardekho.com/overview/Mahindra_Xylo/Mahindra_Xylo_H4_ABS.htm'
p93
V9.99 Lakh
p94
sS'https://www.cardekho.com/overview/Toyota_Innova_Crysta/Toyota_Innova_Crysta_2.7_GX_AT.htm'
p95
V15.05 Lakh
p96
sS'https://www.cardekho.com/overview/Mercedes-Benz_B_Class/Mercedes-Benz_B_Class_B180_Sport.htm'
p97
V29.97 Lakh
p98
sS'https://www.cardekho.com/overview/Toyota_Innova/Toyota_Innova_2.5_GX_(Diesel)_7_Seater_BS_IV.htm'
p99
V14.24 Lakh
p100
sS'https://www.cardekho.com/overview/Renault_Lodgy/Renault_Lodgy_85PS_RxE.htm'
p101
V9.01 Lakh
p102
sS'https://www.cardekho.com/overview/Chevrolet_Tavera/Chevrolet_Tavera_Neo_3_10_Seats_BSIII.htm'
p103
V8.12 Lakh
p104
sS'https://www.cardekho.com/overview/Tata_Xenon_XT/Tata_Xenon_XT_EX_4X4.htm'
p105
V11.28 Lakh
p106
sS'https://www.cardekho.com/overview/Maruti_Ertiga/Maruti_Ertiga_SHVS_ZDI_Plus.htm'
p107
V9.81 Lakh
p108
sS'https://www.cardekho.com/overview/Renault_Lodgy/Renault_Lodgy_85PS_RxL.htm'
p109
V9.88 Lakh
p110
sS'https://www.cardekho.com/overview/Honda_Mobilio/Honda_Mobilio_V_Option_i-VTEC.htm'
p111
V10.55 Lakh
p112
sS'https://www.cardekho.com/overview/Chevrolet_Enjoy/Chevrolet_Enjoy_1.4_LTZ_7.htm'
p113
V6.35 Lakh
p114
sS'https://www.cardekho.com/overview/Renault_Lodgy/Renault_Lodgy_World_Edition_110PS.htm'
p115
V10.84 Lakh
p116
sS'https://www.cardekho.com/overview/Chevrolet_Enjoy/Chevrolet_Enjoy_1.3_TCDi_LT_8.htm'
p117
V7.69 Lakh
p118
sS'https://www.cardekho.com/overview/Toyota_Innova/Toyota_Innova_2.5_ZX_Diesel_7_Seater.htm'
p119
V16.97 Lakh
p120
sS'https://www.cardekho.com/overview/Toyota_Innova/Toyota_Innova_2.5_GX_(Diesel)_8_Seater_BS_IV.htm'
p121
V14.28 Lakh
p122
sS'https://www.cardekho.com/overview/Mahindra_Xylo/Mahindra_Xylo_H8_ABS_with_Airbags.htm'
p123
V11.49 Lakh
p124
sS'https://www.cardekho.com/overview/Mercedes-Benz_B_Class/Mercedes-Benz_B_Class_B200_CDI_Sport.htm'
p125
V30.99 Lakh
p126
sS'https://www.cardekho.com/overview/Tata_Aria/Tata_Aria_Pure_LX_4x2.htm'
p127
V11.04 Lakh
p128
sS'https://www.cardekho.com/overview/ICML_Extreme/ICML_Extreme_LD_CRDFi_Non-AC_9Seater_BSIV.htm'
p129
V7.91 Lakh
p130
sS'https://www.cardekho.com/overview/Toyota_Innova_Crysta/Toyota_Innova_Crysta_2.7_ZX_AT.htm'
p131
V19.87 Lakh
p132
sS'https://www.cardekho.com/overview/ICML_Extreme/ICML_Extreme_VD_CRDFi_7Seater_BSIII.htm'
p133
V9.98 Lakh
p134
sS'https://www.cardekho.com/overview/Chevrolet_Tavera/Chevrolet_Tavera_Neo_3_LS_10_Seats_BSIII.htm'
p135
V9.89 Lakh
p136
sS'https://www.cardekho.com/overview/ICML_Extreme/ICML_Extreme_SD_CRDFi_9Seater_BSIII.htm'
p137
V9.28 Lakh
p138
sS'https://www.cardekho.com/overview/Honda_Mobilio/Honda_Mobilio_RS_Option_i-DTEC.htm'
p139
V12.99 Lakh
p140
sS'https://www.cardekho.com/overview/Chevrolet_Tavera/Chevrolet_Tavera_Neo_3_LS_7_Seats_BSIII.htm'
p141
V10.24 Lakh
p142
sS'https://www.cardekho.com/overview/Toyota_Innova_Crysta/Toyota_Innova_Crysta_2.4_GX_MT.htm'
p143
V15.06 Lakh
p144
sS'https://www.cardekho.com/overview/Chevrolet_Tavera/Chevrolet_Tavera_Neo_3_LS_9_Str_BSIII.htm'
p145
V9.69 Lakh
p146
sS'https://www.cardekho.com/overview/Mahindra_Xylo/Mahindra_Xylo_D4_BS_III.htm'
p147
V9.31 Lakh
p148
sS'https://www.cardekho.com/overview/ICML_Extreme/ICML_Extreme_Ambulance_DI_AC_BSIII.htm'
p149
V7.34 Lakh
p150
sS'https://www.cardekho.com/overview/Mahindra_Xylo/Mahindra_Xylo_D2_Maxx.htm'
p151
V8.5 Lakh
p152
sS'https://www.cardekho.com/overview/Datsun_GO_Plus/Datsun_GO_Plus_Style.htm'
p153
V4.77 Lakh
p154
sS'https://www.cardekho.com/overview/Mahindra_Xylo/Mahindra_Xylo_D4.htm'
p155
V9.44 Lakh
p156
sS'https://www.cardekho.com/overview/Chevrolet_Enjoy/Chevrolet_Enjoy_1.4_LS_7.htm'
p157
V5.08 Lakh
p158
sS'https://www.cardekho.com/overview/Tata_Xenon_XT/Tata_Xenon_XT_EX_4X2.htm'
p159
V10.23 Lakh
p160
sS'https://www.cardekho.com/overview/Chevrolet_Tavera/Chevrolet_Tavera_Neo_3_9_Str_BSIII.htm'
p161
V7.95 Lakh
p162
sS'https://www.cardekho.com/overview/Maruti_Ertiga/Maruti_Ertiga_SHVS_VDI.htm'
p163
V8.81 Lakh
p164
sS'https://www.cardekho.com/overview/Chevrolet_Enjoy/Chevrolet_Enjoy_1.4_LT_7.htm'
p165
V5.74 Lakh
p166
sS'https://www.cardekho.com/overview/Maruti_Ertiga/Maruti_Ertiga_VXI.htm'
p167
V7.91 Lakh
p168
sS'https://www.cardekho.com/overview/ICML_Extreme/ICML_Extreme_VD_DI_7Seater_BSIII.htm'
p169
V9.4 Lakh
p170
sS'https://www.cardekho.com/overview/Honda_Mobilio/Honda_Mobilio_V_i-VTEC.htm'
p171
V9.99 Lakh
p172
sS'https://www.cardekho.com/overview/Toyota_Innova_Crysta/Toyota_Innova_Crysta_2.7_GX_MT.htm'
p173
V13.94 Lakh
p174
sS'https://www.cardekho.com/overview/Chevrolet_Enjoy/Chevrolet_Enjoy_1.3_TCDi_LS_8.htm'
p175
V6.99 Lakh
p176
sS'https://www.cardekho.com/overview/Renault_Lodgy/Renault_Lodgy_85PS_Std.htm'
p177
V8.03 Lakh
p178
sS'https://www.cardekho.com/overview/Chevrolet_Enjoy/Chevrolet_Enjoy_1.4_LT_8.htm'
p179
V5.74 Lakh
p180
sS'https://www.cardekho.com/overview/Chevrolet_Enjoy/Chevrolet_Enjoy_1.4_LS_8.htm'
p181
V5.08 Lakh
p182
sS'https://www.cardekho.com/overview/ICML_Extreme/ICML_Extreme_LD_CRDFi_AC_M_Stg_9Seater_BSIV.htm'
p183
V8.08 Lakh
p184
sS'https://www.cardekho.com/overview/Toyota_Innova_Crysta/Toyota_Innova_Crysta_2.8_GX_AT_8S.htm'
p185
V16.41 Lakh
p186
sS'https://www.cardekho.com/overview/Toyota_Innova_Crysta/Toyota_Innova_Crysta_2.8_GX_AT.htm'
p187
V16.36 Lakh
p188
sS'https://www.cardekho.com/overview/ICML_Extreme/ICML_Extreme_SD_CRDFi_9Seater_BSIV.htm'
p189
V9.59 Lakh
p190
sS'https://www.cardekho.com/overview/Renault_Lodgy/Renault_Lodgy_World_Edition_85PS.htm'
p191
V10.18 Lakh
p192
sS'https://www.cardekho.com/overview/Toyota_Innova_Crysta/Toyota_Innova_Crysta_2.8_ZX_AT.htm'
p193
V21.18 Lakh
p194
sS'https://www.cardekho.com/overview/Tata_Aria/Tata_Aria_Pleasure_4x2.htm'
p195
V13.42 Lakh
p196
sS'https://www.cardekho.com/overview/ICML_Extreme/ICML_Extreme_SD_DI_9Seater_BSIII.htm'
p197
V8.8 Lakh
p198
sS'https://www.cardekho.com/overview/Maruti_Ertiga/Maruti_Ertiga_SHVS_ZDI.htm'
p199
V9.38 Lakh
p200
sS'https://www.cardekho.com/overview/Toyota_Innova/Toyota_Innova_2.5_G_(Diesel)_7_Seater_BS_IV.htm'
p201
V13.63 Lakh
p202
sS'https://www.cardekho.com/overview/Toyota_Innova_Crysta/Toyota_Innova_Crysta_2.4_VX_MT.htm'
p203
V17.93 Lakh
p204
sS'https://www.cardekho.com/overview/Honda_Mobilio/Honda_Mobilio_E_i-DTEC.htm'
p205
V9.2 Lakh
p206
sS'https://www.cardekho.com/overview/Maruti_Ertiga/Maruti_Ertiga_SHVS_LDI.htm'
p207
V8.09 Lakh
p208
sS'https://www.cardekho.com/overview/Datsun_GO_Plus/Datsun_GO_Plus_A.htm'
p209
V4.08 Lakh
p210
sS'https://www.cardekho.com/overview/ICML_Extreme/ICML_Extreme_LD_CRDFi_PS_AC_9Seater_BSIV.htm'
p211
V8.97 Lakh
p212
sS'https://www.cardekho.com/overview/ICML_Extreme/ICML_Extreme_LD_DI_PS_AC_9Seater_BSIII.htm'
p213
V8.15 Lakh
p214
sS'https://www.cardekho.com/overview/ICML_Extreme/ICML_Extreme_VD_CRDFi_7Seater_BSIV.htm'
p215
V10.27 Lakh
p216
sS'https://www.cardekho.com/overview/Honda_Mobilio/Honda_Mobilio_S_i-VTEC.htm'
p217
V8.7 Lakh
p218
sS'https://www.cardekho.com/overview/Toyota_Innova/Toyota_Innova_2.5_VX_(Diesel)_8_Seater_BS_IV.htm'
p219
V16.33 Lakh
p220
sS'https://www.cardekho.com/overview/ICML_Extreme/ICML_Extreme_LD_DI_Non-Ac_9Seater_BSIII.htm'
p221
V7.09 Lakh
p222
s.