(dp0
S'https://www.cardekho.com/overview/Mahindra_E_Verito/Mahindra_E_Verito_D6.htm'
p1
I1000000
sS'https://www.cardekho.com/overview/Honda_City/Honda_City_i_DTec_SV.htm'
p2
I1073000
sS'https://www.cardekho.com/overview/Honda_City/Honda_City_i_DTec_V.htm'
p3
I1142000
sS'https://www.cardekho.com/overview/Mercedes-Benz_S-Class/Mercedes-Benz_S-Class_S_Guard.htm'
p4
I90600000
sS'https://www.cardekho.com/overview/Toyota_Corolla_Altis/Toyota_Corolla_Altis_D-4D_GL.htm'
p5
I1784000
sS'https://www.cardekho.com/overview/Mahindra_E_Verito/Mahindra_E_Verito_D4.htm'
p6
I975000
sS'https://www.cardekho.com/overview/Skoda_Rapid/Skoda_Rapid_1.5_TDI_Style_Plus.htm'
p7
I1111000
sS'https://www.cardekho.com/overview/Hyundai_Verna/Hyundai_Verna_1.6_VTVT_S.htm'
p8
I922000
sS'https://www.cardekho.com/overview/Mahindra_Verito/Mahindra_Verito_1.5_Executive_edition.htm'
p9
I819999
sS'https://www.cardekho.com/overview/Maruti_Swift_Dzire/Maruti_Swift_Dzire_LDI.htm'
p10
I664000
sS'https://www.cardekho.com/overview/Toyota_Corolla_Altis/Toyota_Corolla_Altis_G_AT.htm'
p11
I1691000
sS'https://www.cardekho.com/overview/Hyundai_Xcent/Hyundai_Xcent_1.2_Kappa_S_Celebration_Edition.htm'
p12
I644000
sS'https://www.cardekho.com/overview/Volkswagen_Ameo/Volkswagen_Ameo_1.2_MPI_Highline.htm'
p13
I719000
sS'https://www.cardekho.com/overview/Hyundai_Xcent/Hyundai_Xcent_1.2_Kappa_SX_Option_AT.htm'
p14
I802999
sS'https://www.cardekho.com/overview/Honda_City/Honda_City_i_VTEC_V.htm'
p15
I1015000
sS'https://www.cardekho.com/overview/Volkswagen_Jetta/Volkswagen_Jetta_2.0L_TDI_Highline.htm'
p16
I1837000
sS'https://www.cardekho.com/overview/Tata_Zest/Tata_Zest_Quadrajet_1.3_XTA.htm'
p17
I867000
sS'https://www.cardekho.com/overview/Hyundai_Verna/Hyundai_Verna_1.6_VTVT_AT_SX.htm'
p18
I1078000
sS'https://www.cardekho.com/overview/Hyundai_Verna/Hyundai_Verna_1.6_CRDi_SX.htm'
p19
I1121000
sS'https://www.cardekho.com/overview/Hyundai_Verna/Hyundai_Verna_1.6_CRDi_AT_S.htm'
p20
I1138000
sS'https://www.cardekho.com/overview/Hyundai_Verna/Hyundai_Verna_1.6_VTVT_SX_Option.htm'
p21
I1103000
sS'https://www.cardekho.com/overview/Skoda_Superb/Skoda_Superb_Style_2.0_TDI_AT.htm'
p22
I2889000
sS'https://www.cardekho.com/overview/Tata_Zest/Tata_Zest_Revotron_1.2T_XMS.htm'
p23
I605000
sS'https://www.cardekho.com/overview/Honda_Amaze/Honda_Amaze_E_Option_i-VTEC.htm'
p24
I568000
sS'https://www.cardekho.com/overview/Audi_A6/Audi_A6_35_TFSI.htm'
p25
I5080000
sS'https://www.cardekho.com/overview/Volkswagen_Ameo/Volkswagen_Ameo_1.5_TDI_Comfortline_AT.htm'
p26
I925000
sS'https://www.cardekho.com/overview/Maruti_Ciaz/Maruti_Ciaz_AT_VXi_Plus.htm'
p27
I974000
sS'https://www.cardekho.com/overview/Tata_Zest/Tata_Zest_Quadrajet_1.3_75PS_XM.htm'
p28
I696000
sS'https://www.cardekho.com/overview/Hyundai_Xcent/Hyundai_Xcent_1.1_CRDi_SX_Option.htm'
p29
I824000
sS'https://www.cardekho.com/overview/Hyundai_Xcent/Hyundai_Xcent_1.1_CRDi_Base.htm'
p30
I643000
sS'https://www.cardekho.com/overview/Mercedes-Benz_E-Class/Mercedes-Benz_E-Class_E350_CDI_Avantgrade.htm'
p31
I6096000
sS'https://www.cardekho.com/overview/Nissan_Sunny/Nissan_Sunny_XV_CVT.htm'
p32
I1094000
sS'https://www.cardekho.com/overview/Nissan_Sunny/Nissan_Sunny_XL.htm'
p33
I844999
sS'https://www.cardekho.com/overview/Volvo_S60/Volvo_S60_D5_Inscription.htm'
p34
I4243000
sS'https://www.cardekho.com/overview/Honda_Amaze/Honda_Amaze_S_Option_CVT_i-VTEC.htm'
p35
I760000
sS'https://www.cardekho.com/overview/Fiat_Linea_Classic/Fiat_Linea_Classic_1.4_Petrol.htm'
p36
I658000
sS'https://www.cardekho.com/overview/Hyundai_Elantra/Hyundai_Elantra_2.0_S.htm'
p37
I1322000
sS'https://www.cardekho.com/overview/Hyundai_Xcent/Hyundai_Xcent_1.1_CRDi_SX.htm'
p38
I753000
sS'https://www.cardekho.com/overview/Honda_City/Honda_City_i_VTEC_S.htm'
p39
I903999
sS'https://www.cardekho.com/overview/Chevrolet_Sail/Chevrolet_Sail_1.2_Base.htm'
p40
I587000
sS'https://www.cardekho.com/overview/Tata_Indigo_CS/Tata_Indigo_CS_eGLS_BS_IV.htm'
p41
I501000
sS'https://www.cardekho.com/overview/Skoda_Octavia/Skoda_Octavia_Style_Plus_2.0_TDI_AT.htm'
p42
I2305000
sS'https://www.cardekho.com/overview/Toyota_Etios/Toyota_Etios_1.5_VX.htm'
p43
I783000
sS'https://www.cardekho.com/overview/Skoda_Octavia/Skoda_Octavia_Style_Plus_1.8_TSI_AT.htm'
p44
I2159000
sS'https://www.cardekho.com/overview/Tata_Zest/Tata_Zest_Quadrajet_1.3_75PS_XMS.htm'
p45
I724000
sS'https://www.cardekho.com/overview/Volkswagen_Vento/Volkswagen_Vento_Celeste_1.6_Highline.htm'
p46
I1033000
sS'https://www.cardekho.com/overview/Hyundai_Elantra/Hyundai_Elantra_2.0_SX_Option_AT.htm'
p47
I1830999
sS'https://www.cardekho.com/overview/Mercedes-Benz_E-Class/Mercedes-Benz_E-Class_E350_Edition_E.htm'
p48
I6470000
sS'https://www.cardekho.com/overview/Mercedes-Benz_S-Class/Mercedes-Benz_S-Class_S400.htm'
p49
I13100000
sS'https://www.cardekho.com/overview/Volkswagen_Jetta/Volkswagen_Jetta_1.4_TSI_Trendline.htm'
p50
I1441000
sS'https://www.cardekho.com/overview/Mercedes-Benz_E-Class/Mercedes-Benz_E-Class_E250_CDI_Avantgarde.htm'
p51
I5208000
sS'https://www.cardekho.com/overview/Maruti_Ciaz/Maruti_Ciaz_VDi_Plus_SHVS.htm'
p52
I933000
sS'https://www.cardekho.com/overview/Maruti_Swift_Dzire/Maruti_Swift_Dzire_VXI.htm'
p53
I606000
sS'https://www.cardekho.com/overview/Fiat_Linea_Classic/Fiat_Linea_Classic_1.3_Multijet.htm'
p54
I764000
sS'https://www.cardekho.com/overview/Honda_Amaze/Honda_Amaze_SX_i_VTEC.htm'
p55
I709000
sS'https://www.cardekho.com/overview/Tata_Indigo_CS/Tata_Indigo_CS_eLX_BS_IV.htm'
p56
I605000
sS'https://www.cardekho.com/overview/Mercedes-Benz_S-Class/Mercedes-Benz_S-Class_S_63_AMG.htm'
p57
I25200000
sS'https://www.cardekho.com/overview/Maruti_Ciaz/Maruti_Ciaz_RS_ZXi_Plus.htm'
p58
I948000
sS'https://www.cardekho.com/overview/Skoda_Rapid/Skoda_Rapid_1.5_TDI_AT_Style_Plus.htm'
p59
I1241000
sS'https://www.cardekho.com/overview/Volvo_S60/Volvo_S60_T6.htm'
p60
I4475000
sS'https://www.cardekho.com/overview/Hyundai_Xcent/Hyundai_Xcent_1.1_CRDi_S_Celebration_Edition.htm'
p61
I735000
sS'https://www.cardekho.com/overview/Fiat_Linea/Fiat_Linea_Power_Up_1.3_Dynamic.htm'
p62
I999000
sS'https://www.cardekho.com/overview/Toyota_Corolla_Altis/Toyota_Corolla_Altis_VL_AT.htm'
p63
I1896000
sS'https://www.cardekho.com/overview/Audi_A3/Audi_A3_35_TDI_Premium.htm'
p64
I2814000
sS'https://www.cardekho.com/overview/Honda_Amaze/Honda_Amaze_S_Option_i-VTEC.htm'
p65
I655000
sS'https://www.cardekho.com/overview/Hyundai_Elantra/Hyundai_Elantra_1.6_SX_Option_AT.htm'
p66
I1953000
sS'https://www.cardekho.com/overview/Fiat_Linea/Fiat_Linea_Power_Up_1.3_Emotion.htm'
p67
I1096000
sS'https://www.cardekho.com/overview/Mahindra_Verito/Mahindra_Verito_1.5_D6_BSIV.htm'
p68
I839000
sS'https://www.cardekho.com/overview/Volkswagen_Ameo/Volkswagen_Ameo_1.2_MPI_Trendline.htm'
p69
I544000
sS'https://www.cardekho.com/overview/Honda_Amaze/Honda_Amaze_S_CVT_i-VTEC.htm'
p70
I748000
sS'https://www.cardekho.com/overview/Skoda_Octavia/Skoda_Octavia_Ambition_2.0_TDI_MT.htm'
p71
I1898999
sS'https://www.cardekho.com/overview/Tata_Indigo_CS/Tata_Indigo_CS_eLS_BS_IV.htm'
p72
I587000
sS'https://www.cardekho.com/overview/Mercedes-Benz_New_C-Class/Mercedes-Benz_New_C-Class_C_220_CDI_Style.htm'
p73
I4034000
sS'https://www.cardekho.com/overview/Chevrolet_Cruze/Chevrolet_Cruze_LTZ.htm'
p74
I1671000
sS'https://www.cardekho.com/overview/Volvo_S60/Volvo_S60_D4_Momentum.htm'
p75
I3913000
sS'https://www.cardekho.com/overview/Toyota_Corolla_Altis/Toyota_Corolla_Altis_D-4D_J.htm'
p76
I1512000
sS'https://www.cardekho.com/overview/Volkswagen_Ameo/Volkswagen_Ameo_1.5_TDI_Highline_AT.htm'
p77
I994999
sS'https://www.cardekho.com/overview/Skoda_Octavia/Skoda_Octavia_Ambition_Plus_2.0_TDI_MT.htm'
p78
I1968000
sS'https://www.cardekho.com/overview/Skoda_Superb/Skoda_Superb_LK_1.8_TSI_AT.htm'
p79
I2942000
sS'https://www.cardekho.com/overview/Fiat_Linea/Fiat_Linea_Power_Up_1.4_Fire_Active.htm'
p80
I796000
sS'https://www.cardekho.com/overview/Skoda_Rapid/Skoda_Rapid_1.6_MPI_Ambition.htm'
p81
I932000
sS'https://www.cardekho.com/overview/Hyundai_Elantra/Hyundai_Elantra_1.6_SX.htm'
p82
I1668000
sS'https://www.cardekho.com/overview/Ford_Figo_Aspire/Ford_Figo_Aspire_1.5_TDCi_Titanium_Plus.htm'
p83
I805000
sS'https://www.cardekho.com/overview/Maruti_Swift_Dzire/Maruti_Swift_Dzire_AMT_ZDI.htm'
p84
I863000
sS'https://www.cardekho.com/overview/Nissan_Sunny/Nissan_Sunny_Diesel_XV.htm'
p85
I998000
sS'https://www.cardekho.com/overview/Honda_City/Honda_City_i_DTec_VX_Option.htm'
p86
I1275000
sS'https://www.cardekho.com/overview/Skoda_Superb/Skoda_Superb_Style_1.8_TSI_MT.htm'
p87
I2487000
sS'https://www.cardekho.com/overview/Volkswagen_Vento/Volkswagen_Vento_Celeste_1.5_TDI_Highline.htm'
p88
I1159000
sS'https://www.cardekho.com/overview/Toyota_Etios/Toyota_Etios_1.5_G.htm'
p89
I692000
sS'https://www.cardekho.com/overview/Honda_City/Honda_City_i_VTEC_VX.htm'
p90
I1122000
sS'https://www.cardekho.com/overview/Mercedes-Benz_S-Class/Mercedes-Benz_S-Class_Maybach_S600.htm'
p91
I26500000
sS'https://www.cardekho.com/overview/Mercedes-Benz_CLA/Mercedes-Benz_CLA_200_CGI.htm'
p92
I3447999
sS'https://www.cardekho.com/overview/Honda_Amaze/Honda_Amaze_E_i-DTEC.htm'
p93
I680000
sS'https://www.cardekho.com/overview/Tata_Zest/Tata_Zest_Quadrajet_1.3_75PS_XE.htm'
p94
I636000
sS'https://www.cardekho.com/overview/Mercedes-Benz_CLA/Mercedes-Benz_CLA_200_CDI_Style.htm'
p95
I3217000
sS'https://www.cardekho.com/overview/Skoda_Rapid/Skoda_Rapid_1.6_MPI_AT_Style_Plus.htm'
p96
I1110000
sS'https://www.cardekho.com/overview/Ford_Figo_Aspire/Ford_Figo_Aspire_1.5_TDCi_Trend.htm'
p97
I699000
sS'https://www.cardekho.com/overview/Nissan_Sunny/Nissan_Sunny_XV_D_Premium_Safety.htm'
p98
I1051000
sS'https://www.cardekho.com/overview/Hyundai_Elantra/Hyundai_Elantra_1.6_S.htm'
p99
I1505000
sS'https://www.cardekho.com/overview/Volkswagen_Ameo/Volkswagen_Ameo_1.5_TDI_Trendline.htm'
p100
I650000
sS'https://www.cardekho.com/overview/Maruti_Ciaz/Maruti_Ciaz_VXi_Option.htm'
p101
I813000
sS'https://www.cardekho.com/overview/Skoda_Octavia/Skoda_Octavia_Ambition_1.4_TSI_MT.htm'
p102
I1705999
sS'https://www.cardekho.com/overview/Toyota_Corolla_Altis/Toyota_Corolla_Altis_D-4D_Limited_Edition.htm'
p103
I1630000
sS'https://www.cardekho.com/overview/Mercedes-Benz_S-Class/Mercedes-Benz_S-Class_S_350_CDI.htm'
p104
I11900000
sS'https://www.cardekho.com/overview/Volkswagen_Jetta/Volkswagen_Jetta_2.0L_TDI_Comfortline.htm'
p105
I1670000
sS'https://www.cardekho.com/overview/Toyota_Corolla_Altis/Toyota_Corolla_Altis_1.8_Limited_Edition.htm'
p106
I1498000
sS'https://www.cardekho.com/overview/Mahindra_Verito/Mahindra_Verito_1.5_D4_BSIV.htm'
p107
I764000
sS'https://www.cardekho.com/overview/Mercedes-Benz_CLA/Mercedes-Benz_CLA_200_CDI_Sport.htm'
p108
I3552000
sS'https://www.cardekho.com/overview/Volkswagen_Ameo/Volkswagen_Ameo_1.2_MPI_Comfortline.htm'
p109
I621000
sS'https://www.cardekho.com/overview/Toyota_Etios/Toyota_Etios_1.4_VXD.htm'
p110
I896000
sS'https://www.cardekho.com/overview/Hyundai_Elantra/Hyundai_Elantra_1.6_SX_Option.htm'
p111
I1800000
sS'https://www.cardekho.com/overview/Skoda_Octavia/Skoda_Octavia_Ambition_2.0_TDI_AT.htm'
p112
I2035000
sS'https://www.cardekho.com/overview/Honda_City/Honda_City_i_DTec_VX_Option_BL.htm'
p113
I1275000
sS'https://www.cardekho.com/overview/Skoda_Rapid/Skoda_Rapid_1.6_MPI_AT_Style.htm'
p114
I1074000
sS'https://www.cardekho.com/overview/Mercedes-Benz_E-Class/Mercedes-Benz_E-Class_E_63_AMG.htm'
p115
I13100000
sS'https://www.cardekho.com/overview/Chevrolet_Sail/Chevrolet_Sail_1.3_Base.htm'
p116
I720000
sS'https://www.cardekho.com/overview/Tata_Zest/Tata_Zest_Quadrajet_1.3_XT.htm'
p117
I786000
sS'https://www.cardekho.com/overview/Maruti_Ciaz/Maruti_Ciaz_ZDi_Plus_SHVS.htm'
p118
I1071000
sS'https://www.cardekho.com/overview/Mercedes-Benz_E-Class/Mercedes-Benz_E-Class_E200_Edition_E.htm'
p119
I5188000
sS'https://www.cardekho.com/overview/Ford_Mustang/Ford_Mustang_V8.htm'
p120
I6609000
sS'https://www.cardekho.com/overview/Maruti_Ciaz/Maruti_Ciaz_VDi_Option_SHVS.htm'
p121
I888000
sS'https://www.cardekho.com/overview/Tata_Zest/Tata_Zest_Revotron_1.2_XT.htm'
p122
I665000
sS'https://www.cardekho.com/overview/Toyota_Etios/Toyota_Etios_1.5_V.htm'
p123
I726000
sS'https://www.cardekho.com/overview/Maruti_Swift_Dzire/Maruti_Swift_Dzire_LXI_Option.htm'
p124
I535000
sS'https://www.cardekho.com/overview/Maruti_Swift_Dzire/Maruti_Swift_Dzire_ZXI.htm'
p125
I704000
sS'https://www.cardekho.com/overview/Tata_Indigo_CS/Tata_Indigo_CS_eVX.htm'
p126
I620000
sS'https://www.cardekho.com/overview/Tata_Indigo_CS/Tata_Indigo_CS_LS_(TDI)_BS-III.htm'
p127
I554000
sS'https://www.cardekho.com/overview/Maruti_Swift_Dzire/Maruti_Swift_Dzire_ZDI.htm'
p128
I811999
sS'https://www.cardekho.com/overview/Mercedes-Benz_New_C-Class/Mercedes-Benz_New_C-Class_C_63_S_AMG.htm'
p129
I13200000
sS'https://www.cardekho.com/overview/Toyota_Etios/Toyota_Etios_1.4_VD.htm'
p130
I839000
sS'https://www.cardekho.com/overview/Hyundai_Verna/Hyundai_Verna_1.6_CRDI_AT_SX_Option.htm'
p131
I1333000
sS'https://www.cardekho.com/overview/Maruti_Swift_Dzire/Maruti_Swift_Dzire_LXI.htm'
p132
I531000
sS'https://www.cardekho.com/overview/Honda_City/Honda_City_i_VTEC_VX_Option_BL.htm'
p133
I1153000
sS'https://www.cardekho.com/overview/Renault_Scala/Renault_Scala_Diesel_RxZ.htm'
p134
I949000
sS'https://www.cardekho.com/overview/Honda_City/Honda_City_i_VTEC_CVT_VX.htm'
p135
I1234000
sS'https://www.cardekho.com/overview/Volkswagen_Vento/Volkswagen_Vento_Celeste_1.2_TSI_Highline_AT.htm'
p136
I1151000
sS'https://www.cardekho.com/overview/Skoda_Rapid/Skoda_Rapid_1.6_MPI_Style_Plus.htm'
p137
I1002000
sS'https://www.cardekho.com/overview/Hyundai_Xcent/Hyundai_Xcent_1.2_Kappa_Base.htm'
p138
I555000
sS'https://www.cardekho.com/overview/Toyota_Corolla_Altis/Toyota_Corolla_Altis_GL_MT.htm'
p139
I1757000
sS'https://www.cardekho.com/overview/Mercedes-Benz_E-Class/Mercedes-Benz_E-Class_E400_Cabriolet.htm'
p140
I8168000
sS'https://www.cardekho.com/overview/Skoda_Rapid/Skoda_Rapid_1.6_MPI_Style_Plus_Black_Package.htm'
p141
I1015000
sS'https://www.cardekho.com/overview/Audi_A3/Audi_A3_40_TFSI_Premium.htm'
p142
I2815000
sS'https://www.cardekho.com/overview/Nissan_Sunny/Nissan_Sunny_XE.htm'
p143
I797000
sS'https://www.cardekho.com/overview/Maruti_Ciaz/Maruti_Ciaz_RS_ZDi_Plus_SHVS.htm'
p144
I964000
sS'https://www.cardekho.com/overview/Chevrolet_Sail/Chevrolet_Sail_1.2_LT_ABS.htm'
p145
I730000
sS'https://www.cardekho.com/overview/Renault_Scala/Renault_Scala_Diesel_RxL.htm'
p146
I907000
sS'https://www.cardekho.com/overview/Maruti_Swift_Dzire/Maruti_Swift_Dzire_LDI_Optional.htm'
p147
I685000
sS'https://www.cardekho.com/overview/Mercedes-Benz_CLA/Mercedes-Benz_CLA_45_AMG.htm'
p148
I6970999
sS'https://www.cardekho.com/overview/Nissan_Sunny/Nissan_Sunny_Diesel_XE.htm'
p149
I885000
sS'https://www.cardekho.com/overview/Volkswagen_Jetta/Volkswagen_Jetta_1.4_TSI_Comfortline.htm'
p150
I1534000
sS'https://www.cardekho.com/overview/Hyundai_Elantra/Hyundai_Elantra_2.0_SX_Option.htm'
p151
I1688000
sS'https://www.cardekho.com/overview/Toyota_Camry/Toyota_Camry_2.5_G.htm'
p152
I3052000
sS'https://www.cardekho.com/overview/Volkswagen_Vento/Volkswagen_Vento_1.5_TDI_Comfortline_AT.htm'
p153
I1180000
sS'https://www.cardekho.com/overview/Chevrolet_Sail/Chevrolet_Sail_1.2_LS.htm'
p154
I644000
sS'https://www.cardekho.com/overview/Volvo_S60/Volvo_S60_D4_KINETIC.htm'
p155
I3361999
sS'https://www.cardekho.com/overview/Chevrolet_Sail/Chevrolet_Sail_LT_ABS.htm'
p156
I859000
sS'https://www.cardekho.com/overview/Chevrolet_Sail/Chevrolet_Sail_LS_ABS.htm'
p157
I796000
sS'https://www.cardekho.com/overview/Hyundai_Elantra/Hyundai_Elantra_2.0_SX_AT.htm'
p158
I1617000
sS'https://www.cardekho.com/overview/Maruti_Swift_Dzire/Maruti_Swift_Dzire_VDI_Optional.htm'
p159
I725000
sS'https://www.cardekho.com/overview/Maruti_Ciaz/Maruti_Ciaz_ZDi_SHVS.htm'
p160
I984000
sS'https://www.cardekho.com/overview/Tata_Zest/Tata_Zest_Revotron_1.2T_XM.htm'
p161
I584000
sS'https://www.cardekho.com/overview/Nissan_Sunny/Nissan_Sunny_Diesel_XL.htm'
p162
I951000
sS'https://www.cardekho.com/overview/Volkswagen_Ameo/Volkswagen_Ameo_1.5_TDI_Comfortline.htm'
p163
I780000
sS'https://www.cardekho.com/overview/Skoda_Rapid/Skoda_Rapid_1.5_TDI_Ambition.htm'
p164
I1041000
sS'https://www.cardekho.com/overview/Ford_Figo_Aspire/Ford_Figo_Aspire_1.2_Ti-VCT_Ambiente.htm'
p165
I538000
sS'https://www.cardekho.com/overview/Volkswagen_Ameo/Volkswagen_Ameo_1.5_TDI_Highline.htm'
p166
I860000
sS'https://www.cardekho.com/overview/Fiat_Linea/Fiat_Linea_Power_Up_1.3_Active.htm'
p167
I919000
sS'https://www.cardekho.com/overview/Honda_Amaze/Honda_Amaze_SX_i_DTEC.htm'
p168
I813000
sS'https://www.cardekho.com/overview/Audi_A3/Audi_A3_35_TDI_Premium_Plus.htm'
p169
I3188000
sS'https://www.cardekho.com/overview/Maruti_Swift_Dzire/Maruti_Swift_Dzire_VXI_Optional.htm'
p170
I627000
sS'https://www.cardekho.com/overview/Volkswagen_Vento/Volkswagen_Vento_1.5_TDI_Trendline.htm'
p171
I956000
sS'https://www.cardekho.com/overview/Toyota_Corolla_Altis/Toyota_Corolla_Altis_D-4D_G.htm'
p172
I1673000
sS'https://www.cardekho.com/overview/Skoda_Superb/Skoda_Superb_Style_1.8_TSI_AT.htm'
p173
I2621000
sS'https://www.cardekho.com/overview/Mahindra_Verito/Mahindra_Verito_1.5_D2_BSIV.htm'
p174
I739000
sS'https://www.cardekho.com/overview/Honda_City/Honda_City_i_DTec_E.htm'
p175
I960000
sS'https://www.cardekho.com/overview/Chevrolet_Cruze/Chevrolet_Cruze_LT.htm'
p176
I1395000
sS'https://www.cardekho.com/overview/Maruti_Ciaz/Maruti_Ciaz_AT_ZXi.htm'
p177
I1024000
sS'https://www.cardekho.com/overview/Volkswagen_Vento/Volkswagen_Vento_1.5_TDI_Comfortline.htm'
p178
I1050000
sS'https://www.cardekho.com/overview/Skoda_Octavia/Skoda_Octavia_Ambition_Plus_2.0_TDI_AT.htm'
p179
I2105000
sS'https://www.cardekho.com/overview/Chevrolet_Sail/Chevrolet_Sail_1.3_LS.htm'
p180
I763000
sS'https://www.cardekho.com/overview/Renault_Scala/Renault_Scala_RxL.htm'
p181
I800000
sS'https://www.cardekho.com/overview/Honda_Amaze/Honda_Amaze_S_Option_i-DTEC.htm'
p182
I773000
sS'https://www.cardekho.com/overview/Toyota_Corolla_Altis/Toyota_Corolla_Altis_G_MT.htm'
p183
I1561000
sS'https://www.cardekho.com/overview/Tata_Zest/Tata_Zest_Revotron_1.2T_XE.htm'
p184
I520000
sS'https://www.cardekho.com/overview/Hyundai_Verna/Hyundai_Verna_1.6_CRDI_SX_Option.htm'
p185
I1250000
sS'https://www.cardekho.com/overview/Mercedes-Benz_New_C-Class/Mercedes-Benz_New_C-Class_C_220_CDI_Avantgarde.htm'
p186
I4315000
sS'https://www.cardekho.com/overview/Maruti_Ciaz/Maruti_Ciaz_VXi.htm'
p187
I795000
sS'https://www.cardekho.com/overview/Volkswagen_Vento/Volkswagen_Vento_1.6_Comfortline.htm'
p188
I923000
sS'https://www.cardekho.com/overview/Mercedes-Benz_S-Class/Mercedes-Benz_S-Class_S_500_Coupe.htm'
p189
I20900000
sS'https://www.cardekho.com/overview/Hyundai_Xcent/Hyundai_Xcent_1.2_Kappa_S_AT.htm'
p190
I704000
sS'https://www.cardekho.com/overview/Ford_Figo_Aspire/Ford_Figo_Aspire_1.2_Ti-VCT_Trend.htm'
p191
I587000
sS'https://www.cardekho.com/overview/Skoda_Octavia/Skoda_Octavia_Ambition_Plus_1.8_TSI_AT.htm'
p192
I1939999
sS'https://www.cardekho.com/overview/Maruti_Swift_Dzire/Maruti_Swift_Dzire_VDI.htm'
p193
I713000
sS'https://www.cardekho.com/overview/Hyundai_Xcent/Hyundai_Xcent_1.2_Kappa_S.htm'
p194
I627000
sS'https://www.cardekho.com/overview/Audi_A6/Audi_A6_35_TFSI_Matrix.htm'
p195
I5355000
sS'https://www.cardekho.com/overview/Chevrolet_Sail/Chevrolet_Sail_1.2_LS_ABS.htm'
p196
I682000
sS'https://www.cardekho.com/overview/Honda_Amaze/Honda_Amaze_VX_CVT_i-VTEC.htm'
p197
I848000
sS'https://www.cardekho.com/overview/Mercedes-Benz_S-Class/Mercedes-Benz_S-Class_S_63_AMG_Coupe.htm'
p198
I26700000
sS'https://www.cardekho.com/overview/Volkswagen_Vento/Volkswagen_Vento_1.5_TDI_Highline.htm'
p199
I1149000
sS'https://www.cardekho.com/overview/Chevrolet_Cruze/Chevrolet_Cruze_LTZ_AT.htm'
p200
I1776000
sS'https://www.cardekho.com/overview/Volkswagen_Vento/Volkswagen_Vento_1.2_TSI_Highline_AT.htm'
p201
I1142000
sS'https://www.cardekho.com/overview/Mercedes-Benz_E-Class/Mercedes-Benz_E-Class_E250_Edition_E.htm'
p202
I5419000
sS'https://www.cardekho.com/overview/Toyota_Corolla_Altis/Toyota_Corolla_Altis_JS_MT.htm'
p203
I1408000
sS'https://www.cardekho.com/overview/Honda_Amaze/Honda_Amaze_S_i-DTEC.htm'
p204
I761000
sS'https://www.cardekho.com/overview/Fiat_Linea/Fiat_Linea_125S.htm'
p205
I1065000
sS'https://www.cardekho.com/overview/Hyundai_Xcent/Hyundai_Xcent_1.2_Kappa_SX_Option.htm'
p206
I730000
sS'https://www.cardekho.com/overview/Fiat_Linea_Classic/Fiat_Linea_Classic_Plus_1.3_Multijet.htm'
p207
I823000
sS'https://www.cardekho.com/overview/Volkswagen_Vento/Volkswagen_Vento_1.6_Trendline.htm'
p208
I833000
sS'https://www.cardekho.com/overview/Volkswagen_Jetta/Volkswagen_Jetta_2.0L_TDI_Trendline.htm'
p209
I1520000
sS'https://www.cardekho.com/overview/Tata_Indigo_CS/Tata_Indigo_CS_Emax_CNG_GLS.htm'
p210
I509999
sS'https://www.cardekho.com/overview/Ford_Figo_Aspire/Ford_Figo_Aspire_1.2_Ti-VCT_Titanium_Plus.htm'
p211
I693000
sS'https://www.cardekho.com/overview/Honda_City/Honda_City_i_DTec_S.htm'
p212
I1027000
sS'https://www.cardekho.com/overview/Skoda_Superb/Skoda_Superb_LK_2.0_TDI_AT.htm'
p213
I3210000
sS'https://www.cardekho.com/overview/Honda_City/Honda_City_i_VTEC_CVT_SV.htm'
p214
I1062000
sS'https://www.cardekho.com/overview/Hyundai_Xcent/Hyundai_Xcent_1.1_CRDi_S.htm'
p215
I718000
sS'https://www.cardekho.com/overview/Hyundai_Verna/Hyundai_Verna_1.4_CRDi.htm'
p216
I931000
sS'https://www.cardekho.com/overview/Honda_Amaze/Honda_Amaze_VX_i-VTEC.htm'
p217
I748000
sS'https://www.cardekho.com/overview/Hyundai_Verna/Hyundai_Verna_1.6_CRDi_S.htm'
p218
I1048000
sS'https://www.cardekho.com/overview/Skoda_Rapid/Skoda_Rapid_1.5_TDI_AT_Style_Plus_Black_Package.htm'
p219
I1254000
sS'https://www.cardekho.com/overview/Toyota_Corolla_Altis/Toyota_Corolla_Altis_D-4D_JS.htm'
p220
I1532000
sS'https://www.cardekho.com/overview/Maruti_Swift_Dzire/Maruti_Swift_Dzire_LXI_Optional-O.htm'
p221
I556000
sS'https://www.cardekho.com/overview/Volkswagen_Jetta/Volkswagen_Jetta_2.0L_TDI_Highline_AT.htm'
p222
I1923999
sS'https://www.cardekho.com/overview/Hyundai_Verna/Hyundai_Verna_1.4_VTVT.htm'
p223
I802000
sS'https://www.cardekho.com/overview/Honda_Amaze/Honda_Amaze_E_Option_i-DTEC.htm'
p224
I692000
sS'https://www.cardekho.com/overview/Skoda_Rapid/Skoda_Rapid_1.5_TDI_Style_Plus_Black_Package.htm'
p225
I1124000
sS'https://www.cardekho.com/overview/Honda_City/Honda_City_i_VTEC_SV.htm'
p226
I959000
sS'https://www.cardekho.com/overview/Tata_Zest/Tata_Zest_Quadrajet_1.3_XMA.htm'
p227
I782000
sS'https://www.cardekho.com/overview/Mercedes-Benz_S-Class/Mercedes-Benz_S-Class_Maybach_S500.htm'
p228
I17300000
sS'https://www.cardekho.com/overview/Ford_Figo_Aspire/Ford_Figo_Aspire_1.5_TDCi_Ambiente.htm'
p229
I650000
sS'https://www.cardekho.com/overview/Honda_City/Honda_City_i_VTEC_E.htm'
p230
I833000
sS'https://www.cardekho.com/overview/Honda_Amaze/Honda_Amaze_S_i-VTEC.htm'
p231
I641000
sS'https://www.cardekho.com/overview/Ford_Figo_Aspire/Ford_Figo_Aspire_1.2_Ti-VCT_Titanium.htm'
p232
I611000
sS'https://www.cardekho.com/overview/Maruti_Ciaz/Maruti_Ciaz_VDI_SHVS.htm'
p233
I873000
sS'https://www.cardekho.com/overview/Hyundai_Verna/Hyundai_Verna_1.6_SX_VTVT.htm'
p234
I994999
sS'https://www.cardekho.com/overview/Honda_Amaze/Honda_Amaze_VX_i_DTEC.htm'
p235
I853999
sS'https://www.cardekho.com/overview/Toyota_Camry/Toyota_Camry_Hybrid.htm'
p236
I3344000
sS'https://www.cardekho.com/overview/Hyundai_Verna/Hyundai_Verna_1.6_VTVT_AT_S.htm'
p237
I1011999
sS'https://www.cardekho.com/overview/Ford_Figo_Aspire/Ford_Figo_Aspire_1.5_TDCi_Titanium.htm'
p238
I722000
sS'https://www.cardekho.com/overview/Volkswagen_Vento/Volkswagen_Vento_1.5_TDI_Highline_AT.htm'
p239
I1273000
sS'https://www.cardekho.com/overview/Mercedes-Benz_E-Class/Mercedes-Benz_E-Class_E_200_CGI.htm'
p240
I5188000
sS'https://www.cardekho.com/overview/Mahindra_E_Verito/Mahindra_E_Verito_D2.htm'
p241
I950000
sS'https://www.cardekho.com/overview/Honda_City/Honda_City_i_DTec_VX.htm'
p242
I1245000
sS'https://www.cardekho.com/overview/Audi_A3/Audi_A3_35_TDI_Technology.htm'
p243
I3694000
sS'https://www.cardekho.com/overview/Volkswagen_Vento/Volkswagen_Vento_Celeste_1.5_TDI_Highline_AT.htm'
p244
I1283000
sS'https://www.cardekho.com/overview/Fiat_Linea_Classic/Fiat_Linea_Classic_Plus_With_Alloy_1.3_Multijet.htm'
p245
I839000
sS'https://www.cardekho.com/overview/Maruti_Ciaz/Maruti_Ciaz_ZXi_Plus.htm'
p246
I978999
sS'https://www.cardekho.com/overview/Hyundai_Elantra/Hyundai_Elantra_2.0_SX.htm'
p247
I1505000
sS'https://www.cardekho.com/overview/Skoda_Rapid/Skoda_Rapid_1.5_TDI_Active.htm'
p248
I926000
sS'https://www.cardekho.com/overview/Maruti_Ciaz/Maruti_Ciaz_VXi_Plus.htm'
p249
I855000
sS'https://www.cardekho.com/overview/Tata_Indigo_CS/Tata_Indigo_CS_LX_(TDI)_BS-III.htm'
p250
I578000
sS'https://www.cardekho.com/overview/Ford_Figo_Aspire/Ford_Figo_Aspire_1.5_Ti-VCT_Titanium.htm'
p251
I835000
sS'https://www.cardekho.com/overview/Audi_A6/Audi_A6_35_TDI.htm'
p252
I5355000
sS'https://www.cardekho.com/overview/Honda_City/Honda_City_i_VTEC_VX_Option.htm'
p253
I1153000
sS'https://www.cardekho.com/overview/Skoda_Rapid/Skoda_Rapid_1.6_MPI_Active.htm'
p254
I817000
sS'https://www.cardekho.com/overview/Hyundai_Xcent/Hyundai_Xcent_1.2_Kappa_SX.htm'
p255
I660000
sS'https://www.cardekho.com/overview/Maruti_Swift_Dzire/Maruti_Swift_Dzire_VXI_AT_Optional.htm'
p256
I712000
sS'https://www.cardekho.com/overview/Volkswagen_Vento/Volkswagen_Vento_1.6_Highline.htm'
p257
I1015000
sS'https://www.cardekho.com/overview/Maruti_Swift_Dzire/Maruti_Swift_Dzire_VXi_AT.htm'
p258
I692000
sS'https://www.cardekho.com/overview/Honda_Amaze/Honda_Amaze_E_i-VTEC.htm'
p259
I556000
sS'https://www.cardekho.com/overview/Mercedes-Benz_S-Class/Mercedes-Benz_S-Class_Maybach_S600_Guard.htm'
p260
I112500000
sS'https://www.cardekho.com/overview/Volkswagen_Vento/Volkswagen_Vento_1.2_TSI_Comfortline_AT.htm'
p261
I1049000
sS'https://www.cardekho.com/overview/Skoda_Rapid/Skoda_Rapid_1.5_TDI_AT_Ambition.htm'
p262
I1171000
sS'https://www.cardekho.com/overview/Mercedes-Benz_New_C-Class/Mercedes-Benz_New_C-Class_C_200_CGI.htm'
p263
I4214000
sS'https://www.cardekho.com/overview/Maruti_Ciaz/Maruti_Ciaz_ZXi.htm'
p264
I923000
sS'https://www.cardekho.com/overview/Toyota_Etios/Toyota_Etios_1.4_GD.htm'
p265
I805000
s.