(dp0
S'https://www.cardekho.com/overview/Mahindra_E_Verito/Mahindra_E_Verito_D6.htm'
p1
V10.0 Lakh
p2
sS'https://www.cardekho.com/overview/Hyundai_Xcent/Hyundai_Xcent_1.2_Kappa_S_AT.htm'
p3
V7.04 Lakh
p4
sS'https://www.cardekho.com/overview/Mercedes-Benz_S-Class/Mercedes-Benz_S-Class_S_Guard.htm'
p5
V9.06 Cr
p6
sS'https://www.cardekho.com/overview/Honda_City/Honda_City_i_DTec_V.htm'
p7
V11.42 Lakh
p8
sS'https://www.cardekho.com/overview/Skoda_Rapid/Skoda_Rapid_1.5_TDI_AT_Style_Plus.htm'
p9
V12.41 Lakh
p10
sS'https://www.cardekho.com/overview/Chevrolet_Sail/Chevrolet_Sail_LT_ABS.htm'
p11
V8.59 Lakh
p12
sS'https://www.cardekho.com/overview/Toyota_Corolla_Altis/Toyota_Corolla_Altis_D-4D_GL.htm'
p13
V17.84 Lakh
p14
sS'https://www.cardekho.com/overview/Mahindra_E_Verito/Mahindra_E_Verito_D4.htm'
p15
V9.75 Lakh
p16
sS'https://www.cardekho.com/overview/Hyundai_Verna/Hyundai_Verna_1.6_VTVT_S.htm'
p17
V9.22 Lakh
p18
sS'https://www.cardekho.com/overview/Honda_City/Honda_City_i_DTec_SV.htm'
p19
V10.73 Lakh
p20
sS'https://www.cardekho.com/overview/Mahindra_Verito/Mahindra_Verito_1.5_Executive_edition.htm'
p21
V8.2 Lakh
p22
sS'https://www.cardekho.com/overview/Maruti_Swift_Dzire/Maruti_Swift_Dzire_LDI.htm'
p23
V6.64 Lakh
p24
sS'https://www.cardekho.com/overview/Toyota_Corolla_Altis/Toyota_Corolla_Altis_G_AT.htm'
p25
V16.91 Lakh
p26
sS'https://www.cardekho.com/overview/Hyundai_Xcent/Hyundai_Xcent_1.2_Kappa_S_Celebration_Edition.htm'
p27
V6.44 Lakh
p28
sS'https://www.cardekho.com/overview/Hyundai_Xcent/Hyundai_Xcent_1.2_Kappa_SX_Option_AT.htm'
p29
V8.03 Lakh
p30
sS'https://www.cardekho.com/overview/Honda_City/Honda_City_i_VTEC_V.htm'
p31
V10.15 Lakh
p32
sS'https://www.cardekho.com/overview/Volkswagen_Jetta/Volkswagen_Jetta_2.0L_TDI_Highline.htm'
p33
V18.37 Lakh
p34
sS'https://www.cardekho.com/overview/Honda_Amaze/Honda_Amaze_E_i-DTEC.htm'
p35
V6.8 Lakh
p36
sS'https://www.cardekho.com/overview/Hyundai_Verna/Hyundai_Verna_1.6_VTVT_AT_SX.htm'
p37
V10.78 Lakh
p38
sS'https://www.cardekho.com/overview/Hyundai_Verna/Hyundai_Verna_1.6_CRDi_SX.htm'
p39
V11.21 Lakh
p40
sS'https://www.cardekho.com/overview/Hyundai_Verna/Hyundai_Verna_1.6_CRDi_AT_S.htm'
p41
V11.38 Lakh
p42
sS'https://www.cardekho.com/overview/Hyundai_Verna/Hyundai_Verna_1.6_VTVT_SX_Option.htm'
p43
V11.03 Lakh
p44
sS'https://www.cardekho.com/overview/Skoda_Superb/Skoda_Superb_Style_2.0_TDI_AT.htm'
p45
V28.89 Lakh
p46
sS'https://www.cardekho.com/overview/Mercedes-Benz_New_C-Class/Mercedes-Benz_New_C-Class_C_63_S_AMG.htm'
p47
V1.32 Cr
p48
sS'https://www.cardekho.com/overview/Honda_Amaze/Honda_Amaze_E_Option_i-VTEC.htm'
p49
V5.68 Lakh
p50
sS'https://www.cardekho.com/overview/Audi_A6/Audi_A6_35_TFSI.htm'
p51
V50.8 Lakh
p52
sS'https://www.cardekho.com/overview/Volkswagen_Ameo/Volkswagen_Ameo_1.5_TDI_Comfortline_AT.htm'
p53
V9.25 Lakh
p54
sS'https://www.cardekho.com/overview/Maruti_Ciaz/Maruti_Ciaz_AT_VXi_Plus.htm'
p55
V9.74 Lakh
p56
sS'https://www.cardekho.com/overview/Tata_Zest/Tata_Zest_Quadrajet_1.3_75PS_XM.htm'
p57
V6.96 Lakh
p58
sS'https://www.cardekho.com/overview/Hyundai_Xcent/Hyundai_Xcent_1.1_CRDi_SX_Option.htm'
p59
V8.24 Lakh
p60
sS'https://www.cardekho.com/overview/Hyundai_Xcent/Hyundai_Xcent_1.1_CRDi_Base.htm'
p61
V6.43 Lakh
p62
sS'https://www.cardekho.com/overview/Mercedes-Benz_E-Class/Mercedes-Benz_E-Class_E350_CDI_Avantgrade.htm'
p63
V60.96 Lakh
p64
sS'https://www.cardekho.com/overview/Nissan_Sunny/Nissan_Sunny_XV_CVT.htm'
p65
V10.94 Lakh
p66
sS'https://www.cardekho.com/overview/Nissan_Sunny/Nissan_Sunny_XL.htm'
p67
V8.45 Lakh
p68
sS'https://www.cardekho.com/overview/Chevrolet_Sail/Chevrolet_Sail_1.2_LT_ABS.htm'
p69
V7.3 Lakh
p70
sS'https://www.cardekho.com/overview/Volvo_S60/Volvo_S60_D5_Inscription.htm'
p71
V42.43 Lakh
p72
sS'https://www.cardekho.com/overview/Honda_Amaze/Honda_Amaze_S_Option_CVT_i-VTEC.htm'
p73
V7.6 Lakh
p74
sS'https://www.cardekho.com/overview/Fiat_Linea_Classic/Fiat_Linea_Classic_1.4_Petrol.htm'
p75
V6.58 Lakh
p76
sS'https://www.cardekho.com/overview/Hyundai_Elantra/Hyundai_Elantra_2.0_S.htm'
p77
V13.22 Lakh
p78
sS'https://www.cardekho.com/overview/Hyundai_Xcent/Hyundai_Xcent_1.1_CRDi_SX.htm'
p79
V7.53 Lakh
p80
sS'https://www.cardekho.com/overview/Honda_City/Honda_City_i_VTEC_S.htm'
p81
V9.04 Lakh
p82
sS'https://www.cardekho.com/overview/Chevrolet_Sail/Chevrolet_Sail_1.2_Base.htm'
p83
V5.87 Lakh
p84
sS'https://www.cardekho.com/overview/Tata_Indigo_CS/Tata_Indigo_CS_eGLS_BS_IV.htm'
p85
V5.01 Lakh
p86
sS'https://www.cardekho.com/overview/Skoda_Octavia/Skoda_Octavia_Style_Plus_2.0_TDI_AT.htm'
p87
V23.05 Lakh
p88
sS'https://www.cardekho.com/overview/Toyota_Etios/Toyota_Etios_1.5_VX.htm'
p89
V7.83 Lakh
p90
sS'https://www.cardekho.com/overview/Skoda_Octavia/Skoda_Octavia_Style_Plus_1.8_TSI_AT.htm'
p91
V21.59 Lakh
p92
sS'https://www.cardekho.com/overview/Tata_Zest/Tata_Zest_Quadrajet_1.3_75PS_XMS.htm'
p93
V7.24 Lakh
p94
sS'https://www.cardekho.com/overview/Volkswagen_Vento/Volkswagen_Vento_Celeste_1.6_Highline.htm'
p95
V10.33 Lakh
p96
sS'https://www.cardekho.com/overview/Hyundai_Elantra/Hyundai_Elantra_2.0_SX_Option_AT.htm'
p97
V18.31 Lakh
p98
sS'https://www.cardekho.com/overview/Mercedes-Benz_E-Class/Mercedes-Benz_E-Class_E350_Edition_E.htm'
p99
V64.7 Lakh
p100
sS'https://www.cardekho.com/overview/Mercedes-Benz_S-Class/Mercedes-Benz_S-Class_S400.htm'
p101
V1.31 Cr
p102
sS'https://www.cardekho.com/overview/Volkswagen_Jetta/Volkswagen_Jetta_1.4_TSI_Trendline.htm'
p103
V14.41 Lakh
p104
sS'https://www.cardekho.com/overview/Mercedes-Benz_E-Class/Mercedes-Benz_E-Class_E250_CDI_Avantgarde.htm'
p105
V52.08 Lakh
p106
sS'https://www.cardekho.com/overview/Maruti_Ciaz/Maruti_Ciaz_VDi_Plus_SHVS.htm'
p107
V9.33 Lakh
p108
sS'https://www.cardekho.com/overview/Maruti_Swift_Dzire/Maruti_Swift_Dzire_VXI.htm'
p109
V6.06 Lakh
p110
sS'https://www.cardekho.com/overview/Fiat_Linea_Classic/Fiat_Linea_Classic_1.3_Multijet.htm'
p111
V7.64 Lakh
p112
sS'https://www.cardekho.com/overview/Honda_Amaze/Honda_Amaze_SX_i_VTEC.htm'
p113
V7.09 Lakh
p114
sS'https://www.cardekho.com/overview/Tata_Indigo_CS/Tata_Indigo_CS_eLX_BS_IV.htm'
p115
V6.05 Lakh
p116
sS'https://www.cardekho.com/overview/Mercedes-Benz_S-Class/Mercedes-Benz_S-Class_S_63_AMG.htm'
p117
V2.52 Cr
p118
sS'https://www.cardekho.com/overview/Maruti_Ciaz/Maruti_Ciaz_RS_ZXi_Plus.htm'
p119
V9.48 Lakh
p120
sS'https://www.cardekho.com/overview/Tata_Zest/Tata_Zest_Revotron_1.2_XT.htm'
p121
V6.65 Lakh
p122
sS'https://www.cardekho.com/overview/Volvo_S60/Volvo_S60_T6.htm'
p123
V44.75 Lakh
p124
sS'https://www.cardekho.com/overview/Hyundai_Xcent/Hyundai_Xcent_1.1_CRDi_S_Celebration_Edition.htm'
p125
V7.35 Lakh
p126
sS'https://www.cardekho.com/overview/Fiat_Linea/Fiat_Linea_Power_Up_1.3_Dynamic.htm'
p127
V9.99 Lakh
p128
sS'https://www.cardekho.com/overview/Toyota_Corolla_Altis/Toyota_Corolla_Altis_VL_AT.htm'
p129
V18.96 Lakh
p130
sS'https://www.cardekho.com/overview/Audi_A3/Audi_A3_35_TDI_Premium.htm'
p131
V28.14 Lakh
p132
sS'https://www.cardekho.com/overview/Honda_Amaze/Honda_Amaze_S_Option_i-VTEC.htm'
p133
V6.55 Lakh
p134
sS'https://www.cardekho.com/overview/Hyundai_Elantra/Hyundai_Elantra_1.6_SX_Option_AT.htm'
p135
V19.53 Lakh
p136
sS'https://www.cardekho.com/overview/Fiat_Linea/Fiat_Linea_Power_Up_1.3_Emotion.htm'
p137
V10.96 Lakh
p138
sS'https://www.cardekho.com/overview/Nissan_Sunny/Nissan_Sunny_XE.htm'
p139
V7.97 Lakh
p140
sS'https://www.cardekho.com/overview/Volkswagen_Ameo/Volkswagen_Ameo_1.2_MPI_Trendline.htm'
p141
V5.44 Lakh
p142
sS'https://www.cardekho.com/overview/Honda_Amaze/Honda_Amaze_S_CVT_i-VTEC.htm'
p143
V7.48 Lakh
p144
sS'https://www.cardekho.com/overview/Skoda_Octavia/Skoda_Octavia_Ambition_2.0_TDI_MT.htm'
p145
V18.99 Lakh
p146
sS'https://www.cardekho.com/overview/Tata_Indigo_CS/Tata_Indigo_CS_eLS_BS_IV.htm'
p147
V5.87 Lakh
p148
sS'https://www.cardekho.com/overview/Mercedes-Benz_New_C-Class/Mercedes-Benz_New_C-Class_C_220_CDI_Style.htm'
p149
V40.34 Lakh
p150
sS'https://www.cardekho.com/overview/Chevrolet_Cruze/Chevrolet_Cruze_LTZ.htm'
p151
V16.71 Lakh
p152
sS'https://www.cardekho.com/overview/Toyota_Corolla_Altis/Toyota_Corolla_Altis_D-4D_J.htm'
p153
V15.12 Lakh
p154
sS'https://www.cardekho.com/overview/Volkswagen_Ameo/Volkswagen_Ameo_1.5_TDI_Highline_AT.htm'
p155
V9.95 Lakh
p156
sS'https://www.cardekho.com/overview/Skoda_Octavia/Skoda_Octavia_Ambition_Plus_2.0_TDI_MT.htm'
p157
V19.68 Lakh
p158
sS'https://www.cardekho.com/overview/Skoda_Superb/Skoda_Superb_LK_1.8_TSI_AT.htm'
p159
V29.42 Lakh
p160
sS'https://www.cardekho.com/overview/Fiat_Linea/Fiat_Linea_Power_Up_1.4_Fire_Active.htm'
p161
V7.96 Lakh
p162
sS'https://www.cardekho.com/overview/Skoda_Rapid/Skoda_Rapid_1.6_MPI_Ambition.htm'
p163
V9.32 Lakh
p164
sS'https://www.cardekho.com/overview/Hyundai_Elantra/Hyundai_Elantra_1.6_SX.htm'
p165
V16.68 Lakh
p166
sS'https://www.cardekho.com/overview/Ford_Figo_Aspire/Ford_Figo_Aspire_1.5_TDCi_Titanium_Plus.htm'
p167
V8.05 Lakh
p168
sS'https://www.cardekho.com/overview/Maruti_Swift_Dzire/Maruti_Swift_Dzire_AMT_ZDI.htm'
p169
V8.63 Lakh
p170
sS'https://www.cardekho.com/overview/Nissan_Sunny/Nissan_Sunny_Diesel_XV.htm'
p171
V9.98 Lakh
p172
sS'https://www.cardekho.com/overview/Skoda_Superb/Skoda_Superb_Style_1.8_TSI_MT.htm'
p173
V24.87 Lakh
p174
sS'https://www.cardekho.com/overview/Mercedes-Benz_S-Class/Mercedes-Benz_S-Class_Maybach_S600_Guard.htm'
p175
V11.25 Cr
p176
sS'https://www.cardekho.com/overview/Volkswagen_Vento/Volkswagen_Vento_Celeste_1.5_TDI_Highline.htm'
p177
V11.59 Lakh
p178
sS'https://www.cardekho.com/overview/Mahindra_Verito/Mahindra_Verito_1.5_D6_BSIV.htm'
p179
V8.39 Lakh
p180
sS'https://www.cardekho.com/overview/Toyota_Etios/Toyota_Etios_1.5_G.htm'
p181
V6.92 Lakh
p182
sS'https://www.cardekho.com/overview/Honda_City/Honda_City_i_VTEC_VX.htm'
p183
V11.22 Lakh
p184
sS'https://www.cardekho.com/overview/Skoda_Octavia/Skoda_Octavia_Ambition_1.4_TSI_MT.htm'
p185
V17.06 Lakh
p186
sS'https://www.cardekho.com/overview/Mercedes-Benz_S-Class/Mercedes-Benz_S-Class_Maybach_S600.htm'
p187
V2.65 Cr
p188
sS'https://www.cardekho.com/overview/Mercedes-Benz_CLA/Mercedes-Benz_CLA_200_CGI.htm'
p189
V34.48 Lakh
p190
sS'https://www.cardekho.com/overview/Maruti_Ciaz/Maruti_Ciaz_VDI_SHVS.htm'
p191
V8.73 Lakh
p192
sS'https://www.cardekho.com/overview/Tata_Zest/Tata_Zest_Quadrajet_1.3_75PS_XE.htm'
p193
V6.36 Lakh
p194
sS'https://www.cardekho.com/overview/Mercedes-Benz_CLA/Mercedes-Benz_CLA_200_CDI_Style.htm'
p195
V32.17 Lakh
p196
sS'https://www.cardekho.com/overview/Skoda_Rapid/Skoda_Rapid_1.6_MPI_AT_Style_Plus.htm'
p197
V11.1 Lakh
p198
sS'https://www.cardekho.com/overview/Ford_Figo_Aspire/Ford_Figo_Aspire_1.5_TDCi_Trend.htm'
p199
V6.99 Lakh
p200
sS'https://www.cardekho.com/overview/Nissan_Sunny/Nissan_Sunny_XV_D_Premium_Safety.htm'
p201
V10.51 Lakh
p202
sS'https://www.cardekho.com/overview/Hyundai_Elantra/Hyundai_Elantra_1.6_S.htm'
p203
V15.05 Lakh
p204
sS'https://www.cardekho.com/overview/Maruti_Ciaz/Maruti_Ciaz_VXi_Option.htm'
p205
V8.13 Lakh
p206
sS'https://www.cardekho.com/overview/Skoda_Rapid/Skoda_Rapid_1.5_TDI_Style_Plus.htm'
p207
V11.11 Lakh
p208
sS'https://www.cardekho.com/overview/Toyota_Corolla_Altis/Toyota_Corolla_Altis_D-4D_Limited_Edition.htm'
p209
V16.3 Lakh
p210
sS'https://www.cardekho.com/overview/Mercedes-Benz_S-Class/Mercedes-Benz_S-Class_S_350_CDI.htm'
p211
V1.19 Cr
p212
sS'https://www.cardekho.com/overview/Volkswagen_Jetta/Volkswagen_Jetta_2.0L_TDI_Comfortline.htm'
p213
V16.7 Lakh
p214
sS'https://www.cardekho.com/overview/Toyota_Corolla_Altis/Toyota_Corolla_Altis_1.8_Limited_Edition.htm'
p215
V14.98 Lakh
p216
sS'https://www.cardekho.com/overview/Mahindra_Verito/Mahindra_Verito_1.5_D4_BSIV.htm'
p217
V7.64 Lakh
p218
sS'https://www.cardekho.com/overview/Mercedes-Benz_CLA/Mercedes-Benz_CLA_200_CDI_Sport.htm'
p219
V35.52 Lakh
p220
sS'https://www.cardekho.com/overview/Volkswagen_Ameo/Volkswagen_Ameo_1.2_MPI_Comfortline.htm'
p221
V6.21 Lakh
p222
sS'https://www.cardekho.com/overview/Volkswagen_Ameo/Volkswagen_Ameo_1.2_MPI_Highline.htm'
p223
V7.19 Lakh
p224
sS'https://www.cardekho.com/overview/Hyundai_Elantra/Hyundai_Elantra_1.6_SX_Option.htm'
p225
V18.0 Lakh
p226
sS'https://www.cardekho.com/overview/Skoda_Octavia/Skoda_Octavia_Ambition_2.0_TDI_AT.htm'
p227
V20.35 Lakh
p228
sS'https://www.cardekho.com/overview/Honda_City/Honda_City_i_DTec_VX_Option_BL.htm'
p229
V12.75 Lakh
p230
sS'https://www.cardekho.com/overview/Skoda_Rapid/Skoda_Rapid_1.6_MPI_AT_Style.htm'
p231
V10.74 Lakh
p232
sS'https://www.cardekho.com/overview/Mercedes-Benz_E-Class/Mercedes-Benz_E-Class_E_63_AMG.htm'
p233
V1.31 Cr
p234
sS'https://www.cardekho.com/overview/Chevrolet_Sail/Chevrolet_Sail_1.3_Base.htm'
p235
V7.2 Lakh
p236
sS'https://www.cardekho.com/overview/Tata_Zest/Tata_Zest_Quadrajet_1.3_XT.htm'
p237
V7.86 Lakh
p238
sS'https://www.cardekho.com/overview/Maruti_Ciaz/Maruti_Ciaz_ZDi_Plus_SHVS.htm'
p239
V10.71 Lakh
p240
sS'https://www.cardekho.com/overview/Toyota_Etios/Toyota_Etios_1.4_VXD.htm'
p241
V8.96 Lakh
p242
sS'https://www.cardekho.com/overview/Mercedes-Benz_E-Class/Mercedes-Benz_E-Class_E200_Edition_E.htm'
p243
V51.88 Lakh
p244
sS'https://www.cardekho.com/overview/Ford_Mustang/Ford_Mustang_V8.htm'
p245
V66.09 Lakh
p246
sS'https://www.cardekho.com/overview/Maruti_Ciaz/Maruti_Ciaz_VDi_Option_SHVS.htm'
p247
V8.88 Lakh
p248
sS'https://www.cardekho.com/overview/Maruti_Swift_Dzire/Maruti_Swift_Dzire_VXI_AT_Optional.htm'
p249
V7.12 Lakh
p250
sS'https://www.cardekho.com/overview/Toyota_Etios/Toyota_Etios_1.5_V.htm'
p251
V7.26 Lakh
p252
sS'https://www.cardekho.com/overview/Ford_Figo_Aspire/Ford_Figo_Aspire_1.2_Ti-VCT_Ambiente.htm'
p253
V5.38 Lakh
p254
sS'https://www.cardekho.com/overview/Maruti_Swift_Dzire/Maruti_Swift_Dzire_ZXI.htm'
p255
V7.04 Lakh
p256
sS'https://www.cardekho.com/overview/Tata_Indigo_CS/Tata_Indigo_CS_eVX.htm'
p257
V6.2 Lakh
p258
sS'https://www.cardekho.com/overview/Tata_Indigo_CS/Tata_Indigo_CS_LS_(TDI)_BS-III.htm'
p259
V5.54 Lakh
p260
sS'https://www.cardekho.com/overview/Maruti_Swift_Dzire/Maruti_Swift_Dzire_ZDI.htm'
p261
V8.12 Lakh
p262
sS'https://www.cardekho.com/overview/Renault_Scala/Renault_Scala_Diesel_RxL.htm'
p263
V9.07 Lakh
p264
sS'https://www.cardekho.com/overview/Volkswagen_Vento/Volkswagen_Vento_1.5_TDI_Highline.htm'
p265
V11.49 Lakh
p266
sS'https://www.cardekho.com/overview/Toyota_Etios/Toyota_Etios_1.4_VD.htm'
p267
V8.39 Lakh
p268
sS'https://www.cardekho.com/overview/Hyundai_Verna/Hyundai_Verna_1.6_CRDI_AT_SX_Option.htm'
p269
V13.33 Lakh
p270
sS'https://www.cardekho.com/overview/Maruti_Swift_Dzire/Maruti_Swift_Dzire_LXI.htm'
p271
V5.31 Lakh
p272
sS'https://www.cardekho.com/overview/Honda_City/Honda_City_i_VTEC_VX_Option_BL.htm'
p273
V11.53 Lakh
p274
sS'https://www.cardekho.com/overview/Renault_Scala/Renault_Scala_Diesel_RxZ.htm'
p275
V9.49 Lakh
p276
sS'https://www.cardekho.com/overview/Honda_City/Honda_City_i_VTEC_CVT_VX.htm'
p277
V12.34 Lakh
p278
sS'https://www.cardekho.com/overview/Volkswagen_Vento/Volkswagen_Vento_Celeste_1.2_TSI_Highline_AT.htm'
p279
V11.51 Lakh
p280
sS'https://www.cardekho.com/overview/Skoda_Rapid/Skoda_Rapid_1.6_MPI_Style_Plus.htm'
p281
V10.02 Lakh
p282
sS'https://www.cardekho.com/overview/Tata_Zest/Tata_Zest_Quadrajet_1.3_XTA.htm'
p283
V8.67 Lakh
p284
sS'https://www.cardekho.com/overview/Toyota_Corolla_Altis/Toyota_Corolla_Altis_GL_MT.htm'
p285
V17.57 Lakh
p286
sS'https://www.cardekho.com/overview/Mercedes-Benz_E-Class/Mercedes-Benz_E-Class_E400_Cabriolet.htm'
p287
V81.68 Lakh
p288
sS'https://www.cardekho.com/overview/Skoda_Rapid/Skoda_Rapid_1.6_MPI_Style_Plus_Black_Package.htm'
p289
V10.15 Lakh
p290
sS'https://www.cardekho.com/overview/Audi_A3/Audi_A3_40_TFSI_Premium.htm'
p291
V28.15 Lakh
p292
sS'https://www.cardekho.com/overview/Maruti_Swift_Dzire/Maruti_Swift_Dzire_LXI_Option.htm'
p293
V5.35 Lakh
p294
sS'https://www.cardekho.com/overview/Maruti_Ciaz/Maruti_Ciaz_RS_ZDi_Plus_SHVS.htm'
p295
V9.64 Lakh
p296
sS'https://www.cardekho.com/overview/Maruti_Swift_Dzire/Maruti_Swift_Dzire_VXI_Optional.htm'
p297
V6.27 Lakh
p298
sS'https://www.cardekho.com/overview/Honda_City/Honda_City_i_DTec_VX_Option.htm'
p299
V12.75 Lakh
p300
sS'https://www.cardekho.com/overview/Maruti_Swift_Dzire/Maruti_Swift_Dzire_LDI_Optional.htm'
p301
V6.85 Lakh
p302
sS'https://www.cardekho.com/overview/Mercedes-Benz_CLA/Mercedes-Benz_CLA_45_AMG.htm'
p303
V69.71 Lakh
p304
sS'https://www.cardekho.com/overview/Nissan_Sunny/Nissan_Sunny_Diesel_XE.htm'
p305
V8.85 Lakh
p306
sS'https://www.cardekho.com/overview/Volkswagen_Jetta/Volkswagen_Jetta_1.4_TSI_Comfortline.htm'
p307
V15.34 Lakh
p308
sS'https://www.cardekho.com/overview/Hyundai_Elantra/Hyundai_Elantra_2.0_SX_Option.htm'
p309
V16.88 Lakh
p310
sS'https://www.cardekho.com/overview/Toyota_Camry/Toyota_Camry_2.5_G.htm'
p311
V30.52 Lakh
p312
sS'https://www.cardekho.com/overview/Volkswagen_Vento/Volkswagen_Vento_1.5_TDI_Comfortline_AT.htm'
p313
V11.8 Lakh
p314
sS'https://www.cardekho.com/overview/Chevrolet_Sail/Chevrolet_Sail_1.2_LS.htm'
p315
V6.44 Lakh
p316
sS'https://www.cardekho.com/overview/Volvo_S60/Volvo_S60_D4_KINETIC.htm'
p317
V33.62 Lakh
p318
sS'https://www.cardekho.com/overview/Mercedes-Benz_New_C-Class/Mercedes-Benz_New_C-Class_C_220_CDI_Avantgarde.htm'
p319
V43.15 Lakh
p320
sS'https://www.cardekho.com/overview/Volkswagen_Ameo/Volkswagen_Ameo_1.5_TDI_Highline.htm'
p321
V8.6 Lakh
p322
sS'https://www.cardekho.com/overview/Chevrolet_Sail/Chevrolet_Sail_LS_ABS.htm'
p323
V7.96 Lakh
p324
sS'https://www.cardekho.com/overview/Hyundai_Elantra/Hyundai_Elantra_2.0_SX_AT.htm'
p325
V16.17 Lakh
p326
sS'https://www.cardekho.com/overview/Maruti_Swift_Dzire/Maruti_Swift_Dzire_VDI_Optional.htm'
p327
V7.25 Lakh
p328
sS'https://www.cardekho.com/overview/Toyota_Corolla_Altis/Toyota_Corolla_Altis_D-4D_G.htm'
p329
V16.73 Lakh
p330
sS'https://www.cardekho.com/overview/Maruti_Ciaz/Maruti_Ciaz_ZDi_SHVS.htm'
p331
V9.84 Lakh
p332
sS'https://www.cardekho.com/overview/Hyundai_Xcent/Hyundai_Xcent_1.2_Kappa_Base.htm'
p333
V5.55 Lakh
p334
sS'https://www.cardekho.com/overview/Tata_Zest/Tata_Zest_Revotron_1.2T_XM.htm'
p335
V5.84 Lakh
p336
sS'https://www.cardekho.com/overview/Nissan_Sunny/Nissan_Sunny_Diesel_XL.htm'
p337
V9.51 Lakh
p338
sS'https://www.cardekho.com/overview/Volkswagen_Ameo/Volkswagen_Ameo_1.5_TDI_Comfortline.htm'
p339
V7.8 Lakh
p340
sS'https://www.cardekho.com/overview/Skoda_Rapid/Skoda_Rapid_1.5_TDI_Ambition.htm'
p341
V10.41 Lakh
p342
sS'https://www.cardekho.com/overview/Volvo_S60/Volvo_S60_D4_Momentum.htm'
p343
V39.13 Lakh
p344
sS'https://www.cardekho.com/overview/Skoda_Superb/Skoda_Superb_LK_2.0_TDI_AT.htm'
p345
V32.1 Lakh
p346
sS'https://www.cardekho.com/overview/Fiat_Linea/Fiat_Linea_Power_Up_1.3_Active.htm'
p347
V9.19 Lakh
p348
sS'https://www.cardekho.com/overview/Honda_Amaze/Honda_Amaze_SX_i_DTEC.htm'
p349
V8.13 Lakh
p350
sS'https://www.cardekho.com/overview/Audi_A3/Audi_A3_35_TDI_Premium_Plus.htm'
p351
V31.88 Lakh
p352
sS'https://www.cardekho.com/overview/Honda_City/Honda_City_i_DTec_VX.htm'
p353
V12.45 Lakh
p354
sS'https://www.cardekho.com/overview/Volkswagen_Vento/Volkswagen_Vento_1.5_TDI_Trendline.htm'
p355
V9.56 Lakh
p356
sS'https://www.cardekho.com/overview/Tata_Zest/Tata_Zest_Revotron_1.2T_XMS.htm'
p357
V6.05 Lakh
p358
sS'https://www.cardekho.com/overview/Skoda_Superb/Skoda_Superb_Style_1.8_TSI_AT.htm'
p359
V26.21 Lakh
p360
sS'https://www.cardekho.com/overview/Mahindra_Verito/Mahindra_Verito_1.5_D2_BSIV.htm'
p361
V7.39 Lakh
p362
sS'https://www.cardekho.com/overview/Honda_City/Honda_City_i_DTec_E.htm'
p363
V9.6 Lakh
p364
sS'https://www.cardekho.com/overview/Chevrolet_Cruze/Chevrolet_Cruze_LT.htm'
p365
V13.95 Lakh
p366
sS'https://www.cardekho.com/overview/Maruti_Ciaz/Maruti_Ciaz_AT_ZXi.htm'
p367
V10.24 Lakh
p368
sS'https://www.cardekho.com/overview/Volkswagen_Vento/Volkswagen_Vento_1.5_TDI_Comfortline.htm'
p369
V10.5 Lakh
p370
sS'https://www.cardekho.com/overview/Skoda_Octavia/Skoda_Octavia_Ambition_Plus_2.0_TDI_AT.htm'
p371
V21.05 Lakh
p372
sS'https://www.cardekho.com/overview/Chevrolet_Sail/Chevrolet_Sail_1.3_LS.htm'
p373
V7.63 Lakh
p374
sS'https://www.cardekho.com/overview/Renault_Scala/Renault_Scala_RxL.htm'
p375
V8.0 Lakh
p376
sS'https://www.cardekho.com/overview/Toyota_Corolla_Altis/Toyota_Corolla_Altis_G_MT.htm'
p377
V15.61 Lakh
p378
sS'https://www.cardekho.com/overview/Tata_Zest/Tata_Zest_Revotron_1.2T_XE.htm'
p379
V5.2 Lakh
p380
sS'https://www.cardekho.com/overview/Hyundai_Verna/Hyundai_Verna_1.6_CRDI_SX_Option.htm'
p381
V12.5 Lakh
p382
sS'https://www.cardekho.com/overview/Maruti_Ciaz/Maruti_Ciaz_VXi.htm'
p383
V7.95 Lakh
p384
sS'https://www.cardekho.com/overview/Volkswagen_Vento/Volkswagen_Vento_1.6_Comfortline.htm'
p385
V9.23 Lakh
p386
sS'https://www.cardekho.com/overview/Mercedes-Benz_S-Class/Mercedes-Benz_S-Class_S_500_Coupe.htm'
p387
V2.09 Cr
p388
sS'https://www.cardekho.com/overview/Volkswagen_Ameo/Volkswagen_Ameo_1.5_TDI_Trendline.htm'
p389
V6.5 Lakh
p390
sS'https://www.cardekho.com/overview/Ford_Figo_Aspire/Ford_Figo_Aspire_1.2_Ti-VCT_Trend.htm'
p391
V5.87 Lakh
p392
sS'https://www.cardekho.com/overview/Skoda_Octavia/Skoda_Octavia_Ambition_Plus_1.8_TSI_AT.htm'
p393
V19.4 Lakh
p394
sS'https://www.cardekho.com/overview/Maruti_Swift_Dzire/Maruti_Swift_Dzire_VDI.htm'
p395
V7.13 Lakh
p396
sS'https://www.cardekho.com/overview/Hyundai_Xcent/Hyundai_Xcent_1.2_Kappa_S.htm'
p397
V6.27 Lakh
p398
sS'https://www.cardekho.com/overview/Audi_A6/Audi_A6_35_TFSI_Matrix.htm'
p399
V53.55 Lakh
p400
sS'https://www.cardekho.com/overview/Chevrolet_Sail/Chevrolet_Sail_1.2_LS_ABS.htm'
p401
V6.82 Lakh
p402
sS'https://www.cardekho.com/overview/Honda_Amaze/Honda_Amaze_VX_CVT_i-VTEC.htm'
p403
V8.48 Lakh
p404
sS'https://www.cardekho.com/overview/Mercedes-Benz_S-Class/Mercedes-Benz_S-Class_S_63_AMG_Coupe.htm'
p405
V2.67 Cr
p406
sS'https://www.cardekho.com/overview/Chevrolet_Cruze/Chevrolet_Cruze_LTZ_AT.htm'
p407
V17.76 Lakh
p408
sS'https://www.cardekho.com/overview/Volkswagen_Vento/Volkswagen_Vento_1.2_TSI_Highline_AT.htm'
p409
V11.42 Lakh
p410
sS'https://www.cardekho.com/overview/Mercedes-Benz_E-Class/Mercedes-Benz_E-Class_E250_Edition_E.htm'
p411
V54.19 Lakh
p412
sS'https://www.cardekho.com/overview/Toyota_Corolla_Altis/Toyota_Corolla_Altis_JS_MT.htm'
p413
V14.08 Lakh
p414
sS'https://www.cardekho.com/overview/Honda_Amaze/Honda_Amaze_S_i-DTEC.htm'
p415
V7.61 Lakh
p416
sS'https://www.cardekho.com/overview/Fiat_Linea/Fiat_Linea_125S.htm'
p417
V10.65 Lakh
p418
sS'https://www.cardekho.com/overview/Hyundai_Xcent/Hyundai_Xcent_1.2_Kappa_SX_Option.htm'
p419
V7.3 Lakh
p420
sS'https://www.cardekho.com/overview/Fiat_Linea_Classic/Fiat_Linea_Classic_Plus_1.3_Multijet.htm'
p421
V8.23 Lakh
p422
sS'https://www.cardekho.com/overview/Volkswagen_Vento/Volkswagen_Vento_1.6_Trendline.htm'
p423
V8.33 Lakh
p424
sS'https://www.cardekho.com/overview/Volkswagen_Jetta/Volkswagen_Jetta_2.0L_TDI_Trendline.htm'
p425
V15.2 Lakh
p426
sS'https://www.cardekho.com/overview/Hyundai_Xcent/Hyundai_Xcent_1.1_CRDi_S.htm'
p427
V7.18 Lakh
p428
sS'https://www.cardekho.com/overview/Ford_Figo_Aspire/Ford_Figo_Aspire_1.2_Ti-VCT_Titanium_Plus.htm'
p429
V6.93 Lakh
p430
sS'https://www.cardekho.com/overview/Honda_City/Honda_City_i_DTec_S.htm'
p431
V10.27 Lakh
p432
sS'https://www.cardekho.com/overview/Honda_City/Honda_City_i_VTEC_CVT_SV.htm'
p433
V10.62 Lakh
p434
sS'https://www.cardekho.com/overview/Tata_Indigo_CS/Tata_Indigo_CS_Emax_CNG_GLS.htm'
p435
V5.1 Lakh
p436
sS'https://www.cardekho.com/overview/Hyundai_Verna/Hyundai_Verna_1.4_CRDi.htm'
p437
V9.31 Lakh
p438
sS'https://www.cardekho.com/overview/Honda_Amaze/Honda_Amaze_VX_i-VTEC.htm'
p439
V7.48 Lakh
p440
sS'https://www.cardekho.com/overview/Hyundai_Verna/Hyundai_Verna_1.6_CRDi_S.htm'
p441
V10.48 Lakh
p442
sS'https://www.cardekho.com/overview/Skoda_Rapid/Skoda_Rapid_1.5_TDI_AT_Style_Plus_Black_Package.htm'
p443
V12.54 Lakh
p444
sS'https://www.cardekho.com/overview/Toyota_Corolla_Altis/Toyota_Corolla_Altis_D-4D_JS.htm'
p445
V15.32 Lakh
p446
sS'https://www.cardekho.com/overview/Maruti_Swift_Dzire/Maruti_Swift_Dzire_LXI_Optional-O.htm'
p447
V5.56 Lakh
p448
sS'https://www.cardekho.com/overview/Volkswagen_Jetta/Volkswagen_Jetta_2.0L_TDI_Highline_AT.htm'
p449
V19.24 Lakh
p450
sS'https://www.cardekho.com/overview/Honda_Amaze/Honda_Amaze_E_Option_i-DTEC.htm'
p451
V6.92 Lakh
p452
sS'https://www.cardekho.com/overview/Skoda_Rapid/Skoda_Rapid_1.5_TDI_Style_Plus_Black_Package.htm'
p453
V11.24 Lakh
p454
sS'https://www.cardekho.com/overview/Honda_City/Honda_City_i_VTEC_SV.htm'
p455
V9.59 Lakh
p456
sS'https://www.cardekho.com/overview/Tata_Zest/Tata_Zest_Quadrajet_1.3_XMA.htm'
p457
V7.82 Lakh
p458
sS'https://www.cardekho.com/overview/Mercedes-Benz_S-Class/Mercedes-Benz_S-Class_Maybach_S500.htm'
p459
V1.73 Cr
p460
sS'https://www.cardekho.com/overview/Ford_Figo_Aspire/Ford_Figo_Aspire_1.5_TDCi_Ambiente.htm'
p461
V6.5 Lakh
p462
sS'https://www.cardekho.com/overview/Honda_Amaze/Honda_Amaze_S_i-VTEC.htm'
p463
V6.41 Lakh
p464
sS'https://www.cardekho.com/overview/Ford_Figo_Aspire/Ford_Figo_Aspire_1.2_Ti-VCT_Titanium.htm'
p465
V6.11 Lakh
p466
sS'https://www.cardekho.com/overview/Hyundai_Verna/Hyundai_Verna_1.6_SX_VTVT.htm'
p467
V9.95 Lakh
p468
sS'https://www.cardekho.com/overview/Honda_Amaze/Honda_Amaze_VX_i_DTEC.htm'
p469
V8.54 Lakh
p470
sS'https://www.cardekho.com/overview/Toyota_Camry/Toyota_Camry_Hybrid.htm'
p471
V33.44 Lakh
p472
sS'https://www.cardekho.com/overview/Hyundai_Verna/Hyundai_Verna_1.6_VTVT_AT_S.htm'
p473
V10.12 Lakh
p474
sS'https://www.cardekho.com/overview/Ford_Figo_Aspire/Ford_Figo_Aspire_1.5_TDCi_Titanium.htm'
p475
V7.22 Lakh
p476
sS'https://www.cardekho.com/overview/Volkswagen_Vento/Volkswagen_Vento_1.5_TDI_Highline_AT.htm'
p477
V12.73 Lakh
p478
sS'https://www.cardekho.com/overview/Mercedes-Benz_E-Class/Mercedes-Benz_E-Class_E_200_CGI.htm'
p479
V51.88 Lakh
p480
sS'https://www.cardekho.com/overview/Mahindra_E_Verito/Mahindra_E_Verito_D2.htm'
p481
V9.5 Lakh
p482
sS'https://www.cardekho.com/overview/Hyundai_Verna/Hyundai_Verna_1.4_VTVT.htm'
p483
V8.02 Lakh
p484
sS'https://www.cardekho.com/overview/Audi_A3/Audi_A3_35_TDI_Technology.htm'
p485
V36.94 Lakh
p486
sS'https://www.cardekho.com/overview/Volkswagen_Vento/Volkswagen_Vento_Celeste_1.5_TDI_Highline_AT.htm'
p487
V12.83 Lakh
p488
sS'https://www.cardekho.com/overview/Fiat_Linea_Classic/Fiat_Linea_Classic_Plus_With_Alloy_1.3_Multijet.htm'
p489
V8.39 Lakh
p490
sS'https://www.cardekho.com/overview/Maruti_Ciaz/Maruti_Ciaz_ZXi_Plus.htm'
p491
V9.79 Lakh
p492
sS'https://www.cardekho.com/overview/Hyundai_Elantra/Hyundai_Elantra_2.0_SX.htm'
p493
V15.05 Lakh
p494
sS'https://www.cardekho.com/overview/Skoda_Rapid/Skoda_Rapid_1.5_TDI_Active.htm'
p495
V9.26 Lakh
p496
sS'https://www.cardekho.com/overview/Maruti_Ciaz/Maruti_Ciaz_VXi_Plus.htm'
p497
V8.55 Lakh
p498
sS'https://www.cardekho.com/overview/Tata_Indigo_CS/Tata_Indigo_CS_LX_(TDI)_BS-III.htm'
p499
V5.78 Lakh
p500
sS'https://www.cardekho.com/overview/Ford_Figo_Aspire/Ford_Figo_Aspire_1.5_Ti-VCT_Titanium.htm'
p501
V8.35 Lakh
p502
sS'https://www.cardekho.com/overview/Audi_A6/Audi_A6_35_TDI.htm'
p503
V53.55 Lakh
p504
sS'https://www.cardekho.com/overview/Honda_City/Honda_City_i_VTEC_VX_Option.htm'
p505
V11.53 Lakh
p506
sS'https://www.cardekho.com/overview/Skoda_Rapid/Skoda_Rapid_1.6_MPI_Active.htm'
p507
V8.17 Lakh
p508
sS'https://www.cardekho.com/overview/Hyundai_Xcent/Hyundai_Xcent_1.2_Kappa_SX.htm'
p509
V6.6 Lakh
p510
sS'https://www.cardekho.com/overview/Honda_City/Honda_City_i_VTEC_E.htm'
p511
V8.33 Lakh
p512
sS'https://www.cardekho.com/overview/Volkswagen_Vento/Volkswagen_Vento_1.6_Highline.htm'
p513
V10.15 Lakh
p514
sS'https://www.cardekho.com/overview/Maruti_Swift_Dzire/Maruti_Swift_Dzire_VXi_AT.htm'
p515
V6.92 Lakh
p516
sS'https://www.cardekho.com/overview/Honda_Amaze/Honda_Amaze_E_i-VTEC.htm'
p517
V5.56 Lakh
p518
sS'https://www.cardekho.com/overview/Honda_Amaze/Honda_Amaze_S_Option_i-DTEC.htm'
p519
V7.73 Lakh
p520
sS'https://www.cardekho.com/overview/Volkswagen_Vento/Volkswagen_Vento_1.2_TSI_Comfortline_AT.htm'
p521
V10.49 Lakh
p522
sS'https://www.cardekho.com/overview/Skoda_Rapid/Skoda_Rapid_1.5_TDI_AT_Ambition.htm'
p523
V11.71 Lakh
p524
sS'https://www.cardekho.com/overview/Mercedes-Benz_New_C-Class/Mercedes-Benz_New_C-Class_C_200_CGI.htm'
p525
V42.14 Lakh
p526
sS'https://www.cardekho.com/overview/Maruti_Ciaz/Maruti_Ciaz_ZXi.htm'
p527
V9.23 Lakh
p528
sS'https://www.cardekho.com/overview/Toyota_Etios/Toyota_Etios_1.4_GD.htm'
p529
V8.05 Lakh
p530
s.