(dp0
S'Renault Duster'
p1
(dp2
g1
(dp3
S'Capacity'
p4
(lp5
(dp6
S'Kerb Weight'
p7
S'-'
p8
sS'Width'
p9
S'True'
p10
sS'Front Tread'
p11
g10
sS'No of Floors'
p12
g8
sS'Ground Clearance'
p13
g10
sS'Seating Capacity'
p14
S'5'
p15
sS'Front Legroom'
p16
g8
sS'Tyre Type'
p17
S'Tubeless,Radial'
p18
sS'Gross Weight'
p19
g10
sS'No of Doors'
p20
g15
sS'Rear Headroom'
p21
g8
sS'Fuel Tank Capacity (Liters)'
p22
S'50'
p23
sS'Wheel Base'
p24
g10
sS'Alloy Wheel Size'
p25
g8
sS'Length'
p26
g10
sS'Front Headroom'
p27
g8
sS'Rear Legroom'
p28
g8
sS'Wheel Size'
p29
S'16 Inch'
p30
sS'Rear Tread'
p31
g10
sS'Cargo Volume'
p32
S'475-litres'
p33
sS'Height'
p34
g10
sS'Tyre Size'
p35
S'215/65 R16'
p36
sasS'Comfort'
p37
(lp38
(dp39
S'Leather Seats'
p40
S'False'
p41
sS'Vanity Mirror'
p42
g10
sS'Cruise Control'
p43
g41
sS'DVD Player'
p44
g41
sS'Rear Reading Lamp'
p45
g41
sS'Cup Holders-Front'
p46
g10
sS'Audio System Remote Control'
p47
g41
sS'Front Suspension'
p48
S'MacPherson Strut'
p49
sS'Glove Box Cooling'
p50
g41
sS'Touch Screen'
p51
g41
sS'Integrated 2DIN Audio'
p52
g41
sS'Bottle Holder'
p53
g10
sS'Cup Holders-Rear'
p54
g41
sS'Adjustable Seats'
p55
g10
sS'CD Player'
p56
g41
sS'Speakers Front'
p57
g41
sS'Remote Fuel Lid Opener'
p58
g41
sS'Power Steering'
p59
g10
sS'Air Conditioner'
p60
g10
sS'Voice Control'
p61
g41
sS'Rear Seat Headrest'
p62
g10
sS'USB & Auxiliary input'
p63
g41
sS'Bluetooth Connectivity'
p64
g41
sS'Cassette Player'
p65
g41
sS'Rear Suspension'
p66
S'Trailing Arm'
p67
sS'Fabric Upholstery'
p68
g10
sS'Automatic Climate Control'
p69
g41
sS'Engine Start/Stop Button'
p70
g41
sS'Remote Trunk Opener'
p71
g10
sS'Accessory Power Outlet'
p72
g10
sS'FM/AM/Radio'
p73
g41
sS'Shock Absorbers Type'
p74
S'Double Acting'
p75
sS'Foldable Rear Seat'
p76
g10
sS'Speakers Rear'
p77
g41
sS'Rear Seat Center Arm Rest'
p78
g41
sS'CD Changer'
p79
g41
sS'Multi-function Steering Wheel'
p80
g41
sS'Low Fuel Warning Light'
p81
g10
sS'Air Quality Control'
p82
g41
sS'Heated Seats - Rear'
p83
g41
sS'Transmission Type'
p84
S'Manual'
p85
sS'Rear A/C Vents'
p86
g41
sS'Trunk Light'
p87
g10
sS'Heated Seats - Front'
p88
g41
sS'Navigation System'
p89
g41
sS'Seat Lumbar Support'
p90
g41
sasS'Safety'
p91
(lp92
(dp93
S'Parking Sensors'
p94
g41
sS'Height Adjustable Front Seat Belts'
p95
g41
sS'Front Brake Type'
p96
S'Disc'
p97
sS'Brake Assist'
p98
g41
sS'Child Safety Locks'
p99
g10
sS'Door Ajar Warning'
p100
g10
sS'Rear Seat Belts'
p101
g10
sS'Passenger Airbag'
p102
g41
sS'Follow Me Home Headlamps'
p103
g41
sS'Traction Control'
p104
g41
sS'Braking Time'
p105
g8
sS'Anti-Theft Alarm'
p106
g41
sS'Rear Camera'
p107
g41
sS'Smart Access Card Entry'
p108
g41
sS'Day & Night Rear View Mirror'
p109
g10
sS'Crash Sensor'
p110
g41
sS'Engine Immobilizer'
p111
g10
sS'Driver Airbag'
p112
g41
sS'Side Airbag-Front'
p113
g41
sS'Seat Belt Warning'
p114
g41
sS'Side Airbag-Rear'
p115
g41
sS'Centrally Mounted Fuel Tank'
p116
g10
sS'Front Impact Beams'
p117
g10
sS'Passenger Side Rear View Mirror'
p118
g10
sS'Rear Brake Type'
p119
S'Drum'
p120
sS'Central Locking'
p121
g10
sS'Drag Coefficient'
p122
g8
sS'Power Door Locks'
p123
g10
sS'Anti-Lock Braking System'
p124
g41
sS'Automatic Headlamps'
p125
g41
sS'Side Impact Beams'
p126
g10
sasS'Others'
p127
(lp128
(dp129
S'Warranty Time'
p130
S'2 Years'
p131
sS'Country of Manufacture'
p132
S'India'
p133
sS'Synchronizers'
p134
g8
sS'Country of Assembly'
p135
S'India'
p136
sS'Emission Control System'
p137
g8
sS'Warranty Distance'
p138
S'50000 Kms'
p139
sS'Bore x Stroke'
p140
g8
sS'Emission Norm Compliance'
p141
S'BS IV'
p142
sS'Clutch Type'
p143
g8
sasS'Performance'
p144
(lp145
(dp146
S'No. of Cylinders'
p147
S'4'
p148
sS'Super Charger'
p149
S'No'
p150
sS'Maximum Power'
p151
S'83.8bhp@3750rpm'
p152
sS'Valves Per Cylinder'
p153
g148
sS'Engine Description'
p154
S'1.5-litre 83.8bhp 16V dCi THP Diesel Engine'
p155
sS'Engine Displacement(cc)'
p156
S'1461'
p157
sS'Turning Radius'
p158
S'5.2 metres'
p159
sS'Fuel Supply System'
p160
S'CRDi'
p161
sS'Acceleration (0-100 kmph)'
p162
S'13.9 Seconds'
p163
sS'Drive Type'
p164
S'FWD'
p165
sS'Steering Gear Type'
p166
S'Rack & Pinion'
p167
sS'Compression Ratio'
p168
g8
sS'Gear box'
p169
S'5 speed'
p170
sS'Top Speed'
p171
S'156 Kmph'
p172
sS'Maximum Torque'
p173
S'200Nm@1750rpm'
p174
sS'Turbo Charger'
p175
S'Yes'
p176
sasS'Key Specs'
p177
(lp178
(dp179
S'Torque'
p180
S'200Nm@1750rpm'
p181
sS'Ex-showroom Price New Delhi'
p182
S'` 9,26,999 Finance Quotes'
p183
sS'Fuel Type'
p184
S'Diesel'
p185
sS'BHP'
p186
S'83.8bhp@3750rpm'
p187
sS'Engine Displacement'
p188
S'1461 cc'
p189
sS'City / Highway Mileage'
p190
S'16.1 kmpl / 19.87 kmpl'
p191
sasssI1
I2
s.